
FREERTOS_SAM_EXAMPLE1.elf:     file format elf32-littlearm

Sections:
Idx Name          Size      VMA       LMA       File off  Algn
  0 .text         00009be0  00400000  00400000  00010000  2**6
                  CONTENTS, ALLOC, LOAD, READONLY, CODE
  1 .ARM.exidx    00000008  00409be0  00409be0  00019be0  2**2
                  CONTENTS, ALLOC, LOAD, READONLY, DATA
  2 .relocate     000008ac  20400000  00409be8  00020000  2**3
                  CONTENTS, ALLOC, LOAD, DATA
  3 .bss          0000036c  204008ac  0040a494  000208ac  2**2
                  ALLOC
  4 .stack        00002000  20400c18  0040a800  000208ac  2**0
                  ALLOC
  5 .heap         00000200  20402c18  0040c800  000208ac  2**0
                  ALLOC
  6 .ARM.attributes 0000002e  00000000  00000000  000208ac  2**0
                  CONTENTS, READONLY
  7 .comment      00000059  00000000  00000000  000208da  2**0
                  CONTENTS, READONLY
  8 .debug_info   00011b8a  00000000  00000000  00020933  2**0
                  CONTENTS, READONLY, DEBUGGING
  9 .debug_abbrev 00002bb9  00000000  00000000  000324bd  2**0
                  CONTENTS, READONLY, DEBUGGING
 10 .debug_loc    00008aa6  00000000  00000000  00035076  2**0
                  CONTENTS, READONLY, DEBUGGING
 11 .debug_aranges 00000df8  00000000  00000000  0003db1c  2**0
                  CONTENTS, READONLY, DEBUGGING
 12 .debug_ranges 00000e78  00000000  00000000  0003e914  2**0
                  CONTENTS, READONLY, DEBUGGING
 13 .debug_macro  000208f8  00000000  00000000  0003f78c  2**0
                  CONTENTS, READONLY, DEBUGGING
 14 .debug_line   0000f76c  00000000  00000000  00060084  2**0
                  CONTENTS, READONLY, DEBUGGING
 15 .debug_str    0009271c  00000000  00000000  0006f7f0  2**0
                  CONTENTS, READONLY, DEBUGGING
 16 .debug_frame  000031ec  00000000  00000000  00101f0c  2**2
                  CONTENTS, READONLY, DEBUGGING

Disassembly of section .text:

00400000 <_sfixed>:
  400000:	20402c18 	.word	0x20402c18
  400004:	0040082d 	.word	0x0040082d
  400008:	00400829 	.word	0x00400829
  40000c:	00400829 	.word	0x00400829
  400010:	00400829 	.word	0x00400829
  400014:	00400829 	.word	0x00400829
  400018:	00400829 	.word	0x00400829
	...
  40002c:	00400c05 	.word	0x00400c05
  400030:	00400829 	.word	0x00400829
  400034:	00000000 	.word	0x00000000
  400038:	00400ca5 	.word	0x00400ca5
  40003c:	00400d0d 	.word	0x00400d0d
  400040:	00400829 	.word	0x00400829
  400044:	00400829 	.word	0x00400829
  400048:	00400829 	.word	0x00400829
  40004c:	00400829 	.word	0x00400829
  400050:	00400829 	.word	0x00400829
  400054:	00400829 	.word	0x00400829
  400058:	00400829 	.word	0x00400829
  40005c:	00400829 	.word	0x00400829
  400060:	00400829 	.word	0x00400829
  400064:	00000000 	.word	0x00000000
  400068:	00400505 	.word	0x00400505
  40006c:	00400519 	.word	0x00400519
  400070:	0040052d 	.word	0x0040052d
  400074:	00400829 	.word	0x00400829
  400078:	00400829 	.word	0x00400829
  40007c:	00400829 	.word	0x00400829
  400080:	00400541 	.word	0x00400541
  400084:	00400555 	.word	0x00400555
  400088:	00400829 	.word	0x00400829
  40008c:	00400829 	.word	0x00400829
  400090:	00400829 	.word	0x00400829
  400094:	00400829 	.word	0x00400829
  400098:	00400829 	.word	0x00400829
  40009c:	00400829 	.word	0x00400829
  4000a0:	00400829 	.word	0x00400829
  4000a4:	00400829 	.word	0x00400829
  4000a8:	00400829 	.word	0x00400829
  4000ac:	00400829 	.word	0x00400829
  4000b0:	00400829 	.word	0x00400829
  4000b4:	00400829 	.word	0x00400829
  4000b8:	00400829 	.word	0x00400829
  4000bc:	00400829 	.word	0x00400829
  4000c0:	00400829 	.word	0x00400829
  4000c4:	00400829 	.word	0x00400829
  4000c8:	00400829 	.word	0x00400829
  4000cc:	00400829 	.word	0x00400829
  4000d0:	00000000 	.word	0x00000000
  4000d4:	00400829 	.word	0x00400829
  4000d8:	00000000 	.word	0x00000000
  4000dc:	00400829 	.word	0x00400829
  4000e0:	00400829 	.word	0x00400829
  4000e4:	00400829 	.word	0x00400829
  4000e8:	00400829 	.word	0x00400829
  4000ec:	00400829 	.word	0x00400829
  4000f0:	00400829 	.word	0x00400829
  4000f4:	00400829 	.word	0x00400829
  4000f8:	00400829 	.word	0x00400829
  4000fc:	00400829 	.word	0x00400829
  400100:	00400829 	.word	0x00400829
  400104:	00400829 	.word	0x00400829
  400108:	00400829 	.word	0x00400829
  40010c:	00400829 	.word	0x00400829
  400110:	00400829 	.word	0x00400829
	...
  400120:	00400829 	.word	0x00400829
  400124:	00400829 	.word	0x00400829
  400128:	00400829 	.word	0x00400829
  40012c:	00400829 	.word	0x00400829
  400130:	00400829 	.word	0x00400829
  400134:	00000000 	.word	0x00000000
  400138:	00400829 	.word	0x00400829
  40013c:	00400829 	.word	0x00400829

00400140 <__do_global_dtors_aux>:
  400140:	b510      	push	{r4, lr}
  400142:	4c05      	ldr	r4, [pc, #20]	; (400158 <__do_global_dtors_aux+0x18>)
  400144:	7823      	ldrb	r3, [r4, #0]
  400146:	b933      	cbnz	r3, 400156 <__do_global_dtors_aux+0x16>
  400148:	4b04      	ldr	r3, [pc, #16]	; (40015c <__do_global_dtors_aux+0x1c>)
  40014a:	b113      	cbz	r3, 400152 <__do_global_dtors_aux+0x12>
  40014c:	4804      	ldr	r0, [pc, #16]	; (400160 <__do_global_dtors_aux+0x20>)
  40014e:	f3af 8000 	nop.w
  400152:	2301      	movs	r3, #1
  400154:	7023      	strb	r3, [r4, #0]
  400156:	bd10      	pop	{r4, pc}
  400158:	204008ac 	.word	0x204008ac
  40015c:	00000000 	.word	0x00000000
  400160:	00409be8 	.word	0x00409be8

00400164 <frame_dummy>:
  400164:	4b08      	ldr	r3, [pc, #32]	; (400188 <frame_dummy+0x24>)
  400166:	b510      	push	{r4, lr}
  400168:	b11b      	cbz	r3, 400172 <frame_dummy+0xe>
  40016a:	4908      	ldr	r1, [pc, #32]	; (40018c <frame_dummy+0x28>)
  40016c:	4808      	ldr	r0, [pc, #32]	; (400190 <frame_dummy+0x2c>)
  40016e:	f3af 8000 	nop.w
  400172:	4808      	ldr	r0, [pc, #32]	; (400194 <frame_dummy+0x30>)
  400174:	6803      	ldr	r3, [r0, #0]
  400176:	b903      	cbnz	r3, 40017a <frame_dummy+0x16>
  400178:	bd10      	pop	{r4, pc}
  40017a:	4b07      	ldr	r3, [pc, #28]	; (400198 <frame_dummy+0x34>)
  40017c:	2b00      	cmp	r3, #0
  40017e:	d0fb      	beq.n	400178 <frame_dummy+0x14>
  400180:	e8bd 4010 	ldmia.w	sp!, {r4, lr}
  400184:	4718      	bx	r3
  400186:	bf00      	nop
  400188:	00000000 	.word	0x00000000
  40018c:	204008b0 	.word	0x204008b0
  400190:	00409be8 	.word	0x00409be8
  400194:	00409be8 	.word	0x00409be8
  400198:	00000000 	.word	0x00000000

0040019c <sysclk_init>:
  40019c:	b510      	push	{r4, lr}
  40019e:	4810      	ldr	r0, [pc, #64]	; (4001e0 <sysclk_init+0x44>)
  4001a0:	4b10      	ldr	r3, [pc, #64]	; (4001e4 <sysclk_init+0x48>)
  4001a2:	4798      	blx	r3
  4001a4:	213e      	movs	r1, #62	; 0x3e
  4001a6:	2000      	movs	r0, #0
  4001a8:	4b0f      	ldr	r3, [pc, #60]	; (4001e8 <sysclk_init+0x4c>)
  4001aa:	4798      	blx	r3
  4001ac:	4c0f      	ldr	r4, [pc, #60]	; (4001ec <sysclk_init+0x50>)
  4001ae:	47a0      	blx	r4
  4001b0:	2800      	cmp	r0, #0
  4001b2:	d0fc      	beq.n	4001ae <sysclk_init+0x12>
  4001b4:	4b0e      	ldr	r3, [pc, #56]	; (4001f0 <sysclk_init+0x54>)
  4001b6:	4798      	blx	r3
  4001b8:	4a0e      	ldr	r2, [pc, #56]	; (4001f4 <sysclk_init+0x58>)
  4001ba:	4b0f      	ldr	r3, [pc, #60]	; (4001f8 <sysclk_init+0x5c>)
  4001bc:	629a      	str	r2, [r3, #40]	; 0x28
  4001be:	4c0f      	ldr	r4, [pc, #60]	; (4001fc <sysclk_init+0x60>)
  4001c0:	47a0      	blx	r4
  4001c2:	2800      	cmp	r0, #0
  4001c4:	d0fc      	beq.n	4001c0 <sysclk_init+0x24>
  4001c6:	2002      	movs	r0, #2
  4001c8:	4b0d      	ldr	r3, [pc, #52]	; (400200 <sysclk_init+0x64>)
  4001ca:	4798      	blx	r3
  4001cc:	2000      	movs	r0, #0
  4001ce:	4b0d      	ldr	r3, [pc, #52]	; (400204 <sysclk_init+0x68>)
  4001d0:	4798      	blx	r3
  4001d2:	4b0d      	ldr	r3, [pc, #52]	; (400208 <sysclk_init+0x6c>)
  4001d4:	4798      	blx	r3
  4001d6:	4802      	ldr	r0, [pc, #8]	; (4001e0 <sysclk_init+0x44>)
  4001d8:	4b02      	ldr	r3, [pc, #8]	; (4001e4 <sysclk_init+0x48>)
  4001da:	4798      	blx	r3
  4001dc:	bd10      	pop	{r4, pc}
  4001de:	bf00      	nop
  4001e0:	11e1a300 	.word	0x11e1a300
  4001e4:	00400a19 	.word	0x00400a19
  4001e8:	0040060d 	.word	0x0040060d
  4001ec:	00400661 	.word	0x00400661
  4001f0:	00400671 	.word	0x00400671
  4001f4:	20183f01 	.word	0x20183f01
  4001f8:	400e0600 	.word	0x400e0600
  4001fc:	00400681 	.word	0x00400681
  400200:	00400569 	.word	0x00400569
  400204:	004005a5 	.word	0x004005a5
  400208:	00400909 	.word	0x00400909

0040020c <_read>:
  40020c:	b990      	cbnz	r0, 400234 <_read+0x28>
  40020e:	e92d 41f0 	stmdb	sp!, {r4, r5, r6, r7, r8, lr}
  400212:	460c      	mov	r4, r1
  400214:	4690      	mov	r8, r2
  400216:	2a00      	cmp	r2, #0
  400218:	dd0f      	ble.n	40023a <_read+0x2e>
  40021a:	188f      	adds	r7, r1, r2
  40021c:	4e08      	ldr	r6, [pc, #32]	; (400240 <_read+0x34>)
  40021e:	4d09      	ldr	r5, [pc, #36]	; (400244 <_read+0x38>)
  400220:	6830      	ldr	r0, [r6, #0]
  400222:	4621      	mov	r1, r4
  400224:	682b      	ldr	r3, [r5, #0]
  400226:	4798      	blx	r3
  400228:	3401      	adds	r4, #1
  40022a:	42a7      	cmp	r7, r4
  40022c:	d1f8      	bne.n	400220 <_read+0x14>
  40022e:	4640      	mov	r0, r8
  400230:	e8bd 81f0 	ldmia.w	sp!, {r4, r5, r6, r7, r8, pc}
  400234:	f04f 30ff 	mov.w	r0, #4294967295
  400238:	4770      	bx	lr
  40023a:	2000      	movs	r0, #0
  40023c:	e8bd 81f0 	ldmia.w	sp!, {r4, r5, r6, r7, r8, pc}
  400240:	20400bd0 	.word	0x20400bd0
  400244:	20400bc8 	.word	0x20400bc8

00400248 <_write>:
  400248:	3801      	subs	r0, #1
  40024a:	2802      	cmp	r0, #2
  40024c:	d815      	bhi.n	40027a <_write+0x32>
  40024e:	e92d 41f0 	stmdb	sp!, {r4, r5, r6, r7, r8, lr}
  400252:	460e      	mov	r6, r1
  400254:	4614      	mov	r4, r2
  400256:	b19a      	cbz	r2, 400280 <_write+0x38>
  400258:	460d      	mov	r5, r1
  40025a:	f8df 8038 	ldr.w	r8, [pc, #56]	; 400294 <_write+0x4c>
  40025e:	4f0c      	ldr	r7, [pc, #48]	; (400290 <_write+0x48>)
  400260:	f8d8 0000 	ldr.w	r0, [r8]
  400264:	f815 1b01 	ldrb.w	r1, [r5], #1
  400268:	683b      	ldr	r3, [r7, #0]
  40026a:	4798      	blx	r3
  40026c:	2800      	cmp	r0, #0
  40026e:	db0a      	blt.n	400286 <_write+0x3e>
  400270:	1ba8      	subs	r0, r5, r6
  400272:	3c01      	subs	r4, #1
  400274:	d1f4      	bne.n	400260 <_write+0x18>
  400276:	e8bd 81f0 	ldmia.w	sp!, {r4, r5, r6, r7, r8, pc}
  40027a:	f04f 30ff 	mov.w	r0, #4294967295
  40027e:	4770      	bx	lr
  400280:	2000      	movs	r0, #0
  400282:	e8bd 81f0 	ldmia.w	sp!, {r4, r5, r6, r7, r8, pc}
  400286:	f04f 30ff 	mov.w	r0, #4294967295
  40028a:	e8bd 81f0 	ldmia.w	sp!, {r4, r5, r6, r7, r8, pc}
  40028e:	bf00      	nop
  400290:	20400bcc 	.word	0x20400bcc
  400294:	20400bd0 	.word	0x20400bd0

00400298 <board_init>:
  400298:	b5f8      	push	{r3, r4, r5, r6, r7, lr}
  40029a:	f44f 4200 	mov.w	r2, #32768	; 0x8000
  40029e:	4b57      	ldr	r3, [pc, #348]	; (4003fc <board_init+0x164>)
  4002a0:	605a      	str	r2, [r3, #4]
  4002a2:	f3bf 8f4f 	dsb	sy
  4002a6:	f3bf 8f6f 	isb	sy
  4002aa:	4b55      	ldr	r3, [pc, #340]	; (400400 <board_init+0x168>)
  4002ac:	2200      	movs	r2, #0
  4002ae:	f8c3 2250 	str.w	r2, [r3, #592]	; 0x250
  4002b2:	695a      	ldr	r2, [r3, #20]
  4002b4:	f442 3200 	orr.w	r2, r2, #131072	; 0x20000
  4002b8:	615a      	str	r2, [r3, #20]
  4002ba:	f3bf 8f4f 	dsb	sy
  4002be:	f3bf 8f6f 	isb	sy
  4002c2:	f8d3 6080 	ldr.w	r6, [r3, #128]	; 0x80
  4002c6:	f3c6 354e 	ubfx	r5, r6, #13, #15
  4002ca:	f006 0707 	and.w	r7, r6, #7
  4002ce:	3704      	adds	r7, #4
  4002d0:	f3c6 06c9 	ubfx	r6, r6, #3, #10
  4002d4:	fab6 f086 	clz	r0, r6
  4002d8:	f000 001f 	and.w	r0, r0, #31
  4002dc:	f3bf 8f4f 	dsb	sy
  4002e0:	461c      	mov	r4, r3
  4002e2:	4633      	mov	r3, r6
  4002e4:	fa05 f107 	lsl.w	r1, r5, r7
  4002e8:	fa03 f200 	lsl.w	r2, r3, r0
  4002ec:	430a      	orrs	r2, r1
  4002ee:	f8c4 2260 	str.w	r2, [r4, #608]	; 0x260
  4002f2:	3b01      	subs	r3, #1
  4002f4:	f1b3 3fff 	cmp.w	r3, #4294967295
  4002f8:	d1f6      	bne.n	4002e8 <board_init+0x50>
  4002fa:	3d01      	subs	r5, #1
  4002fc:	f1b5 3fff 	cmp.w	r5, #4294967295
  400300:	d1ef      	bne.n	4002e2 <board_init+0x4a>
  400302:	f3bf 8f4f 	dsb	sy
  400306:	4b3e      	ldr	r3, [pc, #248]	; (400400 <board_init+0x168>)
  400308:	695a      	ldr	r2, [r3, #20]
  40030a:	f442 3280 	orr.w	r2, r2, #65536	; 0x10000
  40030e:	615a      	str	r2, [r3, #20]
  400310:	f3bf 8f4f 	dsb	sy
  400314:	f3bf 8f6f 	isb	sy
  400318:	4a3a      	ldr	r2, [pc, #232]	; (400404 <board_init+0x16c>)
  40031a:	493b      	ldr	r1, [pc, #236]	; (400408 <board_init+0x170>)
  40031c:	6051      	str	r1, [r2, #4]
  40031e:	f5a1 7180 	sub.w	r1, r1, #256	; 0x100
  400322:	6051      	str	r1, [r2, #4]
  400324:	f3bf 8f4f 	dsb	sy
  400328:	f3bf 8f6f 	isb	sy
  40032c:	f8d3 2290 	ldr.w	r2, [r3, #656]	; 0x290
  400330:	f022 0201 	bic.w	r2, r2, #1
  400334:	f8c3 2290 	str.w	r2, [r3, #656]	; 0x290
  400338:	f8d3 2294 	ldr.w	r2, [r3, #660]	; 0x294
  40033c:	f022 0201 	bic.w	r2, r2, #1
  400340:	f8c3 2294 	str.w	r2, [r3, #660]	; 0x294
  400344:	f3bf 8f4f 	dsb	sy
  400348:	f3bf 8f6f 	isb	sy
  40034c:	200a      	movs	r0, #10
  40034e:	4c2f      	ldr	r4, [pc, #188]	; (40040c <board_init+0x174>)
  400350:	47a0      	blx	r4
  400352:	200b      	movs	r0, #11
  400354:	47a0      	blx	r4
  400356:	200c      	movs	r0, #12
  400358:	47a0      	blx	r4
  40035a:	2010      	movs	r0, #16
  40035c:	47a0      	blx	r4
  40035e:	2011      	movs	r0, #17
  400360:	47a0      	blx	r4
  400362:	4b2b      	ldr	r3, [pc, #172]	; (400410 <board_init+0x178>)
  400364:	f44f 7280 	mov.w	r2, #256	; 0x100
  400368:	611a      	str	r2, [r3, #16]
  40036a:	f8c3 20a0 	str.w	r2, [r3, #160]	; 0xa0
  40036e:	631a      	str	r2, [r3, #48]	; 0x30
  400370:	f5a3 6380 	sub.w	r3, r3, #1024	; 0x400
  400374:	f44f 6200 	mov.w	r2, #2048	; 0x800
  400378:	615a      	str	r2, [r3, #20]
  40037a:	f8c3 20a0 	str.w	r2, [r3, #160]	; 0xa0
  40037e:	665a      	str	r2, [r3, #100]	; 0x64
  400380:	f8c3 2090 	str.w	r2, [r3, #144]	; 0x90
  400384:	655a      	str	r2, [r3, #84]	; 0x54
  400386:	621a      	str	r2, [r3, #32]
  400388:	f8c3 2084 	str.w	r2, [r3, #132]	; 0x84
  40038c:	6f19      	ldr	r1, [r3, #112]	; 0x70
  40038e:	f421 6100 	bic.w	r1, r1, #2048	; 0x800
  400392:	6719      	str	r1, [r3, #112]	; 0x70
  400394:	6f59      	ldr	r1, [r3, #116]	; 0x74
  400396:	f421 6100 	bic.w	r1, r1, #2048	; 0x800
  40039a:	6759      	str	r1, [r3, #116]	; 0x74
  40039c:	f8c3 20c0 	str.w	r2, [r3, #192]	; 0xc0
  4003a0:	f8c3 20d4 	str.w	r2, [r3, #212]	; 0xd4
  4003a4:	f8c3 20b0 	str.w	r2, [r3, #176]	; 0xb0
  4003a8:	f44f 1200 	mov.w	r2, #2097152	; 0x200000
  4003ac:	661a      	str	r2, [r3, #96]	; 0x60
  4003ae:	f8c3 2090 	str.w	r2, [r3, #144]	; 0x90
  4003b2:	655a      	str	r2, [r3, #84]	; 0x54
  4003b4:	625a      	str	r2, [r3, #36]	; 0x24
  4003b6:	f8c3 2080 	str.w	r2, [r3, #128]	; 0x80
  4003ba:	6f19      	ldr	r1, [r3, #112]	; 0x70
  4003bc:	f421 1100 	bic.w	r1, r1, #2097152	; 0x200000
  4003c0:	6719      	str	r1, [r3, #112]	; 0x70
  4003c2:	6f59      	ldr	r1, [r3, #116]	; 0x74
  4003c4:	f421 1100 	bic.w	r1, r1, #2097152	; 0x200000
  4003c8:	6759      	str	r1, [r3, #116]	; 0x74
  4003ca:	605a      	str	r2, [r3, #4]
  4003cc:	4a11      	ldr	r2, [pc, #68]	; (400414 <board_init+0x17c>)
  4003ce:	f8d2 3114 	ldr.w	r3, [r2, #276]	; 0x114
  4003d2:	f043 0310 	orr.w	r3, r3, #16
  4003d6:	f8c2 3114 	str.w	r3, [r2, #276]	; 0x114
  4003da:	4b0f      	ldr	r3, [pc, #60]	; (400418 <board_init+0x180>)
  4003dc:	2210      	movs	r2, #16
  4003de:	661a      	str	r2, [r3, #96]	; 0x60
  4003e0:	f8c3 2090 	str.w	r2, [r3, #144]	; 0x90
  4003e4:	655a      	str	r2, [r3, #84]	; 0x54
  4003e6:	625a      	str	r2, [r3, #36]	; 0x24
  4003e8:	f8c3 2080 	str.w	r2, [r3, #128]	; 0x80
  4003ec:	6f19      	ldr	r1, [r3, #112]	; 0x70
  4003ee:	4311      	orrs	r1, r2
  4003f0:	6719      	str	r1, [r3, #112]	; 0x70
  4003f2:	6f59      	ldr	r1, [r3, #116]	; 0x74
  4003f4:	4311      	orrs	r1, r2
  4003f6:	6759      	str	r1, [r3, #116]	; 0x74
  4003f8:	605a      	str	r2, [r3, #4]
  4003fa:	bdf8      	pop	{r3, r4, r5, r6, r7, pc}
  4003fc:	400e1850 	.word	0x400e1850
  400400:	e000ed00 	.word	0xe000ed00
  400404:	400e0c00 	.word	0x400e0c00
  400408:	5a00080c 	.word	0x5a00080c
  40040c:	00400691 	.word	0x00400691
  400410:	400e1200 	.word	0x400e1200
  400414:	40088000 	.word	0x40088000
  400418:	400e1000 	.word	0x400e1000

0040041c <pio_set>:
  40041c:	6301      	str	r1, [r0, #48]	; 0x30
  40041e:	4770      	bx	lr

00400420 <pio_clear>:
  400420:	6341      	str	r1, [r0, #52]	; 0x34
  400422:	4770      	bx	lr

00400424 <pio_get>:
  400424:	f021 6100 	bic.w	r1, r1, #134217728	; 0x8000000
  400428:	f1b1 5f40 	cmp.w	r1, #805306368	; 0x30000000
  40042c:	d101      	bne.n	400432 <pio_get+0xe>
  40042e:	6b83      	ldr	r3, [r0, #56]	; 0x38
  400430:	e000      	b.n	400434 <pio_get+0x10>
  400432:	6bc3      	ldr	r3, [r0, #60]	; 0x3c
  400434:	4213      	tst	r3, r2
  400436:	bf14      	ite	ne
  400438:	2001      	movne	r0, #1
  40043a:	2000      	moveq	r0, #0
  40043c:	4770      	bx	lr
  40043e:	bf00      	nop

00400440 <pio_set_input>:
  400440:	6441      	str	r1, [r0, #68]	; 0x44
  400442:	f012 0f01 	tst.w	r2, #1
  400446:	d001      	beq.n	40044c <pio_set_input+0xc>
  400448:	6641      	str	r1, [r0, #100]	; 0x64
  40044a:	e000      	b.n	40044e <pio_set_input+0xe>
  40044c:	6601      	str	r1, [r0, #96]	; 0x60
  40044e:	f012 0f0a 	tst.w	r2, #10
  400452:	d001      	beq.n	400458 <pio_set_input+0x18>
  400454:	6201      	str	r1, [r0, #32]
  400456:	e000      	b.n	40045a <pio_set_input+0x1a>
  400458:	6241      	str	r1, [r0, #36]	; 0x24
  40045a:	f012 0f02 	tst.w	r2, #2
  40045e:	d002      	beq.n	400466 <pio_set_input+0x26>
  400460:	f8c0 1080 	str.w	r1, [r0, #128]	; 0x80
  400464:	e004      	b.n	400470 <pio_set_input+0x30>
  400466:	f012 0f08 	tst.w	r2, #8
  40046a:	d001      	beq.n	400470 <pio_set_input+0x30>
  40046c:	f8c0 1084 	str.w	r1, [r0, #132]	; 0x84
  400470:	6141      	str	r1, [r0, #20]
  400472:	6001      	str	r1, [r0, #0]
  400474:	4770      	bx	lr
  400476:	bf00      	nop

00400478 <pio_set_output>:
  400478:	b410      	push	{r4}
  40047a:	6441      	str	r1, [r0, #68]	; 0x44
  40047c:	9c01      	ldr	r4, [sp, #4]
  40047e:	b10c      	cbz	r4, 400484 <pio_set_output+0xc>
  400480:	6641      	str	r1, [r0, #100]	; 0x64
  400482:	e000      	b.n	400486 <pio_set_output+0xe>
  400484:	6601      	str	r1, [r0, #96]	; 0x60
  400486:	b10b      	cbz	r3, 40048c <pio_set_output+0x14>
  400488:	6501      	str	r1, [r0, #80]	; 0x50
  40048a:	e000      	b.n	40048e <pio_set_output+0x16>
  40048c:	6541      	str	r1, [r0, #84]	; 0x54
  40048e:	b10a      	cbz	r2, 400494 <pio_set_output+0x1c>
  400490:	6301      	str	r1, [r0, #48]	; 0x30
  400492:	e000      	b.n	400496 <pio_set_output+0x1e>
  400494:	6341      	str	r1, [r0, #52]	; 0x34
  400496:	6101      	str	r1, [r0, #16]
  400498:	6001      	str	r1, [r0, #0]
  40049a:	f85d 4b04 	ldr.w	r4, [sp], #4
  40049e:	4770      	bx	lr

004004a0 <pio_get_output_data_status>:
  4004a0:	6b83      	ldr	r3, [r0, #56]	; 0x38
  4004a2:	420b      	tst	r3, r1
  4004a4:	bf14      	ite	ne
  4004a6:	2001      	movne	r0, #1
  4004a8:	2000      	moveq	r0, #0
  4004aa:	4770      	bx	lr

004004ac <pio_get_interrupt_status>:
  4004ac:	6cc0      	ldr	r0, [r0, #76]	; 0x4c
  4004ae:	4770      	bx	lr

004004b0 <pio_get_interrupt_mask>:
  4004b0:	6c80      	ldr	r0, [r0, #72]	; 0x48
  4004b2:	4770      	bx	lr

004004b4 <pio_handler_process>:
  4004b4:	e92d 41f0 	stmdb	sp!, {r4, r5, r6, r7, r8, lr}
  4004b8:	4604      	mov	r4, r0
  4004ba:	4688      	mov	r8, r1
  4004bc:	4b0e      	ldr	r3, [pc, #56]	; (4004f8 <pio_handler_process+0x44>)
  4004be:	4798      	blx	r3
  4004c0:	4605      	mov	r5, r0
  4004c2:	4620      	mov	r0, r4
  4004c4:	4b0d      	ldr	r3, [pc, #52]	; (4004fc <pio_handler_process+0x48>)
  4004c6:	4798      	blx	r3
  4004c8:	4005      	ands	r5, r0
  4004ca:	d013      	beq.n	4004f4 <pio_handler_process+0x40>
  4004cc:	4c0c      	ldr	r4, [pc, #48]	; (400500 <pio_handler_process+0x4c>)
  4004ce:	f104 0660 	add.w	r6, r4, #96	; 0x60
  4004d2:	6823      	ldr	r3, [r4, #0]
  4004d4:	4543      	cmp	r3, r8
  4004d6:	d108      	bne.n	4004ea <pio_handler_process+0x36>
  4004d8:	6861      	ldr	r1, [r4, #4]
  4004da:	4229      	tst	r1, r5
  4004dc:	d005      	beq.n	4004ea <pio_handler_process+0x36>
  4004de:	68e3      	ldr	r3, [r4, #12]
  4004e0:	4640      	mov	r0, r8
  4004e2:	4798      	blx	r3
  4004e4:	6863      	ldr	r3, [r4, #4]
  4004e6:	ea25 0503 	bic.w	r5, r5, r3
  4004ea:	42b4      	cmp	r4, r6
  4004ec:	d002      	beq.n	4004f4 <pio_handler_process+0x40>
  4004ee:	3410      	adds	r4, #16
  4004f0:	2d00      	cmp	r5, #0
  4004f2:	d1ee      	bne.n	4004d2 <pio_handler_process+0x1e>
  4004f4:	e8bd 81f0 	ldmia.w	sp!, {r4, r5, r6, r7, r8, pc}
  4004f8:	004004ad 	.word	0x004004ad
  4004fc:	004004b1 	.word	0x004004b1
  400500:	204008c8 	.word	0x204008c8

00400504 <PIOA_Handler>:
  400504:	b508      	push	{r3, lr}
  400506:	210a      	movs	r1, #10
  400508:	4801      	ldr	r0, [pc, #4]	; (400510 <PIOA_Handler+0xc>)
  40050a:	4b02      	ldr	r3, [pc, #8]	; (400514 <PIOA_Handler+0x10>)
  40050c:	4798      	blx	r3
  40050e:	bd08      	pop	{r3, pc}
  400510:	400e0e00 	.word	0x400e0e00
  400514:	004004b5 	.word	0x004004b5

00400518 <PIOB_Handler>:
  400518:	b508      	push	{r3, lr}
  40051a:	210b      	movs	r1, #11
  40051c:	4801      	ldr	r0, [pc, #4]	; (400524 <PIOB_Handler+0xc>)
  40051e:	4b02      	ldr	r3, [pc, #8]	; (400528 <PIOB_Handler+0x10>)
  400520:	4798      	blx	r3
  400522:	bd08      	pop	{r3, pc}
  400524:	400e1000 	.word	0x400e1000
  400528:	004004b5 	.word	0x004004b5

0040052c <PIOC_Handler>:
  40052c:	b508      	push	{r3, lr}
  40052e:	210c      	movs	r1, #12
  400530:	4801      	ldr	r0, [pc, #4]	; (400538 <PIOC_Handler+0xc>)
  400532:	4b02      	ldr	r3, [pc, #8]	; (40053c <PIOC_Handler+0x10>)
  400534:	4798      	blx	r3
  400536:	bd08      	pop	{r3, pc}
  400538:	400e1200 	.word	0x400e1200
  40053c:	004004b5 	.word	0x004004b5

00400540 <PIOD_Handler>:
  400540:	b508      	push	{r3, lr}
  400542:	2110      	movs	r1, #16
  400544:	4801      	ldr	r0, [pc, #4]	; (40054c <PIOD_Handler+0xc>)
  400546:	4b02      	ldr	r3, [pc, #8]	; (400550 <PIOD_Handler+0x10>)
  400548:	4798      	blx	r3
  40054a:	bd08      	pop	{r3, pc}
  40054c:	400e1400 	.word	0x400e1400
  400550:	004004b5 	.word	0x004004b5

00400554 <PIOE_Handler>:
  400554:	b508      	push	{r3, lr}
  400556:	2111      	movs	r1, #17
  400558:	4801      	ldr	r0, [pc, #4]	; (400560 <PIOE_Handler+0xc>)
  40055a:	4b02      	ldr	r3, [pc, #8]	; (400564 <PIOE_Handler+0x10>)
  40055c:	4798      	blx	r3
  40055e:	bd08      	pop	{r3, pc}
  400560:	400e1600 	.word	0x400e1600
  400564:	004004b5 	.word	0x004004b5

00400568 <pmc_mck_set_division>:
  400568:	2803      	cmp	r0, #3
  40056a:	d007      	beq.n	40057c <pmc_mck_set_division+0x14>
  40056c:	2804      	cmp	r0, #4
  40056e:	d008      	beq.n	400582 <pmc_mck_set_division+0x1a>
  400570:	2802      	cmp	r0, #2
  400572:	bf0c      	ite	eq
  400574:	f44f 7280 	moveq.w	r2, #256	; 0x100
  400578:	2200      	movne	r2, #0
  40057a:	e004      	b.n	400586 <pmc_mck_set_division+0x1e>
  40057c:	f44f 7240 	mov.w	r2, #768	; 0x300
  400580:	e001      	b.n	400586 <pmc_mck_set_division+0x1e>
  400582:	f44f 7200 	mov.w	r2, #512	; 0x200
  400586:	4906      	ldr	r1, [pc, #24]	; (4005a0 <pmc_mck_set_division+0x38>)
  400588:	6b0b      	ldr	r3, [r1, #48]	; 0x30
  40058a:	f423 7340 	bic.w	r3, r3, #768	; 0x300
  40058e:	4313      	orrs	r3, r2
  400590:	630b      	str	r3, [r1, #48]	; 0x30
  400592:	460a      	mov	r2, r1
  400594:	6e93      	ldr	r3, [r2, #104]	; 0x68
  400596:	f013 0f08 	tst.w	r3, #8
  40059a:	d0fb      	beq.n	400594 <pmc_mck_set_division+0x2c>
  40059c:	4770      	bx	lr
  40059e:	bf00      	nop
  4005a0:	400e0600 	.word	0x400e0600

004005a4 <pmc_switch_mck_to_pllack>:
  4005a4:	4a18      	ldr	r2, [pc, #96]	; (400608 <pmc_switch_mck_to_pllack+0x64>)
  4005a6:	6b13      	ldr	r3, [r2, #48]	; 0x30
  4005a8:	f023 0370 	bic.w	r3, r3, #112	; 0x70
  4005ac:	4318      	orrs	r0, r3
  4005ae:	6310      	str	r0, [r2, #48]	; 0x30
  4005b0:	6e93      	ldr	r3, [r2, #104]	; 0x68
  4005b2:	f013 0f08 	tst.w	r3, #8
  4005b6:	d003      	beq.n	4005c0 <pmc_switch_mck_to_pllack+0x1c>
  4005b8:	e009      	b.n	4005ce <pmc_switch_mck_to_pllack+0x2a>
  4005ba:	3b01      	subs	r3, #1
  4005bc:	d103      	bne.n	4005c6 <pmc_switch_mck_to_pllack+0x22>
  4005be:	e01e      	b.n	4005fe <pmc_switch_mck_to_pllack+0x5a>
  4005c0:	f44f 5380 	mov.w	r3, #4096	; 0x1000
  4005c4:	4910      	ldr	r1, [pc, #64]	; (400608 <pmc_switch_mck_to_pllack+0x64>)
  4005c6:	6e8a      	ldr	r2, [r1, #104]	; 0x68
  4005c8:	f012 0f08 	tst.w	r2, #8
  4005cc:	d0f5      	beq.n	4005ba <pmc_switch_mck_to_pllack+0x16>
  4005ce:	4a0e      	ldr	r2, [pc, #56]	; (400608 <pmc_switch_mck_to_pllack+0x64>)
  4005d0:	6b13      	ldr	r3, [r2, #48]	; 0x30
  4005d2:	f023 0303 	bic.w	r3, r3, #3
  4005d6:	f043 0302 	orr.w	r3, r3, #2
  4005da:	6313      	str	r3, [r2, #48]	; 0x30
  4005dc:	6e90      	ldr	r0, [r2, #104]	; 0x68
  4005de:	f010 0008 	ands.w	r0, r0, #8
  4005e2:	d004      	beq.n	4005ee <pmc_switch_mck_to_pllack+0x4a>
  4005e4:	2000      	movs	r0, #0
  4005e6:	4770      	bx	lr
  4005e8:	3b01      	subs	r3, #1
  4005ea:	d103      	bne.n	4005f4 <pmc_switch_mck_to_pllack+0x50>
  4005ec:	e009      	b.n	400602 <pmc_switch_mck_to_pllack+0x5e>
  4005ee:	f44f 5380 	mov.w	r3, #4096	; 0x1000
  4005f2:	4905      	ldr	r1, [pc, #20]	; (400608 <pmc_switch_mck_to_pllack+0x64>)
  4005f4:	6e8a      	ldr	r2, [r1, #104]	; 0x68
  4005f6:	f012 0f08 	tst.w	r2, #8
  4005fa:	d0f5      	beq.n	4005e8 <pmc_switch_mck_to_pllack+0x44>
  4005fc:	4770      	bx	lr
  4005fe:	2001      	movs	r0, #1
  400600:	4770      	bx	lr
  400602:	2001      	movs	r0, #1
  400604:	4770      	bx	lr
  400606:	bf00      	nop
  400608:	400e0600 	.word	0x400e0600

0040060c <pmc_switch_mainck_to_xtal>:
  40060c:	b138      	cbz	r0, 40061e <pmc_switch_mainck_to_xtal+0x12>
  40060e:	490e      	ldr	r1, [pc, #56]	; (400648 <pmc_switch_mainck_to_xtal+0x3c>)
  400610:	6a0b      	ldr	r3, [r1, #32]
  400612:	4a0e      	ldr	r2, [pc, #56]	; (40064c <pmc_switch_mainck_to_xtal+0x40>)
  400614:	401a      	ands	r2, r3
  400616:	4b0e      	ldr	r3, [pc, #56]	; (400650 <pmc_switch_mainck_to_xtal+0x44>)
  400618:	4313      	orrs	r3, r2
  40061a:	620b      	str	r3, [r1, #32]
  40061c:	4770      	bx	lr
  40061e:	480a      	ldr	r0, [pc, #40]	; (400648 <pmc_switch_mainck_to_xtal+0x3c>)
  400620:	6a03      	ldr	r3, [r0, #32]
  400622:	0209      	lsls	r1, r1, #8
  400624:	b289      	uxth	r1, r1
  400626:	4a0b      	ldr	r2, [pc, #44]	; (400654 <pmc_switch_mainck_to_xtal+0x48>)
  400628:	401a      	ands	r2, r3
  40062a:	4b0b      	ldr	r3, [pc, #44]	; (400658 <pmc_switch_mainck_to_xtal+0x4c>)
  40062c:	4313      	orrs	r3, r2
  40062e:	4319      	orrs	r1, r3
  400630:	6201      	str	r1, [r0, #32]
  400632:	4602      	mov	r2, r0
  400634:	6e93      	ldr	r3, [r2, #104]	; 0x68
  400636:	f013 0f01 	tst.w	r3, #1
  40063a:	d0fb      	beq.n	400634 <pmc_switch_mainck_to_xtal+0x28>
  40063c:	4a02      	ldr	r2, [pc, #8]	; (400648 <pmc_switch_mainck_to_xtal+0x3c>)
  40063e:	6a11      	ldr	r1, [r2, #32]
  400640:	4b06      	ldr	r3, [pc, #24]	; (40065c <pmc_switch_mainck_to_xtal+0x50>)
  400642:	430b      	orrs	r3, r1
  400644:	6213      	str	r3, [r2, #32]
  400646:	4770      	bx	lr
  400648:	400e0600 	.word	0x400e0600
  40064c:	fec8fffc 	.word	0xfec8fffc
  400650:	01370002 	.word	0x01370002
  400654:	ffc8fffc 	.word	0xffc8fffc
  400658:	00370001 	.word	0x00370001
  40065c:	01370000 	.word	0x01370000

00400660 <pmc_osc_is_ready_mainck>:
  400660:	4b02      	ldr	r3, [pc, #8]	; (40066c <pmc_osc_is_ready_mainck+0xc>)
  400662:	6e98      	ldr	r0, [r3, #104]	; 0x68
  400664:	f400 3080 	and.w	r0, r0, #65536	; 0x10000
  400668:	4770      	bx	lr
  40066a:	bf00      	nop
  40066c:	400e0600 	.word	0x400e0600

00400670 <pmc_disable_pllack>:
  400670:	f04f 5200 	mov.w	r2, #536870912	; 0x20000000
  400674:	4b01      	ldr	r3, [pc, #4]	; (40067c <pmc_disable_pllack+0xc>)
  400676:	629a      	str	r2, [r3, #40]	; 0x28
  400678:	4770      	bx	lr
  40067a:	bf00      	nop
  40067c:	400e0600 	.word	0x400e0600

00400680 <pmc_is_locked_pllack>:
  400680:	4b02      	ldr	r3, [pc, #8]	; (40068c <pmc_is_locked_pllack+0xc>)
  400682:	6e98      	ldr	r0, [r3, #104]	; 0x68
  400684:	f000 0002 	and.w	r0, r0, #2
  400688:	4770      	bx	lr
  40068a:	bf00      	nop
  40068c:	400e0600 	.word	0x400e0600

00400690 <pmc_enable_periph_clk>:
  400690:	283f      	cmp	r0, #63	; 0x3f
  400692:	d81e      	bhi.n	4006d2 <pmc_enable_periph_clk+0x42>
  400694:	281f      	cmp	r0, #31
  400696:	d80c      	bhi.n	4006b2 <pmc_enable_periph_clk+0x22>
  400698:	4b11      	ldr	r3, [pc, #68]	; (4006e0 <pmc_enable_periph_clk+0x50>)
  40069a:	699a      	ldr	r2, [r3, #24]
  40069c:	2301      	movs	r3, #1
  40069e:	4083      	lsls	r3, r0
  4006a0:	4393      	bics	r3, r2
  4006a2:	d018      	beq.n	4006d6 <pmc_enable_periph_clk+0x46>
  4006a4:	2301      	movs	r3, #1
  4006a6:	fa03 f000 	lsl.w	r0, r3, r0
  4006aa:	4b0d      	ldr	r3, [pc, #52]	; (4006e0 <pmc_enable_periph_clk+0x50>)
  4006ac:	6118      	str	r0, [r3, #16]
  4006ae:	2000      	movs	r0, #0
  4006b0:	4770      	bx	lr
  4006b2:	3820      	subs	r0, #32
  4006b4:	4b0a      	ldr	r3, [pc, #40]	; (4006e0 <pmc_enable_periph_clk+0x50>)
  4006b6:	f8d3 2108 	ldr.w	r2, [r3, #264]	; 0x108
  4006ba:	2301      	movs	r3, #1
  4006bc:	4083      	lsls	r3, r0
  4006be:	4393      	bics	r3, r2
  4006c0:	d00b      	beq.n	4006da <pmc_enable_periph_clk+0x4a>
  4006c2:	2301      	movs	r3, #1
  4006c4:	fa03 f000 	lsl.w	r0, r3, r0
  4006c8:	4b05      	ldr	r3, [pc, #20]	; (4006e0 <pmc_enable_periph_clk+0x50>)
  4006ca:	f8c3 0100 	str.w	r0, [r3, #256]	; 0x100
  4006ce:	2000      	movs	r0, #0
  4006d0:	4770      	bx	lr
  4006d2:	2001      	movs	r0, #1
  4006d4:	4770      	bx	lr
  4006d6:	2000      	movs	r0, #0
  4006d8:	4770      	bx	lr
  4006da:	2000      	movs	r0, #0
  4006dc:	4770      	bx	lr
  4006de:	bf00      	nop
  4006e0:	400e0600 	.word	0x400e0600

004006e4 <uart_write>:
  4006e4:	6943      	ldr	r3, [r0, #20]
  4006e6:	f013 0f02 	tst.w	r3, #2
  4006ea:	d002      	beq.n	4006f2 <uart_write+0xe>
  4006ec:	61c1      	str	r1, [r0, #28]
  4006ee:	2000      	movs	r0, #0
  4006f0:	4770      	bx	lr
  4006f2:	2001      	movs	r0, #1
  4006f4:	4770      	bx	lr
  4006f6:	bf00      	nop

004006f8 <uart_read>:
  4006f8:	6943      	ldr	r3, [r0, #20]
  4006fa:	f013 0f01 	tst.w	r3, #1
  4006fe:	d003      	beq.n	400708 <uart_read+0x10>
  400700:	6983      	ldr	r3, [r0, #24]
  400702:	700b      	strb	r3, [r1, #0]
  400704:	2000      	movs	r0, #0
  400706:	4770      	bx	lr
  400708:	2001      	movs	r0, #1
  40070a:	4770      	bx	lr

0040070c <usart_set_async_baudrate>:
  40070c:	b410      	push	{r4}
  40070e:	010c      	lsls	r4, r1, #4
  400710:	4294      	cmp	r4, r2
  400712:	d90f      	bls.n	400734 <usart_set_async_baudrate+0x28>
  400714:	e01a      	b.n	40074c <usart_set_async_baudrate+0x40>
  400716:	6841      	ldr	r1, [r0, #4]
  400718:	f441 2100 	orr.w	r1, r1, #524288	; 0x80000
  40071c:	6041      	str	r1, [r0, #4]
  40071e:	0412      	lsls	r2, r2, #16
  400720:	f402 22e0 	and.w	r2, r2, #458752	; 0x70000
  400724:	431a      	orrs	r2, r3
  400726:	6202      	str	r2, [r0, #32]
  400728:	2000      	movs	r0, #0
  40072a:	e01c      	b.n	400766 <usart_set_async_baudrate+0x5a>
  40072c:	2001      	movs	r0, #1
  40072e:	e01a      	b.n	400766 <usart_set_async_baudrate+0x5a>
  400730:	2001      	movs	r0, #1
  400732:	e018      	b.n	400766 <usart_set_async_baudrate+0x5a>
  400734:	0863      	lsrs	r3, r4, #1
  400736:	eb03 02c2 	add.w	r2, r3, r2, lsl #3
  40073a:	fbb2 f2f4 	udiv	r2, r2, r4
  40073e:	08d3      	lsrs	r3, r2, #3
  400740:	1e5c      	subs	r4, r3, #1
  400742:	f64f 71fe 	movw	r1, #65534	; 0xfffe
  400746:	428c      	cmp	r4, r1
  400748:	d9e9      	bls.n	40071e <usart_set_async_baudrate+0x12>
  40074a:	e7ef      	b.n	40072c <usart_set_async_baudrate+0x20>
  40074c:	00c9      	lsls	r1, r1, #3
  40074e:	084b      	lsrs	r3, r1, #1
  400750:	eb03 02c2 	add.w	r2, r3, r2, lsl #3
  400754:	fbb2 f2f1 	udiv	r2, r2, r1
  400758:	08d3      	lsrs	r3, r2, #3
  40075a:	1e5c      	subs	r4, r3, #1
  40075c:	f64f 71fe 	movw	r1, #65534	; 0xfffe
  400760:	428c      	cmp	r4, r1
  400762:	d8e5      	bhi.n	400730 <usart_set_async_baudrate+0x24>
  400764:	e7d7      	b.n	400716 <usart_set_async_baudrate+0xa>
  400766:	f85d 4b04 	ldr.w	r4, [sp], #4
  40076a:	4770      	bx	lr

0040076c <usart_reset>:
  40076c:	4b08      	ldr	r3, [pc, #32]	; (400790 <usart_reset+0x24>)
  40076e:	f8c0 30e4 	str.w	r3, [r0, #228]	; 0xe4
  400772:	2300      	movs	r3, #0
  400774:	6043      	str	r3, [r0, #4]
  400776:	6243      	str	r3, [r0, #36]	; 0x24
  400778:	6283      	str	r3, [r0, #40]	; 0x28
  40077a:	2388      	movs	r3, #136	; 0x88
  40077c:	6003      	str	r3, [r0, #0]
  40077e:	2324      	movs	r3, #36	; 0x24
  400780:	6003      	str	r3, [r0, #0]
  400782:	f44f 7380 	mov.w	r3, #256	; 0x100
  400786:	6003      	str	r3, [r0, #0]
  400788:	f44f 2300 	mov.w	r3, #524288	; 0x80000
  40078c:	6003      	str	r3, [r0, #0]
  40078e:	4770      	bx	lr
  400790:	55534100 	.word	0x55534100

00400794 <usart_init_rs232>:
  400794:	b570      	push	{r4, r5, r6, lr}
  400796:	4605      	mov	r5, r0
  400798:	460c      	mov	r4, r1
  40079a:	4616      	mov	r6, r2
  40079c:	4b0f      	ldr	r3, [pc, #60]	; (4007dc <usart_init_rs232+0x48>)
  40079e:	4798      	blx	r3
  4007a0:	2200      	movs	r2, #0
  4007a2:	4b0f      	ldr	r3, [pc, #60]	; (4007e0 <usart_init_rs232+0x4c>)
  4007a4:	601a      	str	r2, [r3, #0]
  4007a6:	b19c      	cbz	r4, 4007d0 <usart_init_rs232+0x3c>
  4007a8:	4632      	mov	r2, r6
  4007aa:	6821      	ldr	r1, [r4, #0]
  4007ac:	4628      	mov	r0, r5
  4007ae:	4b0d      	ldr	r3, [pc, #52]	; (4007e4 <usart_init_rs232+0x50>)
  4007b0:	4798      	blx	r3
  4007b2:	4602      	mov	r2, r0
  4007b4:	b970      	cbnz	r0, 4007d4 <usart_init_rs232+0x40>
  4007b6:	6861      	ldr	r1, [r4, #4]
  4007b8:	68a3      	ldr	r3, [r4, #8]
  4007ba:	4319      	orrs	r1, r3
  4007bc:	6923      	ldr	r3, [r4, #16]
  4007be:	4319      	orrs	r1, r3
  4007c0:	68e3      	ldr	r3, [r4, #12]
  4007c2:	430b      	orrs	r3, r1
  4007c4:	4906      	ldr	r1, [pc, #24]	; (4007e0 <usart_init_rs232+0x4c>)
  4007c6:	600b      	str	r3, [r1, #0]
  4007c8:	6869      	ldr	r1, [r5, #4]
  4007ca:	430b      	orrs	r3, r1
  4007cc:	606b      	str	r3, [r5, #4]
  4007ce:	e002      	b.n	4007d6 <usart_init_rs232+0x42>
  4007d0:	2201      	movs	r2, #1
  4007d2:	e000      	b.n	4007d6 <usart_init_rs232+0x42>
  4007d4:	2201      	movs	r2, #1
  4007d6:	4610      	mov	r0, r2
  4007d8:	bd70      	pop	{r4, r5, r6, pc}
  4007da:	bf00      	nop
  4007dc:	0040076d 	.word	0x0040076d
  4007e0:	20400938 	.word	0x20400938
  4007e4:	0040070d 	.word	0x0040070d

004007e8 <usart_enable_tx>:
  4007e8:	2340      	movs	r3, #64	; 0x40
  4007ea:	6003      	str	r3, [r0, #0]
  4007ec:	4770      	bx	lr
  4007ee:	bf00      	nop

004007f0 <usart_enable_rx>:
  4007f0:	2310      	movs	r3, #16
  4007f2:	6003      	str	r3, [r0, #0]
  4007f4:	4770      	bx	lr
  4007f6:	bf00      	nop

004007f8 <usart_write>:
  4007f8:	6943      	ldr	r3, [r0, #20]
  4007fa:	f013 0f02 	tst.w	r3, #2
  4007fe:	d004      	beq.n	40080a <usart_write+0x12>
  400800:	f3c1 0108 	ubfx	r1, r1, #0, #9
  400804:	61c1      	str	r1, [r0, #28]
  400806:	2000      	movs	r0, #0
  400808:	4770      	bx	lr
  40080a:	2001      	movs	r0, #1
  40080c:	4770      	bx	lr
  40080e:	bf00      	nop

00400810 <usart_read>:
  400810:	6943      	ldr	r3, [r0, #20]
  400812:	f013 0f01 	tst.w	r3, #1
  400816:	d005      	beq.n	400824 <usart_read+0x14>
  400818:	6983      	ldr	r3, [r0, #24]
  40081a:	f3c3 0308 	ubfx	r3, r3, #0, #9
  40081e:	600b      	str	r3, [r1, #0]
  400820:	2000      	movs	r0, #0
  400822:	4770      	bx	lr
  400824:	2001      	movs	r0, #1
  400826:	4770      	bx	lr

00400828 <Dummy_Handler>:
  400828:	e7fe      	b.n	400828 <Dummy_Handler>
  40082a:	bf00      	nop

0040082c <Reset_Handler>:
  40082c:	b500      	push	{lr}
  40082e:	b083      	sub	sp, #12
  400830:	4b27      	ldr	r3, [pc, #156]	; (4008d0 <Reset_Handler+0xa4>)
  400832:	4a28      	ldr	r2, [pc, #160]	; (4008d4 <Reset_Handler+0xa8>)
  400834:	429a      	cmp	r2, r3
  400836:	d003      	beq.n	400840 <Reset_Handler+0x14>
  400838:	4b27      	ldr	r3, [pc, #156]	; (4008d8 <Reset_Handler+0xac>)
  40083a:	4a25      	ldr	r2, [pc, #148]	; (4008d0 <Reset_Handler+0xa4>)
  40083c:	429a      	cmp	r2, r3
  40083e:	d304      	bcc.n	40084a <Reset_Handler+0x1e>
  400840:	4b26      	ldr	r3, [pc, #152]	; (4008dc <Reset_Handler+0xb0>)
  400842:	4a27      	ldr	r2, [pc, #156]	; (4008e0 <Reset_Handler+0xb4>)
  400844:	429a      	cmp	r2, r3
  400846:	d30f      	bcc.n	400868 <Reset_Handler+0x3c>
  400848:	e01a      	b.n	400880 <Reset_Handler+0x54>
  40084a:	4921      	ldr	r1, [pc, #132]	; (4008d0 <Reset_Handler+0xa4>)
  40084c:	4b25      	ldr	r3, [pc, #148]	; (4008e4 <Reset_Handler+0xb8>)
  40084e:	1a5b      	subs	r3, r3, r1
  400850:	f023 0303 	bic.w	r3, r3, #3
  400854:	3304      	adds	r3, #4
  400856:	4a1f      	ldr	r2, [pc, #124]	; (4008d4 <Reset_Handler+0xa8>)
  400858:	4413      	add	r3, r2
  40085a:	f852 0b04 	ldr.w	r0, [r2], #4
  40085e:	f841 0b04 	str.w	r0, [r1], #4
  400862:	429a      	cmp	r2, r3
  400864:	d1f9      	bne.n	40085a <Reset_Handler+0x2e>
  400866:	e7eb      	b.n	400840 <Reset_Handler+0x14>
  400868:	4b1f      	ldr	r3, [pc, #124]	; (4008e8 <Reset_Handler+0xbc>)
  40086a:	4a20      	ldr	r2, [pc, #128]	; (4008ec <Reset_Handler+0xc0>)
  40086c:	1ad2      	subs	r2, r2, r3
  40086e:	f022 0203 	bic.w	r2, r2, #3
  400872:	441a      	add	r2, r3
  400874:	3b04      	subs	r3, #4
  400876:	2100      	movs	r1, #0
  400878:	f843 1b04 	str.w	r1, [r3], #4
  40087c:	4293      	cmp	r3, r2
  40087e:	d1fb      	bne.n	400878 <Reset_Handler+0x4c>
  400880:	4a1b      	ldr	r2, [pc, #108]	; (4008f0 <Reset_Handler+0xc4>)
  400882:	4b1c      	ldr	r3, [pc, #112]	; (4008f4 <Reset_Handler+0xc8>)
  400884:	f023 037f 	bic.w	r3, r3, #127	; 0x7f
  400888:	6093      	str	r3, [r2, #8]
  40088a:	f3ef 8310 	mrs	r3, PRIMASK
  40088e:	fab3 f383 	clz	r3, r3
  400892:	095b      	lsrs	r3, r3, #5
  400894:	9301      	str	r3, [sp, #4]
  400896:	b672      	cpsid	i
  400898:	f3bf 8f5f 	dmb	sy
  40089c:	2200      	movs	r2, #0
  40089e:	4b16      	ldr	r3, [pc, #88]	; (4008f8 <Reset_Handler+0xcc>)
  4008a0:	701a      	strb	r2, [r3, #0]
  4008a2:	9901      	ldr	r1, [sp, #4]
  4008a4:	4a15      	ldr	r2, [pc, #84]	; (4008fc <Reset_Handler+0xd0>)
  4008a6:	6813      	ldr	r3, [r2, #0]
  4008a8:	f443 0370 	orr.w	r3, r3, #15728640	; 0xf00000
  4008ac:	6013      	str	r3, [r2, #0]
  4008ae:	f3bf 8f4f 	dsb	sy
  4008b2:	f3bf 8f6f 	isb	sy
  4008b6:	b129      	cbz	r1, 4008c4 <Reset_Handler+0x98>
  4008b8:	2201      	movs	r2, #1
  4008ba:	4b0f      	ldr	r3, [pc, #60]	; (4008f8 <Reset_Handler+0xcc>)
  4008bc:	701a      	strb	r2, [r3, #0]
  4008be:	f3bf 8f5f 	dmb	sy
  4008c2:	b662      	cpsie	i
  4008c4:	4b0e      	ldr	r3, [pc, #56]	; (400900 <Reset_Handler+0xd4>)
  4008c6:	4798      	blx	r3
  4008c8:	4b0e      	ldr	r3, [pc, #56]	; (400904 <Reset_Handler+0xd8>)
  4008ca:	4798      	blx	r3
  4008cc:	e7fe      	b.n	4008cc <Reset_Handler+0xa0>
  4008ce:	bf00      	nop
  4008d0:	20400000 	.word	0x20400000
  4008d4:	00409be8 	.word	0x00409be8
  4008d8:	204008ac 	.word	0x204008ac
  4008dc:	20400c18 	.word	0x20400c18
  4008e0:	204008ac 	.word	0x204008ac
  4008e4:	204008ab 	.word	0x204008ab
  4008e8:	204008b0 	.word	0x204008b0
  4008ec:	20400c1b 	.word	0x20400c1b
  4008f0:	e000ed00 	.word	0xe000ed00
  4008f4:	00400000 	.word	0x00400000
  4008f8:	20400000 	.word	0x20400000
  4008fc:	e000ed88 	.word	0xe000ed88
  400900:	00403021 	.word	0x00403021
  400904:	00402d01 	.word	0x00402d01

00400908 <SystemCoreClockUpdate>:
  400908:	4b3c      	ldr	r3, [pc, #240]	; (4009fc <SystemCoreClockUpdate+0xf4>)
  40090a:	6b1b      	ldr	r3, [r3, #48]	; 0x30
  40090c:	f003 0303 	and.w	r3, r3, #3
  400910:	2b01      	cmp	r3, #1
  400912:	d00f      	beq.n	400934 <SystemCoreClockUpdate+0x2c>
  400914:	b113      	cbz	r3, 40091c <SystemCoreClockUpdate+0x14>
  400916:	2b02      	cmp	r3, #2
  400918:	d029      	beq.n	40096e <SystemCoreClockUpdate+0x66>
  40091a:	e057      	b.n	4009cc <SystemCoreClockUpdate+0xc4>
  40091c:	4b38      	ldr	r3, [pc, #224]	; (400a00 <SystemCoreClockUpdate+0xf8>)
  40091e:	695b      	ldr	r3, [r3, #20]
  400920:	f013 0f80 	tst.w	r3, #128	; 0x80
  400924:	bf14      	ite	ne
  400926:	f44f 4200 	movne.w	r2, #32768	; 0x8000
  40092a:	f44f 42fa 	moveq.w	r2, #32000	; 0x7d00
  40092e:	4b35      	ldr	r3, [pc, #212]	; (400a04 <SystemCoreClockUpdate+0xfc>)
  400930:	601a      	str	r2, [r3, #0]
  400932:	e04b      	b.n	4009cc <SystemCoreClockUpdate+0xc4>
  400934:	4b31      	ldr	r3, [pc, #196]	; (4009fc <SystemCoreClockUpdate+0xf4>)
  400936:	6a1b      	ldr	r3, [r3, #32]
  400938:	f013 7f80 	tst.w	r3, #16777216	; 0x1000000
  40093c:	d003      	beq.n	400946 <SystemCoreClockUpdate+0x3e>
  40093e:	4a32      	ldr	r2, [pc, #200]	; (400a08 <SystemCoreClockUpdate+0x100>)
  400940:	4b30      	ldr	r3, [pc, #192]	; (400a04 <SystemCoreClockUpdate+0xfc>)
  400942:	601a      	str	r2, [r3, #0]
  400944:	e042      	b.n	4009cc <SystemCoreClockUpdate+0xc4>
  400946:	4a31      	ldr	r2, [pc, #196]	; (400a0c <SystemCoreClockUpdate+0x104>)
  400948:	4b2e      	ldr	r3, [pc, #184]	; (400a04 <SystemCoreClockUpdate+0xfc>)
  40094a:	601a      	str	r2, [r3, #0]
  40094c:	4b2b      	ldr	r3, [pc, #172]	; (4009fc <SystemCoreClockUpdate+0xf4>)
  40094e:	6a1b      	ldr	r3, [r3, #32]
  400950:	f003 0370 	and.w	r3, r3, #112	; 0x70
  400954:	2b10      	cmp	r3, #16
  400956:	d002      	beq.n	40095e <SystemCoreClockUpdate+0x56>
  400958:	2b20      	cmp	r3, #32
  40095a:	d004      	beq.n	400966 <SystemCoreClockUpdate+0x5e>
  40095c:	e036      	b.n	4009cc <SystemCoreClockUpdate+0xc4>
  40095e:	4a2c      	ldr	r2, [pc, #176]	; (400a10 <SystemCoreClockUpdate+0x108>)
  400960:	4b28      	ldr	r3, [pc, #160]	; (400a04 <SystemCoreClockUpdate+0xfc>)
  400962:	601a      	str	r2, [r3, #0]
  400964:	e032      	b.n	4009cc <SystemCoreClockUpdate+0xc4>
  400966:	4a28      	ldr	r2, [pc, #160]	; (400a08 <SystemCoreClockUpdate+0x100>)
  400968:	4b26      	ldr	r3, [pc, #152]	; (400a04 <SystemCoreClockUpdate+0xfc>)
  40096a:	601a      	str	r2, [r3, #0]
  40096c:	e02e      	b.n	4009cc <SystemCoreClockUpdate+0xc4>
  40096e:	4b23      	ldr	r3, [pc, #140]	; (4009fc <SystemCoreClockUpdate+0xf4>)
  400970:	6a1b      	ldr	r3, [r3, #32]
  400972:	f013 7f80 	tst.w	r3, #16777216	; 0x1000000
  400976:	d003      	beq.n	400980 <SystemCoreClockUpdate+0x78>
  400978:	4a23      	ldr	r2, [pc, #140]	; (400a08 <SystemCoreClockUpdate+0x100>)
  40097a:	4b22      	ldr	r3, [pc, #136]	; (400a04 <SystemCoreClockUpdate+0xfc>)
  40097c:	601a      	str	r2, [r3, #0]
  40097e:	e012      	b.n	4009a6 <SystemCoreClockUpdate+0x9e>
  400980:	4a22      	ldr	r2, [pc, #136]	; (400a0c <SystemCoreClockUpdate+0x104>)
  400982:	4b20      	ldr	r3, [pc, #128]	; (400a04 <SystemCoreClockUpdate+0xfc>)
  400984:	601a      	str	r2, [r3, #0]
  400986:	4b1d      	ldr	r3, [pc, #116]	; (4009fc <SystemCoreClockUpdate+0xf4>)
  400988:	6a1b      	ldr	r3, [r3, #32]
  40098a:	f003 0370 	and.w	r3, r3, #112	; 0x70
  40098e:	2b10      	cmp	r3, #16
  400990:	d002      	beq.n	400998 <SystemCoreClockUpdate+0x90>
  400992:	2b20      	cmp	r3, #32
  400994:	d004      	beq.n	4009a0 <SystemCoreClockUpdate+0x98>
  400996:	e006      	b.n	4009a6 <SystemCoreClockUpdate+0x9e>
  400998:	4a1d      	ldr	r2, [pc, #116]	; (400a10 <SystemCoreClockUpdate+0x108>)
  40099a:	4b1a      	ldr	r3, [pc, #104]	; (400a04 <SystemCoreClockUpdate+0xfc>)
  40099c:	601a      	str	r2, [r3, #0]
  40099e:	e002      	b.n	4009a6 <SystemCoreClockUpdate+0x9e>
  4009a0:	4a19      	ldr	r2, [pc, #100]	; (400a08 <SystemCoreClockUpdate+0x100>)
  4009a2:	4b18      	ldr	r3, [pc, #96]	; (400a04 <SystemCoreClockUpdate+0xfc>)
  4009a4:	601a      	str	r2, [r3, #0]
  4009a6:	4b15      	ldr	r3, [pc, #84]	; (4009fc <SystemCoreClockUpdate+0xf4>)
  4009a8:	6b1b      	ldr	r3, [r3, #48]	; 0x30
  4009aa:	f003 0303 	and.w	r3, r3, #3
  4009ae:	2b02      	cmp	r3, #2
  4009b0:	d10c      	bne.n	4009cc <SystemCoreClockUpdate+0xc4>
  4009b2:	4a12      	ldr	r2, [pc, #72]	; (4009fc <SystemCoreClockUpdate+0xf4>)
  4009b4:	6a93      	ldr	r3, [r2, #40]	; 0x28
  4009b6:	6a92      	ldr	r2, [r2, #40]	; 0x28
  4009b8:	4812      	ldr	r0, [pc, #72]	; (400a04 <SystemCoreClockUpdate+0xfc>)
  4009ba:	f3c3 410a 	ubfx	r1, r3, #16, #11
  4009be:	6803      	ldr	r3, [r0, #0]
  4009c0:	fb01 3303 	mla	r3, r1, r3, r3
  4009c4:	b2d2      	uxtb	r2, r2
  4009c6:	fbb3 f3f2 	udiv	r3, r3, r2
  4009ca:	6003      	str	r3, [r0, #0]
  4009cc:	4b0b      	ldr	r3, [pc, #44]	; (4009fc <SystemCoreClockUpdate+0xf4>)
  4009ce:	6b1b      	ldr	r3, [r3, #48]	; 0x30
  4009d0:	f003 0370 	and.w	r3, r3, #112	; 0x70
  4009d4:	2b70      	cmp	r3, #112	; 0x70
  4009d6:	d107      	bne.n	4009e8 <SystemCoreClockUpdate+0xe0>
  4009d8:	4a0a      	ldr	r2, [pc, #40]	; (400a04 <SystemCoreClockUpdate+0xfc>)
  4009da:	6813      	ldr	r3, [r2, #0]
  4009dc:	490d      	ldr	r1, [pc, #52]	; (400a14 <SystemCoreClockUpdate+0x10c>)
  4009de:	fba1 1303 	umull	r1, r3, r1, r3
  4009e2:	085b      	lsrs	r3, r3, #1
  4009e4:	6013      	str	r3, [r2, #0]
  4009e6:	4770      	bx	lr
  4009e8:	4b04      	ldr	r3, [pc, #16]	; (4009fc <SystemCoreClockUpdate+0xf4>)
  4009ea:	6b1b      	ldr	r3, [r3, #48]	; 0x30
  4009ec:	4905      	ldr	r1, [pc, #20]	; (400a04 <SystemCoreClockUpdate+0xfc>)
  4009ee:	f3c3 1202 	ubfx	r2, r3, #4, #3
  4009f2:	680b      	ldr	r3, [r1, #0]
  4009f4:	40d3      	lsrs	r3, r2
  4009f6:	600b      	str	r3, [r1, #0]
  4009f8:	4770      	bx	lr
  4009fa:	bf00      	nop
  4009fc:	400e0600 	.word	0x400e0600
  400a00:	400e1810 	.word	0x400e1810
  400a04:	20400004 	.word	0x20400004
  400a08:	00b71b00 	.word	0x00b71b00
  400a0c:	003d0900 	.word	0x003d0900
  400a10:	007a1200 	.word	0x007a1200
  400a14:	aaaaaaab 	.word	0xaaaaaaab

00400a18 <system_init_flash>:
  400a18:	4b12      	ldr	r3, [pc, #72]	; (400a64 <system_init_flash+0x4c>)
  400a1a:	4298      	cmp	r0, r3
  400a1c:	d804      	bhi.n	400a28 <system_init_flash+0x10>
  400a1e:	f04f 6280 	mov.w	r2, #67108864	; 0x4000000
  400a22:	4b11      	ldr	r3, [pc, #68]	; (400a68 <system_init_flash+0x50>)
  400a24:	601a      	str	r2, [r3, #0]
  400a26:	4770      	bx	lr
  400a28:	4b10      	ldr	r3, [pc, #64]	; (400a6c <system_init_flash+0x54>)
  400a2a:	4298      	cmp	r0, r3
  400a2c:	d803      	bhi.n	400a36 <system_init_flash+0x1e>
  400a2e:	4a10      	ldr	r2, [pc, #64]	; (400a70 <system_init_flash+0x58>)
  400a30:	4b0d      	ldr	r3, [pc, #52]	; (400a68 <system_init_flash+0x50>)
  400a32:	601a      	str	r2, [r3, #0]
  400a34:	4770      	bx	lr
  400a36:	4b0f      	ldr	r3, [pc, #60]	; (400a74 <system_init_flash+0x5c>)
  400a38:	4298      	cmp	r0, r3
  400a3a:	d803      	bhi.n	400a44 <system_init_flash+0x2c>
  400a3c:	4a0e      	ldr	r2, [pc, #56]	; (400a78 <system_init_flash+0x60>)
  400a3e:	4b0a      	ldr	r3, [pc, #40]	; (400a68 <system_init_flash+0x50>)
  400a40:	601a      	str	r2, [r3, #0]
  400a42:	4770      	bx	lr
  400a44:	4b0d      	ldr	r3, [pc, #52]	; (400a7c <system_init_flash+0x64>)
  400a46:	4298      	cmp	r0, r3
  400a48:	d803      	bhi.n	400a52 <system_init_flash+0x3a>
  400a4a:	4a0d      	ldr	r2, [pc, #52]	; (400a80 <system_init_flash+0x68>)
  400a4c:	4b06      	ldr	r3, [pc, #24]	; (400a68 <system_init_flash+0x50>)
  400a4e:	601a      	str	r2, [r3, #0]
  400a50:	4770      	bx	lr
  400a52:	4b0c      	ldr	r3, [pc, #48]	; (400a84 <system_init_flash+0x6c>)
  400a54:	4298      	cmp	r0, r3
  400a56:	bf94      	ite	ls
  400a58:	f04f 2204 	movls.w	r2, #67109888	; 0x4000400
  400a5c:	4a0a      	ldrhi	r2, [pc, #40]	; (400a88 <system_init_flash+0x70>)
  400a5e:	4b02      	ldr	r3, [pc, #8]	; (400a68 <system_init_flash+0x50>)
  400a60:	601a      	str	r2, [r3, #0]
  400a62:	4770      	bx	lr
  400a64:	01312cff 	.word	0x01312cff
  400a68:	400e0c00 	.word	0x400e0c00
  400a6c:	026259ff 	.word	0x026259ff
  400a70:	04000100 	.word	0x04000100
  400a74:	039386ff 	.word	0x039386ff
  400a78:	04000200 	.word	0x04000200
  400a7c:	04c4b3ff 	.word	0x04c4b3ff
  400a80:	04000300 	.word	0x04000300
  400a84:	05f5e0ff 	.word	0x05f5e0ff
  400a88:	04000500 	.word	0x04000500

00400a8c <_sbrk>:
  400a8c:	4b09      	ldr	r3, [pc, #36]	; (400ab4 <_sbrk+0x28>)
  400a8e:	681b      	ldr	r3, [r3, #0]
  400a90:	b913      	cbnz	r3, 400a98 <_sbrk+0xc>
  400a92:	4a09      	ldr	r2, [pc, #36]	; (400ab8 <_sbrk+0x2c>)
  400a94:	4b07      	ldr	r3, [pc, #28]	; (400ab4 <_sbrk+0x28>)
  400a96:	601a      	str	r2, [r3, #0]
  400a98:	4b06      	ldr	r3, [pc, #24]	; (400ab4 <_sbrk+0x28>)
  400a9a:	681b      	ldr	r3, [r3, #0]
  400a9c:	181a      	adds	r2, r3, r0
  400a9e:	4907      	ldr	r1, [pc, #28]	; (400abc <_sbrk+0x30>)
  400aa0:	4291      	cmp	r1, r2
  400aa2:	db04      	blt.n	400aae <_sbrk+0x22>
  400aa4:	4610      	mov	r0, r2
  400aa6:	4a03      	ldr	r2, [pc, #12]	; (400ab4 <_sbrk+0x28>)
  400aa8:	6010      	str	r0, [r2, #0]
  400aaa:	4618      	mov	r0, r3
  400aac:	4770      	bx	lr
  400aae:	f04f 30ff 	mov.w	r0, #4294967295
  400ab2:	4770      	bx	lr
  400ab4:	2040093c 	.word	0x2040093c
  400ab8:	20402e18 	.word	0x20402e18
  400abc:	2045fffc 	.word	0x2045fffc

00400ac0 <_close>:
  400ac0:	f04f 30ff 	mov.w	r0, #4294967295
  400ac4:	4770      	bx	lr
  400ac6:	bf00      	nop

00400ac8 <_fstat>:
  400ac8:	f44f 5300 	mov.w	r3, #8192	; 0x2000
  400acc:	604b      	str	r3, [r1, #4]
  400ace:	2000      	movs	r0, #0
  400ad0:	4770      	bx	lr
  400ad2:	bf00      	nop

00400ad4 <_isatty>:
  400ad4:	2001      	movs	r0, #1
  400ad6:	4770      	bx	lr

00400ad8 <_lseek>:
  400ad8:	2000      	movs	r0, #0
  400ada:	4770      	bx	lr

00400adc <vListInitialise>:
  400adc:	f100 0308 	add.w	r3, r0, #8
  400ae0:	6043      	str	r3, [r0, #4]
  400ae2:	f04f 32ff 	mov.w	r2, #4294967295
  400ae6:	6082      	str	r2, [r0, #8]
  400ae8:	60c3      	str	r3, [r0, #12]
  400aea:	6103      	str	r3, [r0, #16]
  400aec:	2300      	movs	r3, #0
  400aee:	6003      	str	r3, [r0, #0]
  400af0:	4770      	bx	lr
  400af2:	bf00      	nop

00400af4 <vListInitialiseItem>:
  400af4:	2300      	movs	r3, #0
  400af6:	6103      	str	r3, [r0, #16]
  400af8:	4770      	bx	lr
  400afa:	bf00      	nop

00400afc <vListInsertEnd>:
  400afc:	6843      	ldr	r3, [r0, #4]
  400afe:	604b      	str	r3, [r1, #4]
  400b00:	689a      	ldr	r2, [r3, #8]
  400b02:	608a      	str	r2, [r1, #8]
  400b04:	689a      	ldr	r2, [r3, #8]
  400b06:	6051      	str	r1, [r2, #4]
  400b08:	6099      	str	r1, [r3, #8]
  400b0a:	6108      	str	r0, [r1, #16]
  400b0c:	6803      	ldr	r3, [r0, #0]
  400b0e:	3301      	adds	r3, #1
  400b10:	6003      	str	r3, [r0, #0]
  400b12:	4770      	bx	lr

00400b14 <vListInsert>:
  400b14:	b430      	push	{r4, r5}
  400b16:	680d      	ldr	r5, [r1, #0]
  400b18:	f1b5 3fff 	cmp.w	r5, #4294967295
  400b1c:	d101      	bne.n	400b22 <vListInsert+0xe>
  400b1e:	6902      	ldr	r2, [r0, #16]
  400b20:	e007      	b.n	400b32 <vListInsert+0x1e>
  400b22:	f100 0208 	add.w	r2, r0, #8
  400b26:	e000      	b.n	400b2a <vListInsert+0x16>
  400b28:	461a      	mov	r2, r3
  400b2a:	6853      	ldr	r3, [r2, #4]
  400b2c:	681c      	ldr	r4, [r3, #0]
  400b2e:	42a5      	cmp	r5, r4
  400b30:	d2fa      	bcs.n	400b28 <vListInsert+0x14>
  400b32:	6853      	ldr	r3, [r2, #4]
  400b34:	604b      	str	r3, [r1, #4]
  400b36:	6099      	str	r1, [r3, #8]
  400b38:	608a      	str	r2, [r1, #8]
  400b3a:	6051      	str	r1, [r2, #4]
  400b3c:	6108      	str	r0, [r1, #16]
  400b3e:	6803      	ldr	r3, [r0, #0]
  400b40:	3301      	adds	r3, #1
  400b42:	6003      	str	r3, [r0, #0]
  400b44:	bc30      	pop	{r4, r5}
  400b46:	4770      	bx	lr

00400b48 <uxListRemove>:
  400b48:	6903      	ldr	r3, [r0, #16]
  400b4a:	6842      	ldr	r2, [r0, #4]
  400b4c:	6881      	ldr	r1, [r0, #8]
  400b4e:	6091      	str	r1, [r2, #8]
  400b50:	6882      	ldr	r2, [r0, #8]
  400b52:	6841      	ldr	r1, [r0, #4]
  400b54:	6051      	str	r1, [r2, #4]
  400b56:	685a      	ldr	r2, [r3, #4]
  400b58:	4290      	cmp	r0, r2
  400b5a:	d101      	bne.n	400b60 <uxListRemove+0x18>
  400b5c:	6882      	ldr	r2, [r0, #8]
  400b5e:	605a      	str	r2, [r3, #4]
  400b60:	2200      	movs	r2, #0
  400b62:	6102      	str	r2, [r0, #16]
  400b64:	6818      	ldr	r0, [r3, #0]
  400b66:	3801      	subs	r0, #1
  400b68:	6018      	str	r0, [r3, #0]
  400b6a:	4770      	bx	lr

00400b6c <prvTaskExitError>:
  400b6c:	4b0d      	ldr	r3, [pc, #52]	; (400ba4 <prvTaskExitError+0x38>)
  400b6e:	681b      	ldr	r3, [r3, #0]
  400b70:	f1b3 3fff 	cmp.w	r3, #4294967295
  400b74:	d00a      	beq.n	400b8c <prvTaskExitError+0x20>
  400b76:	f04f 0380 	mov.w	r3, #128	; 0x80
  400b7a:	b672      	cpsid	i
  400b7c:	f383 8811 	msr	BASEPRI, r3
  400b80:	f3bf 8f6f 	isb	sy
  400b84:	f3bf 8f4f 	dsb	sy
  400b88:	b662      	cpsie	i
  400b8a:	e7fe      	b.n	400b8a <prvTaskExitError+0x1e>
  400b8c:	f04f 0380 	mov.w	r3, #128	; 0x80
  400b90:	b672      	cpsid	i
  400b92:	f383 8811 	msr	BASEPRI, r3
  400b96:	f3bf 8f6f 	isb	sy
  400b9a:	f3bf 8f4f 	dsb	sy
  400b9e:	b662      	cpsie	i
  400ba0:	e7fe      	b.n	400ba0 <prvTaskExitError+0x34>
  400ba2:	bf00      	nop
  400ba4:	20400008 	.word	0x20400008

00400ba8 <prvPortStartFirstTask>:
  400ba8:	4806      	ldr	r0, [pc, #24]	; (400bc4 <prvPortStartFirstTask+0x1c>)
  400baa:	6800      	ldr	r0, [r0, #0]
  400bac:	6800      	ldr	r0, [r0, #0]
  400bae:	f380 8808 	msr	MSP, r0
  400bb2:	b662      	cpsie	i
  400bb4:	b661      	cpsie	f
  400bb6:	f3bf 8f4f 	dsb	sy
  400bba:	f3bf 8f6f 	isb	sy
  400bbe:	df00      	svc	0
  400bc0:	bf00      	nop
  400bc2:	0000      	.short	0x0000
  400bc4:	e000ed08 	.word	0xe000ed08

00400bc8 <vPortEnableVFP>:
  400bc8:	f8df 000c 	ldr.w	r0, [pc, #12]	; 400bd8 <vPortEnableVFP+0x10>
  400bcc:	6801      	ldr	r1, [r0, #0]
  400bce:	f441 0170 	orr.w	r1, r1, #15728640	; 0xf00000
  400bd2:	6001      	str	r1, [r0, #0]
  400bd4:	4770      	bx	lr
  400bd6:	0000      	.short	0x0000
  400bd8:	e000ed88 	.word	0xe000ed88

00400bdc <pxPortInitialiseStack>:
  400bdc:	f04f 7380 	mov.w	r3, #16777216	; 0x1000000
  400be0:	f840 3c04 	str.w	r3, [r0, #-4]
  400be4:	f840 1c08 	str.w	r1, [r0, #-8]
  400be8:	4b05      	ldr	r3, [pc, #20]	; (400c00 <pxPortInitialiseStack+0x24>)
  400bea:	f840 3c0c 	str.w	r3, [r0, #-12]
  400bee:	f840 2c20 	str.w	r2, [r0, #-32]
  400bf2:	f06f 0302 	mvn.w	r3, #2
  400bf6:	f840 3c24 	str.w	r3, [r0, #-36]
  400bfa:	3844      	subs	r0, #68	; 0x44
  400bfc:	4770      	bx	lr
  400bfe:	bf00      	nop
  400c00:	00400b6d 	.word	0x00400b6d

00400c04 <SVC_Handler>:
  400c04:	4b06      	ldr	r3, [pc, #24]	; (400c20 <pxCurrentTCBConst2>)
  400c06:	6819      	ldr	r1, [r3, #0]
  400c08:	6808      	ldr	r0, [r1, #0]
  400c0a:	e8b0 4ff0 	ldmia.w	r0!, {r4, r5, r6, r7, r8, r9, sl, fp, lr}
  400c0e:	f380 8809 	msr	PSP, r0
  400c12:	f3bf 8f6f 	isb	sy
  400c16:	f04f 0000 	mov.w	r0, #0
  400c1a:	f380 8811 	msr	BASEPRI, r0
  400c1e:	4770      	bx	lr

00400c20 <pxCurrentTCBConst2>:
  400c20:	204009ec 	.word	0x204009ec
  400c24:	4770      	bx	lr
  400c26:	bf00      	nop

00400c28 <vPortEnterCritical>:
  400c28:	f04f 0380 	mov.w	r3, #128	; 0x80
  400c2c:	b672      	cpsid	i
  400c2e:	f383 8811 	msr	BASEPRI, r3
  400c32:	f3bf 8f6f 	isb	sy
  400c36:	f3bf 8f4f 	dsb	sy
  400c3a:	b662      	cpsie	i
  400c3c:	4a0b      	ldr	r2, [pc, #44]	; (400c6c <vPortEnterCritical+0x44>)
  400c3e:	6813      	ldr	r3, [r2, #0]
  400c40:	3301      	adds	r3, #1
  400c42:	6013      	str	r3, [r2, #0]
  400c44:	2b01      	cmp	r3, #1
  400c46:	d10f      	bne.n	400c68 <vPortEnterCritical+0x40>
  400c48:	4b09      	ldr	r3, [pc, #36]	; (400c70 <vPortEnterCritical+0x48>)
  400c4a:	681b      	ldr	r3, [r3, #0]
  400c4c:	f013 0fff 	tst.w	r3, #255	; 0xff
  400c50:	d00a      	beq.n	400c68 <vPortEnterCritical+0x40>
  400c52:	f04f 0380 	mov.w	r3, #128	; 0x80
  400c56:	b672      	cpsid	i
  400c58:	f383 8811 	msr	BASEPRI, r3
  400c5c:	f3bf 8f6f 	isb	sy
  400c60:	f3bf 8f4f 	dsb	sy
  400c64:	b662      	cpsie	i
  400c66:	e7fe      	b.n	400c66 <vPortEnterCritical+0x3e>
  400c68:	4770      	bx	lr
  400c6a:	bf00      	nop
  400c6c:	20400008 	.word	0x20400008
  400c70:	e000ed04 	.word	0xe000ed04

00400c74 <vPortExitCritical>:
  400c74:	4b0a      	ldr	r3, [pc, #40]	; (400ca0 <vPortExitCritical+0x2c>)
  400c76:	681b      	ldr	r3, [r3, #0]
  400c78:	b953      	cbnz	r3, 400c90 <vPortExitCritical+0x1c>
  400c7a:	f04f 0380 	mov.w	r3, #128	; 0x80
  400c7e:	b672      	cpsid	i
  400c80:	f383 8811 	msr	BASEPRI, r3
  400c84:	f3bf 8f6f 	isb	sy
  400c88:	f3bf 8f4f 	dsb	sy
  400c8c:	b662      	cpsie	i
  400c8e:	e7fe      	b.n	400c8e <vPortExitCritical+0x1a>
  400c90:	3b01      	subs	r3, #1
  400c92:	4a03      	ldr	r2, [pc, #12]	; (400ca0 <vPortExitCritical+0x2c>)
  400c94:	6013      	str	r3, [r2, #0]
  400c96:	b90b      	cbnz	r3, 400c9c <vPortExitCritical+0x28>
  400c98:	f383 8811 	msr	BASEPRI, r3
  400c9c:	4770      	bx	lr
  400c9e:	bf00      	nop
  400ca0:	20400008 	.word	0x20400008

00400ca4 <PendSV_Handler>:
  400ca4:	f3ef 8009 	mrs	r0, PSP
  400ca8:	f3bf 8f6f 	isb	sy
  400cac:	4b15      	ldr	r3, [pc, #84]	; (400d04 <pxCurrentTCBConst>)
  400cae:	681a      	ldr	r2, [r3, #0]
  400cb0:	f01e 0f10 	tst.w	lr, #16
  400cb4:	bf08      	it	eq
  400cb6:	ed20 8a10 	vstmdbeq	r0!, {s16-s31}
  400cba:	e920 4ff0 	stmdb	r0!, {r4, r5, r6, r7, r8, r9, sl, fp, lr}
  400cbe:	6010      	str	r0, [r2, #0]
  400cc0:	f84d 3d04 	str.w	r3, [sp, #-4]!
  400cc4:	f04f 0080 	mov.w	r0, #128	; 0x80
  400cc8:	b672      	cpsid	i
  400cca:	f380 8811 	msr	BASEPRI, r0
  400cce:	f3bf 8f4f 	dsb	sy
  400cd2:	f3bf 8f6f 	isb	sy
  400cd6:	b662      	cpsie	i
  400cd8:	f001 f94e 	bl	401f78 <vTaskSwitchContext>
  400cdc:	f04f 0000 	mov.w	r0, #0
  400ce0:	f380 8811 	msr	BASEPRI, r0
  400ce4:	bc08      	pop	{r3}
  400ce6:	6819      	ldr	r1, [r3, #0]
  400ce8:	6808      	ldr	r0, [r1, #0]
  400cea:	e8b0 4ff0 	ldmia.w	r0!, {r4, r5, r6, r7, r8, r9, sl, fp, lr}
  400cee:	f01e 0f10 	tst.w	lr, #16
  400cf2:	bf08      	it	eq
  400cf4:	ecb0 8a10 	vldmiaeq	r0!, {s16-s31}
  400cf8:	f380 8809 	msr	PSP, r0
  400cfc:	f3bf 8f6f 	isb	sy
  400d00:	4770      	bx	lr
  400d02:	bf00      	nop

00400d04 <pxCurrentTCBConst>:
  400d04:	204009ec 	.word	0x204009ec
  400d08:	4770      	bx	lr
  400d0a:	bf00      	nop

00400d0c <SysTick_Handler>:
  400d0c:	b508      	push	{r3, lr}
  400d0e:	f3ef 8311 	mrs	r3, BASEPRI
  400d12:	f04f 0280 	mov.w	r2, #128	; 0x80
  400d16:	b672      	cpsid	i
  400d18:	f382 8811 	msr	BASEPRI, r2
  400d1c:	f3bf 8f6f 	isb	sy
  400d20:	f3bf 8f4f 	dsb	sy
  400d24:	b662      	cpsie	i
  400d26:	4b05      	ldr	r3, [pc, #20]	; (400d3c <SysTick_Handler+0x30>)
  400d28:	4798      	blx	r3
  400d2a:	b118      	cbz	r0, 400d34 <SysTick_Handler+0x28>
  400d2c:	f04f 5280 	mov.w	r2, #268435456	; 0x10000000
  400d30:	4b03      	ldr	r3, [pc, #12]	; (400d40 <SysTick_Handler+0x34>)
  400d32:	601a      	str	r2, [r3, #0]
  400d34:	2300      	movs	r3, #0
  400d36:	f383 8811 	msr	BASEPRI, r3
  400d3a:	bd08      	pop	{r3, pc}
  400d3c:	00401b4d 	.word	0x00401b4d
  400d40:	e000ed04 	.word	0xe000ed04

00400d44 <vPortSetupTimerInterrupt>:
  400d44:	4a03      	ldr	r2, [pc, #12]	; (400d54 <vPortSetupTimerInterrupt+0x10>)
  400d46:	4b04      	ldr	r3, [pc, #16]	; (400d58 <vPortSetupTimerInterrupt+0x14>)
  400d48:	601a      	str	r2, [r3, #0]
  400d4a:	2207      	movs	r2, #7
  400d4c:	3b04      	subs	r3, #4
  400d4e:	601a      	str	r2, [r3, #0]
  400d50:	4770      	bx	lr
  400d52:	bf00      	nop
  400d54:	000927bf 	.word	0x000927bf
  400d58:	e000e014 	.word	0xe000e014

00400d5c <xPortStartScheduler>:
  400d5c:	b500      	push	{lr}
  400d5e:	b083      	sub	sp, #12
  400d60:	4b25      	ldr	r3, [pc, #148]	; (400df8 <xPortStartScheduler+0x9c>)
  400d62:	781a      	ldrb	r2, [r3, #0]
  400d64:	b2d2      	uxtb	r2, r2
  400d66:	9201      	str	r2, [sp, #4]
  400d68:	22ff      	movs	r2, #255	; 0xff
  400d6a:	701a      	strb	r2, [r3, #0]
  400d6c:	781b      	ldrb	r3, [r3, #0]
  400d6e:	b2db      	uxtb	r3, r3
  400d70:	f88d 3003 	strb.w	r3, [sp, #3]
  400d74:	f89d 3003 	ldrb.w	r3, [sp, #3]
  400d78:	f003 0380 	and.w	r3, r3, #128	; 0x80
  400d7c:	4a1f      	ldr	r2, [pc, #124]	; (400dfc <xPortStartScheduler+0xa0>)
  400d7e:	7013      	strb	r3, [r2, #0]
  400d80:	2207      	movs	r2, #7
  400d82:	4b1f      	ldr	r3, [pc, #124]	; (400e00 <xPortStartScheduler+0xa4>)
  400d84:	601a      	str	r2, [r3, #0]
  400d86:	f89d 3003 	ldrb.w	r3, [sp, #3]
  400d8a:	f013 0f80 	tst.w	r3, #128	; 0x80
  400d8e:	d010      	beq.n	400db2 <xPortStartScheduler+0x56>
  400d90:	2206      	movs	r2, #6
  400d92:	e000      	b.n	400d96 <xPortStartScheduler+0x3a>
  400d94:	460a      	mov	r2, r1
  400d96:	f89d 3003 	ldrb.w	r3, [sp, #3]
  400d9a:	005b      	lsls	r3, r3, #1
  400d9c:	b2db      	uxtb	r3, r3
  400d9e:	f88d 3003 	strb.w	r3, [sp, #3]
  400da2:	f89d 3003 	ldrb.w	r3, [sp, #3]
  400da6:	1e51      	subs	r1, r2, #1
  400da8:	f013 0f80 	tst.w	r3, #128	; 0x80
  400dac:	d1f2      	bne.n	400d94 <xPortStartScheduler+0x38>
  400dae:	4b14      	ldr	r3, [pc, #80]	; (400e00 <xPortStartScheduler+0xa4>)
  400db0:	601a      	str	r2, [r3, #0]
  400db2:	4a13      	ldr	r2, [pc, #76]	; (400e00 <xPortStartScheduler+0xa4>)
  400db4:	6813      	ldr	r3, [r2, #0]
  400db6:	021b      	lsls	r3, r3, #8
  400db8:	f403 63e0 	and.w	r3, r3, #1792	; 0x700
  400dbc:	6013      	str	r3, [r2, #0]
  400dbe:	9b01      	ldr	r3, [sp, #4]
  400dc0:	b2db      	uxtb	r3, r3
  400dc2:	4a0d      	ldr	r2, [pc, #52]	; (400df8 <xPortStartScheduler+0x9c>)
  400dc4:	7013      	strb	r3, [r2, #0]
  400dc6:	4b0f      	ldr	r3, [pc, #60]	; (400e04 <xPortStartScheduler+0xa8>)
  400dc8:	681a      	ldr	r2, [r3, #0]
  400dca:	f442 0260 	orr.w	r2, r2, #14680064	; 0xe00000
  400dce:	601a      	str	r2, [r3, #0]
  400dd0:	681a      	ldr	r2, [r3, #0]
  400dd2:	f042 4260 	orr.w	r2, r2, #3758096384	; 0xe0000000
  400dd6:	601a      	str	r2, [r3, #0]
  400dd8:	4b0b      	ldr	r3, [pc, #44]	; (400e08 <xPortStartScheduler+0xac>)
  400dda:	4798      	blx	r3
  400ddc:	2200      	movs	r2, #0
  400dde:	4b0b      	ldr	r3, [pc, #44]	; (400e0c <xPortStartScheduler+0xb0>)
  400de0:	601a      	str	r2, [r3, #0]
  400de2:	4b0b      	ldr	r3, [pc, #44]	; (400e10 <xPortStartScheduler+0xb4>)
  400de4:	4798      	blx	r3
  400de6:	4a0b      	ldr	r2, [pc, #44]	; (400e14 <xPortStartScheduler+0xb8>)
  400de8:	6813      	ldr	r3, [r2, #0]
  400dea:	f043 4340 	orr.w	r3, r3, #3221225472	; 0xc0000000
  400dee:	6013      	str	r3, [r2, #0]
  400df0:	4b09      	ldr	r3, [pc, #36]	; (400e18 <xPortStartScheduler+0xbc>)
  400df2:	4798      	blx	r3
  400df4:	4b09      	ldr	r3, [pc, #36]	; (400e1c <xPortStartScheduler+0xc0>)
  400df6:	4798      	blx	r3
  400df8:	e000e400 	.word	0xe000e400
  400dfc:	20400940 	.word	0x20400940
  400e00:	20400944 	.word	0x20400944
  400e04:	e000ed20 	.word	0xe000ed20
  400e08:	00400d45 	.word	0x00400d45
  400e0c:	20400008 	.word	0x20400008
  400e10:	00400bc9 	.word	0x00400bc9
  400e14:	e000ef34 	.word	0xe000ef34
  400e18:	00400ba9 	.word	0x00400ba9
  400e1c:	00400b6d 	.word	0x00400b6d

00400e20 <vPortValidateInterruptPriority>:
  400e20:	f3ef 8305 	mrs	r3, IPSR
  400e24:	2b0f      	cmp	r3, #15
  400e26:	d911      	bls.n	400e4c <vPortValidateInterruptPriority+0x2c>
  400e28:	4a12      	ldr	r2, [pc, #72]	; (400e74 <vPortValidateInterruptPriority+0x54>)
  400e2a:	5c9b      	ldrb	r3, [r3, r2]
  400e2c:	b2db      	uxtb	r3, r3
  400e2e:	4a12      	ldr	r2, [pc, #72]	; (400e78 <vPortValidateInterruptPriority+0x58>)
  400e30:	7812      	ldrb	r2, [r2, #0]
  400e32:	429a      	cmp	r2, r3
  400e34:	d90a      	bls.n	400e4c <vPortValidateInterruptPriority+0x2c>
  400e36:	f04f 0380 	mov.w	r3, #128	; 0x80
  400e3a:	b672      	cpsid	i
  400e3c:	f383 8811 	msr	BASEPRI, r3
  400e40:	f3bf 8f6f 	isb	sy
  400e44:	f3bf 8f4f 	dsb	sy
  400e48:	b662      	cpsie	i
  400e4a:	e7fe      	b.n	400e4a <vPortValidateInterruptPriority+0x2a>
  400e4c:	4b0b      	ldr	r3, [pc, #44]	; (400e7c <vPortValidateInterruptPriority+0x5c>)
  400e4e:	681b      	ldr	r3, [r3, #0]
  400e50:	f403 63e0 	and.w	r3, r3, #1792	; 0x700
  400e54:	4a0a      	ldr	r2, [pc, #40]	; (400e80 <vPortValidateInterruptPriority+0x60>)
  400e56:	6812      	ldr	r2, [r2, #0]
  400e58:	4293      	cmp	r3, r2
  400e5a:	d90a      	bls.n	400e72 <vPortValidateInterruptPriority+0x52>
  400e5c:	f04f 0380 	mov.w	r3, #128	; 0x80
  400e60:	b672      	cpsid	i
  400e62:	f383 8811 	msr	BASEPRI, r3
  400e66:	f3bf 8f6f 	isb	sy
  400e6a:	f3bf 8f4f 	dsb	sy
  400e6e:	b662      	cpsie	i
  400e70:	e7fe      	b.n	400e70 <vPortValidateInterruptPriority+0x50>
  400e72:	4770      	bx	lr
  400e74:	e000e3f0 	.word	0xe000e3f0
  400e78:	20400940 	.word	0x20400940
  400e7c:	e000ed0c 	.word	0xe000ed0c
  400e80:	20400944 	.word	0x20400944

00400e84 <pvPortMalloc>:
  400e84:	b510      	push	{r4, lr}
  400e86:	4604      	mov	r4, r0
  400e88:	4b06      	ldr	r3, [pc, #24]	; (400ea4 <pvPortMalloc+0x20>)
  400e8a:	4798      	blx	r3
  400e8c:	4620      	mov	r0, r4
  400e8e:	4b06      	ldr	r3, [pc, #24]	; (400ea8 <pvPortMalloc+0x24>)
  400e90:	4798      	blx	r3
  400e92:	4604      	mov	r4, r0
  400e94:	4b05      	ldr	r3, [pc, #20]	; (400eac <pvPortMalloc+0x28>)
  400e96:	4798      	blx	r3
  400e98:	b90c      	cbnz	r4, 400e9e <pvPortMalloc+0x1a>
  400e9a:	4b05      	ldr	r3, [pc, #20]	; (400eb0 <pvPortMalloc+0x2c>)
  400e9c:	4798      	blx	r3
  400e9e:	4620      	mov	r0, r4
  400ea0:	bd10      	pop	{r4, pc}
  400ea2:	bf00      	nop
  400ea4:	00401b25 	.word	0x00401b25
  400ea8:	00403099 	.word	0x00403099
  400eac:	00401c95 	.word	0x00401c95
  400eb0:	00402ca1 	.word	0x00402ca1

00400eb4 <vPortFree>:
  400eb4:	b148      	cbz	r0, 400eca <vPortFree+0x16>
  400eb6:	b510      	push	{r4, lr}
  400eb8:	4604      	mov	r4, r0
  400eba:	4b04      	ldr	r3, [pc, #16]	; (400ecc <vPortFree+0x18>)
  400ebc:	4798      	blx	r3
  400ebe:	4620      	mov	r0, r4
  400ec0:	4b03      	ldr	r3, [pc, #12]	; (400ed0 <vPortFree+0x1c>)
  400ec2:	4798      	blx	r3
  400ec4:	4b03      	ldr	r3, [pc, #12]	; (400ed4 <vPortFree+0x20>)
  400ec6:	4798      	blx	r3
  400ec8:	bd10      	pop	{r4, pc}
  400eca:	4770      	bx	lr
  400ecc:	00401b25 	.word	0x00401b25
  400ed0:	004030a9 	.word	0x004030a9
  400ed4:	00401c95 	.word	0x00401c95

00400ed8 <prvCopyDataToQueue>:
  400ed8:	b538      	push	{r3, r4, r5, lr}
  400eda:	4604      	mov	r4, r0
  400edc:	4615      	mov	r5, r2
  400ede:	6c02      	ldr	r2, [r0, #64]	; 0x40
  400ee0:	b942      	cbnz	r2, 400ef4 <prvCopyDataToQueue+0x1c>
  400ee2:	6803      	ldr	r3, [r0, #0]
  400ee4:	2b00      	cmp	r3, #0
  400ee6:	d12b      	bne.n	400f40 <prvCopyDataToQueue+0x68>
  400ee8:	6840      	ldr	r0, [r0, #4]
  400eea:	4b1b      	ldr	r3, [pc, #108]	; (400f58 <prvCopyDataToQueue+0x80>)
  400eec:	4798      	blx	r3
  400eee:	2300      	movs	r3, #0
  400ef0:	6063      	str	r3, [r4, #4]
  400ef2:	e02c      	b.n	400f4e <prvCopyDataToQueue+0x76>
  400ef4:	b96d      	cbnz	r5, 400f12 <prvCopyDataToQueue+0x3a>
  400ef6:	6880      	ldr	r0, [r0, #8]
  400ef8:	4b18      	ldr	r3, [pc, #96]	; (400f5c <prvCopyDataToQueue+0x84>)
  400efa:	4798      	blx	r3
  400efc:	68a2      	ldr	r2, [r4, #8]
  400efe:	6c23      	ldr	r3, [r4, #64]	; 0x40
  400f00:	4413      	add	r3, r2
  400f02:	60a3      	str	r3, [r4, #8]
  400f04:	6862      	ldr	r2, [r4, #4]
  400f06:	4293      	cmp	r3, r2
  400f08:	d31c      	bcc.n	400f44 <prvCopyDataToQueue+0x6c>
  400f0a:	6823      	ldr	r3, [r4, #0]
  400f0c:	60a3      	str	r3, [r4, #8]
  400f0e:	2000      	movs	r0, #0
  400f10:	e01d      	b.n	400f4e <prvCopyDataToQueue+0x76>
  400f12:	68c0      	ldr	r0, [r0, #12]
  400f14:	4b11      	ldr	r3, [pc, #68]	; (400f5c <prvCopyDataToQueue+0x84>)
  400f16:	4798      	blx	r3
  400f18:	6c23      	ldr	r3, [r4, #64]	; 0x40
  400f1a:	425b      	negs	r3, r3
  400f1c:	68e2      	ldr	r2, [r4, #12]
  400f1e:	441a      	add	r2, r3
  400f20:	60e2      	str	r2, [r4, #12]
  400f22:	6821      	ldr	r1, [r4, #0]
  400f24:	428a      	cmp	r2, r1
  400f26:	d202      	bcs.n	400f2e <prvCopyDataToQueue+0x56>
  400f28:	6862      	ldr	r2, [r4, #4]
  400f2a:	4413      	add	r3, r2
  400f2c:	60e3      	str	r3, [r4, #12]
  400f2e:	2d02      	cmp	r5, #2
  400f30:	d10a      	bne.n	400f48 <prvCopyDataToQueue+0x70>
  400f32:	6ba3      	ldr	r3, [r4, #56]	; 0x38
  400f34:	b153      	cbz	r3, 400f4c <prvCopyDataToQueue+0x74>
  400f36:	6ba3      	ldr	r3, [r4, #56]	; 0x38
  400f38:	3b01      	subs	r3, #1
  400f3a:	63a3      	str	r3, [r4, #56]	; 0x38
  400f3c:	2000      	movs	r0, #0
  400f3e:	e006      	b.n	400f4e <prvCopyDataToQueue+0x76>
  400f40:	2000      	movs	r0, #0
  400f42:	e004      	b.n	400f4e <prvCopyDataToQueue+0x76>
  400f44:	2000      	movs	r0, #0
  400f46:	e002      	b.n	400f4e <prvCopyDataToQueue+0x76>
  400f48:	2000      	movs	r0, #0
  400f4a:	e000      	b.n	400f4e <prvCopyDataToQueue+0x76>
  400f4c:	2000      	movs	r0, #0
  400f4e:	6ba3      	ldr	r3, [r4, #56]	; 0x38
  400f50:	3301      	adds	r3, #1
  400f52:	63a3      	str	r3, [r4, #56]	; 0x38
  400f54:	bd38      	pop	{r3, r4, r5, pc}
  400f56:	bf00      	nop
  400f58:	00402379 	.word	0x00402379
  400f5c:	00403629 	.word	0x00403629

00400f60 <prvNotifyQueueSetContainer>:
  400f60:	b530      	push	{r4, r5, lr}
  400f62:	b083      	sub	sp, #12
  400f64:	9001      	str	r0, [sp, #4]
  400f66:	6d44      	ldr	r4, [r0, #84]	; 0x54
  400f68:	b954      	cbnz	r4, 400f80 <prvNotifyQueueSetContainer+0x20>
  400f6a:	f04f 0380 	mov.w	r3, #128	; 0x80
  400f6e:	b672      	cpsid	i
  400f70:	f383 8811 	msr	BASEPRI, r3
  400f74:	f3bf 8f6f 	isb	sy
  400f78:	f3bf 8f4f 	dsb	sy
  400f7c:	b662      	cpsie	i
  400f7e:	e7fe      	b.n	400f7e <prvNotifyQueueSetContainer+0x1e>
  400f80:	6ba2      	ldr	r2, [r4, #56]	; 0x38
  400f82:	6be3      	ldr	r3, [r4, #60]	; 0x3c
  400f84:	429a      	cmp	r2, r3
  400f86:	d30a      	bcc.n	400f9e <prvNotifyQueueSetContainer+0x3e>
  400f88:	f04f 0380 	mov.w	r3, #128	; 0x80
  400f8c:	b672      	cpsid	i
  400f8e:	f383 8811 	msr	BASEPRI, r3
  400f92:	f3bf 8f6f 	isb	sy
  400f96:	f3bf 8f4f 	dsb	sy
  400f9a:	b662      	cpsie	i
  400f9c:	e7fe      	b.n	400f9c <prvNotifyQueueSetContainer+0x3c>
  400f9e:	6ba2      	ldr	r2, [r4, #56]	; 0x38
  400fa0:	4293      	cmp	r3, r2
  400fa2:	d917      	bls.n	400fd4 <prvNotifyQueueSetContainer+0x74>
  400fa4:	460a      	mov	r2, r1
  400fa6:	a901      	add	r1, sp, #4
  400fa8:	4620      	mov	r0, r4
  400faa:	4b0c      	ldr	r3, [pc, #48]	; (400fdc <prvNotifyQueueSetContainer+0x7c>)
  400fac:	4798      	blx	r3
  400fae:	4605      	mov	r5, r0
  400fb0:	6ca3      	ldr	r3, [r4, #72]	; 0x48
  400fb2:	f1b3 3fff 	cmp.w	r3, #4294967295
  400fb6:	d109      	bne.n	400fcc <prvNotifyQueueSetContainer+0x6c>
  400fb8:	6a63      	ldr	r3, [r4, #36]	; 0x24
  400fba:	b163      	cbz	r3, 400fd6 <prvNotifyQueueSetContainer+0x76>
  400fbc:	f104 0024 	add.w	r0, r4, #36	; 0x24
  400fc0:	4b07      	ldr	r3, [pc, #28]	; (400fe0 <prvNotifyQueueSetContainer+0x80>)
  400fc2:	4798      	blx	r3
  400fc4:	2800      	cmp	r0, #0
  400fc6:	bf18      	it	ne
  400fc8:	2501      	movne	r5, #1
  400fca:	e004      	b.n	400fd6 <prvNotifyQueueSetContainer+0x76>
  400fcc:	6ca3      	ldr	r3, [r4, #72]	; 0x48
  400fce:	3301      	adds	r3, #1
  400fd0:	64a3      	str	r3, [r4, #72]	; 0x48
  400fd2:	e000      	b.n	400fd6 <prvNotifyQueueSetContainer+0x76>
  400fd4:	2500      	movs	r5, #0
  400fd6:	4628      	mov	r0, r5
  400fd8:	b003      	add	sp, #12
  400fda:	bd30      	pop	{r4, r5, pc}
  400fdc:	00400ed9 	.word	0x00400ed9
  400fe0:	00402149 	.word	0x00402149

00400fe4 <prvCopyDataFromQueue>:
  400fe4:	6c02      	ldr	r2, [r0, #64]	; 0x40
  400fe6:	b172      	cbz	r2, 401006 <prvCopyDataFromQueue+0x22>
  400fe8:	b510      	push	{r4, lr}
  400fea:	4603      	mov	r3, r0
  400fec:	68c4      	ldr	r4, [r0, #12]
  400fee:	4414      	add	r4, r2
  400ff0:	60c4      	str	r4, [r0, #12]
  400ff2:	6840      	ldr	r0, [r0, #4]
  400ff4:	4284      	cmp	r4, r0
  400ff6:	d301      	bcc.n	400ffc <prvCopyDataFromQueue+0x18>
  400ff8:	6818      	ldr	r0, [r3, #0]
  400ffa:	60d8      	str	r0, [r3, #12]
  400ffc:	4608      	mov	r0, r1
  400ffe:	68d9      	ldr	r1, [r3, #12]
  401000:	4b01      	ldr	r3, [pc, #4]	; (401008 <prvCopyDataFromQueue+0x24>)
  401002:	4798      	blx	r3
  401004:	bd10      	pop	{r4, pc}
  401006:	4770      	bx	lr
  401008:	00403629 	.word	0x00403629

0040100c <prvUnlockQueue>:
  40100c:	b5f8      	push	{r3, r4, r5, r6, r7, lr}
  40100e:	4604      	mov	r4, r0
  401010:	4b20      	ldr	r3, [pc, #128]	; (401094 <prvUnlockQueue+0x88>)
  401012:	4798      	blx	r3
  401014:	6ca3      	ldr	r3, [r4, #72]	; 0x48
  401016:	2b00      	cmp	r3, #0
  401018:	dd18      	ble.n	40104c <prvUnlockQueue+0x40>
  40101a:	4d1f      	ldr	r5, [pc, #124]	; (401098 <prvUnlockQueue+0x8c>)
  40101c:	4f1f      	ldr	r7, [pc, #124]	; (40109c <prvUnlockQueue+0x90>)
  40101e:	4e20      	ldr	r6, [pc, #128]	; (4010a0 <prvUnlockQueue+0x94>)
  401020:	6d63      	ldr	r3, [r4, #84]	; 0x54
  401022:	b133      	cbz	r3, 401032 <prvUnlockQueue+0x26>
  401024:	2100      	movs	r1, #0
  401026:	4620      	mov	r0, r4
  401028:	47a8      	blx	r5
  40102a:	2801      	cmp	r0, #1
  40102c:	d108      	bne.n	401040 <prvUnlockQueue+0x34>
  40102e:	47b8      	blx	r7
  401030:	e006      	b.n	401040 <prvUnlockQueue+0x34>
  401032:	6a63      	ldr	r3, [r4, #36]	; 0x24
  401034:	b153      	cbz	r3, 40104c <prvUnlockQueue+0x40>
  401036:	f104 0024 	add.w	r0, r4, #36	; 0x24
  40103a:	47b0      	blx	r6
  40103c:	b100      	cbz	r0, 401040 <prvUnlockQueue+0x34>
  40103e:	47b8      	blx	r7
  401040:	6ca3      	ldr	r3, [r4, #72]	; 0x48
  401042:	3b01      	subs	r3, #1
  401044:	64a3      	str	r3, [r4, #72]	; 0x48
  401046:	6ca3      	ldr	r3, [r4, #72]	; 0x48
  401048:	2b00      	cmp	r3, #0
  40104a:	dce9      	bgt.n	401020 <prvUnlockQueue+0x14>
  40104c:	f04f 33ff 	mov.w	r3, #4294967295
  401050:	64a3      	str	r3, [r4, #72]	; 0x48
  401052:	4b14      	ldr	r3, [pc, #80]	; (4010a4 <prvUnlockQueue+0x98>)
  401054:	4798      	blx	r3
  401056:	4b0f      	ldr	r3, [pc, #60]	; (401094 <prvUnlockQueue+0x88>)
  401058:	4798      	blx	r3
  40105a:	6c63      	ldr	r3, [r4, #68]	; 0x44
  40105c:	2b00      	cmp	r3, #0
  40105e:	dd13      	ble.n	401088 <prvUnlockQueue+0x7c>
  401060:	6923      	ldr	r3, [r4, #16]
  401062:	b91b      	cbnz	r3, 40106c <prvUnlockQueue+0x60>
  401064:	e010      	b.n	401088 <prvUnlockQueue+0x7c>
  401066:	6923      	ldr	r3, [r4, #16]
  401068:	b923      	cbnz	r3, 401074 <prvUnlockQueue+0x68>
  40106a:	e00d      	b.n	401088 <prvUnlockQueue+0x7c>
  40106c:	f104 0610 	add.w	r6, r4, #16
  401070:	4d0b      	ldr	r5, [pc, #44]	; (4010a0 <prvUnlockQueue+0x94>)
  401072:	4f0a      	ldr	r7, [pc, #40]	; (40109c <prvUnlockQueue+0x90>)
  401074:	4630      	mov	r0, r6
  401076:	47a8      	blx	r5
  401078:	b100      	cbz	r0, 40107c <prvUnlockQueue+0x70>
  40107a:	47b8      	blx	r7
  40107c:	6c63      	ldr	r3, [r4, #68]	; 0x44
  40107e:	3b01      	subs	r3, #1
  401080:	6463      	str	r3, [r4, #68]	; 0x44
  401082:	6c63      	ldr	r3, [r4, #68]	; 0x44
  401084:	2b00      	cmp	r3, #0
  401086:	dcee      	bgt.n	401066 <prvUnlockQueue+0x5a>
  401088:	f04f 33ff 	mov.w	r3, #4294967295
  40108c:	6463      	str	r3, [r4, #68]	; 0x44
  40108e:	4b05      	ldr	r3, [pc, #20]	; (4010a4 <prvUnlockQueue+0x98>)
  401090:	4798      	blx	r3
  401092:	bdf8      	pop	{r3, r4, r5, r6, r7, pc}
  401094:	00400c29 	.word	0x00400c29
  401098:	00400f61 	.word	0x00400f61
  40109c:	004022a5 	.word	0x004022a5
  4010a0:	00402149 	.word	0x00402149
  4010a4:	00400c75 	.word	0x00400c75

004010a8 <xQueueGenericReset>:
  4010a8:	b538      	push	{r3, r4, r5, lr}
  4010aa:	b950      	cbnz	r0, 4010c2 <xQueueGenericReset+0x1a>
  4010ac:	f04f 0380 	mov.w	r3, #128	; 0x80
  4010b0:	b672      	cpsid	i
  4010b2:	f383 8811 	msr	BASEPRI, r3
  4010b6:	f3bf 8f6f 	isb	sy
  4010ba:	f3bf 8f4f 	dsb	sy
  4010be:	b662      	cpsie	i
  4010c0:	e7fe      	b.n	4010c0 <xQueueGenericReset+0x18>
  4010c2:	4604      	mov	r4, r0
  4010c4:	460d      	mov	r5, r1
  4010c6:	4b18      	ldr	r3, [pc, #96]	; (401128 <xQueueGenericReset+0x80>)
  4010c8:	4798      	blx	r3
  4010ca:	6822      	ldr	r2, [r4, #0]
  4010cc:	6c21      	ldr	r1, [r4, #64]	; 0x40
  4010ce:	6be3      	ldr	r3, [r4, #60]	; 0x3c
  4010d0:	fb03 f301 	mul.w	r3, r3, r1
  4010d4:	18d0      	adds	r0, r2, r3
  4010d6:	6060      	str	r0, [r4, #4]
  4010d8:	2000      	movs	r0, #0
  4010da:	63a0      	str	r0, [r4, #56]	; 0x38
  4010dc:	60a2      	str	r2, [r4, #8]
  4010de:	1a5b      	subs	r3, r3, r1
  4010e0:	4413      	add	r3, r2
  4010e2:	60e3      	str	r3, [r4, #12]
  4010e4:	f04f 33ff 	mov.w	r3, #4294967295
  4010e8:	6463      	str	r3, [r4, #68]	; 0x44
  4010ea:	64a3      	str	r3, [r4, #72]	; 0x48
  4010ec:	b985      	cbnz	r5, 401110 <xQueueGenericReset+0x68>
  4010ee:	6923      	ldr	r3, [r4, #16]
  4010f0:	b1ab      	cbz	r3, 40111e <xQueueGenericReset+0x76>
  4010f2:	f104 0010 	add.w	r0, r4, #16
  4010f6:	4b0d      	ldr	r3, [pc, #52]	; (40112c <xQueueGenericReset+0x84>)
  4010f8:	4798      	blx	r3
  4010fa:	2801      	cmp	r0, #1
  4010fc:	d10f      	bne.n	40111e <xQueueGenericReset+0x76>
  4010fe:	f04f 5280 	mov.w	r2, #268435456	; 0x10000000
  401102:	4b0b      	ldr	r3, [pc, #44]	; (401130 <xQueueGenericReset+0x88>)
  401104:	601a      	str	r2, [r3, #0]
  401106:	f3bf 8f4f 	dsb	sy
  40110a:	f3bf 8f6f 	isb	sy
  40110e:	e006      	b.n	40111e <xQueueGenericReset+0x76>
  401110:	f104 0010 	add.w	r0, r4, #16
  401114:	4d07      	ldr	r5, [pc, #28]	; (401134 <xQueueGenericReset+0x8c>)
  401116:	47a8      	blx	r5
  401118:	f104 0024 	add.w	r0, r4, #36	; 0x24
  40111c:	47a8      	blx	r5
  40111e:	4b06      	ldr	r3, [pc, #24]	; (401138 <xQueueGenericReset+0x90>)
  401120:	4798      	blx	r3
  401122:	2001      	movs	r0, #1
  401124:	bd38      	pop	{r3, r4, r5, pc}
  401126:	bf00      	nop
  401128:	00400c29 	.word	0x00400c29
  40112c:	00402149 	.word	0x00402149
  401130:	e000ed04 	.word	0xe000ed04
  401134:	00400add 	.word	0x00400add
  401138:	00400c75 	.word	0x00400c75

0040113c <xQueueGenericCreate>:
  40113c:	b5f8      	push	{r3, r4, r5, r6, r7, lr}
  40113e:	b950      	cbnz	r0, 401156 <xQueueGenericCreate+0x1a>
  401140:	f04f 0380 	mov.w	r3, #128	; 0x80
  401144:	b672      	cpsid	i
  401146:	f383 8811 	msr	BASEPRI, r3
  40114a:	f3bf 8f6f 	isb	sy
  40114e:	f3bf 8f4f 	dsb	sy
  401152:	b662      	cpsie	i
  401154:	e7fe      	b.n	401154 <xQueueGenericCreate+0x18>
  401156:	4606      	mov	r6, r0
  401158:	4617      	mov	r7, r2
  40115a:	460d      	mov	r5, r1
  40115c:	b1c1      	cbz	r1, 401190 <xQueueGenericCreate+0x54>
  40115e:	fb01 f000 	mul.w	r0, r1, r0
  401162:	3059      	adds	r0, #89	; 0x59
  401164:	4b14      	ldr	r3, [pc, #80]	; (4011b8 <xQueueGenericCreate+0x7c>)
  401166:	4798      	blx	r3
  401168:	4604      	mov	r4, r0
  40116a:	b910      	cbnz	r0, 401172 <xQueueGenericCreate+0x36>
  40116c:	e005      	b.n	40117a <xQueueGenericCreate+0x3e>
  40116e:	6024      	str	r4, [r4, #0]
  401170:	e015      	b.n	40119e <xQueueGenericCreate+0x62>
  401172:	f100 0358 	add.w	r3, r0, #88	; 0x58
  401176:	6003      	str	r3, [r0, #0]
  401178:	e011      	b.n	40119e <xQueueGenericCreate+0x62>
  40117a:	f04f 0380 	mov.w	r3, #128	; 0x80
  40117e:	b672      	cpsid	i
  401180:	f383 8811 	msr	BASEPRI, r3
  401184:	f3bf 8f6f 	isb	sy
  401188:	f3bf 8f4f 	dsb	sy
  40118c:	b662      	cpsie	i
  40118e:	e7fe      	b.n	40118e <xQueueGenericCreate+0x52>
  401190:	2058      	movs	r0, #88	; 0x58
  401192:	4b09      	ldr	r3, [pc, #36]	; (4011b8 <xQueueGenericCreate+0x7c>)
  401194:	4798      	blx	r3
  401196:	4604      	mov	r4, r0
  401198:	2800      	cmp	r0, #0
  40119a:	d1e8      	bne.n	40116e <xQueueGenericCreate+0x32>
  40119c:	e7ed      	b.n	40117a <xQueueGenericCreate+0x3e>
  40119e:	63e6      	str	r6, [r4, #60]	; 0x3c
  4011a0:	6425      	str	r5, [r4, #64]	; 0x40
  4011a2:	2101      	movs	r1, #1
  4011a4:	4620      	mov	r0, r4
  4011a6:	4b05      	ldr	r3, [pc, #20]	; (4011bc <xQueueGenericCreate+0x80>)
  4011a8:	4798      	blx	r3
  4011aa:	f884 7050 	strb.w	r7, [r4, #80]	; 0x50
  4011ae:	2300      	movs	r3, #0
  4011b0:	6563      	str	r3, [r4, #84]	; 0x54
  4011b2:	4620      	mov	r0, r4
  4011b4:	bdf8      	pop	{r3, r4, r5, r6, r7, pc}
  4011b6:	bf00      	nop
  4011b8:	00400e85 	.word	0x00400e85
  4011bc:	004010a9 	.word	0x004010a9

004011c0 <xQueueGenericSend>:
  4011c0:	e92d 4ff0 	stmdb	sp!, {r4, r5, r6, r7, r8, r9, sl, fp, lr}
  4011c4:	b085      	sub	sp, #20
  4011c6:	9201      	str	r2, [sp, #4]
  4011c8:	b950      	cbnz	r0, 4011e0 <xQueueGenericSend+0x20>
  4011ca:	f04f 0380 	mov.w	r3, #128	; 0x80
  4011ce:	b672      	cpsid	i
  4011d0:	f383 8811 	msr	BASEPRI, r3
  4011d4:	f3bf 8f6f 	isb	sy
  4011d8:	f3bf 8f4f 	dsb	sy
  4011dc:	b662      	cpsie	i
  4011de:	e7fe      	b.n	4011de <xQueueGenericSend+0x1e>
  4011e0:	4604      	mov	r4, r0
  4011e2:	b961      	cbnz	r1, 4011fe <xQueueGenericSend+0x3e>
  4011e4:	6c02      	ldr	r2, [r0, #64]	; 0x40
  4011e6:	b152      	cbz	r2, 4011fe <xQueueGenericSend+0x3e>
  4011e8:	f04f 0380 	mov.w	r3, #128	; 0x80
  4011ec:	b672      	cpsid	i
  4011ee:	f383 8811 	msr	BASEPRI, r3
  4011f2:	f3bf 8f6f 	isb	sy
  4011f6:	f3bf 8f4f 	dsb	sy
  4011fa:	b662      	cpsie	i
  4011fc:	e7fe      	b.n	4011fc <xQueueGenericSend+0x3c>
  4011fe:	2b02      	cmp	r3, #2
  401200:	d10d      	bne.n	40121e <xQueueGenericSend+0x5e>
  401202:	6be2      	ldr	r2, [r4, #60]	; 0x3c
  401204:	2a01      	cmp	r2, #1
  401206:	d00a      	beq.n	40121e <xQueueGenericSend+0x5e>
  401208:	f04f 0380 	mov.w	r3, #128	; 0x80
  40120c:	b672      	cpsid	i
  40120e:	f383 8811 	msr	BASEPRI, r3
  401212:	f3bf 8f6f 	isb	sy
  401216:	f3bf 8f4f 	dsb	sy
  40121a:	b662      	cpsie	i
  40121c:	e7fe      	b.n	40121c <xQueueGenericSend+0x5c>
  40121e:	461d      	mov	r5, r3
  401220:	9100      	str	r1, [sp, #0]
  401222:	4b51      	ldr	r3, [pc, #324]	; (401368 <xQueueGenericSend+0x1a8>)
  401224:	4798      	blx	r3
  401226:	b960      	cbnz	r0, 401242 <xQueueGenericSend+0x82>
  401228:	9b01      	ldr	r3, [sp, #4]
  40122a:	b163      	cbz	r3, 401246 <xQueueGenericSend+0x86>
  40122c:	f04f 0380 	mov.w	r3, #128	; 0x80
  401230:	b672      	cpsid	i
  401232:	f383 8811 	msr	BASEPRI, r3
  401236:	f3bf 8f6f 	isb	sy
  40123a:	f3bf 8f4f 	dsb	sy
  40123e:	b662      	cpsie	i
  401240:	e7fe      	b.n	401240 <xQueueGenericSend+0x80>
  401242:	2700      	movs	r7, #0
  401244:	e000      	b.n	401248 <xQueueGenericSend+0x88>
  401246:	2700      	movs	r7, #0
  401248:	4e48      	ldr	r6, [pc, #288]	; (40136c <xQueueGenericSend+0x1ac>)
  40124a:	f8df 914c 	ldr.w	r9, [pc, #332]	; 401398 <xQueueGenericSend+0x1d8>
  40124e:	f8df 8128 	ldr.w	r8, [pc, #296]	; 401378 <xQueueGenericSend+0x1b8>
  401252:	47b0      	blx	r6
  401254:	6ba2      	ldr	r2, [r4, #56]	; 0x38
  401256:	6be3      	ldr	r3, [r4, #60]	; 0x3c
  401258:	429a      	cmp	r2, r3
  40125a:	d301      	bcc.n	401260 <xQueueGenericSend+0xa0>
  40125c:	2d02      	cmp	r5, #2
  40125e:	d133      	bne.n	4012c8 <xQueueGenericSend+0x108>
  401260:	462a      	mov	r2, r5
  401262:	9900      	ldr	r1, [sp, #0]
  401264:	4620      	mov	r0, r4
  401266:	4b42      	ldr	r3, [pc, #264]	; (401370 <xQueueGenericSend+0x1b0>)
  401268:	4798      	blx	r3
  40126a:	6d63      	ldr	r3, [r4, #84]	; 0x54
  40126c:	b173      	cbz	r3, 40128c <xQueueGenericSend+0xcc>
  40126e:	4629      	mov	r1, r5
  401270:	4620      	mov	r0, r4
  401272:	4b40      	ldr	r3, [pc, #256]	; (401374 <xQueueGenericSend+0x1b4>)
  401274:	4798      	blx	r3
  401276:	2801      	cmp	r0, #1
  401278:	d122      	bne.n	4012c0 <xQueueGenericSend+0x100>
  40127a:	f04f 5280 	mov.w	r2, #268435456	; 0x10000000
  40127e:	4b3e      	ldr	r3, [pc, #248]	; (401378 <xQueueGenericSend+0x1b8>)
  401280:	601a      	str	r2, [r3, #0]
  401282:	f3bf 8f4f 	dsb	sy
  401286:	f3bf 8f6f 	isb	sy
  40128a:	e019      	b.n	4012c0 <xQueueGenericSend+0x100>
  40128c:	6a63      	ldr	r3, [r4, #36]	; 0x24
  40128e:	b173      	cbz	r3, 4012ae <xQueueGenericSend+0xee>
  401290:	f104 0024 	add.w	r0, r4, #36	; 0x24
  401294:	4b39      	ldr	r3, [pc, #228]	; (40137c <xQueueGenericSend+0x1bc>)
  401296:	4798      	blx	r3
  401298:	2801      	cmp	r0, #1
  40129a:	d111      	bne.n	4012c0 <xQueueGenericSend+0x100>
  40129c:	f04f 5280 	mov.w	r2, #268435456	; 0x10000000
  4012a0:	4b35      	ldr	r3, [pc, #212]	; (401378 <xQueueGenericSend+0x1b8>)
  4012a2:	601a      	str	r2, [r3, #0]
  4012a4:	f3bf 8f4f 	dsb	sy
  4012a8:	f3bf 8f6f 	isb	sy
  4012ac:	e008      	b.n	4012c0 <xQueueGenericSend+0x100>
  4012ae:	b138      	cbz	r0, 4012c0 <xQueueGenericSend+0x100>
  4012b0:	f04f 5280 	mov.w	r2, #268435456	; 0x10000000
  4012b4:	4b30      	ldr	r3, [pc, #192]	; (401378 <xQueueGenericSend+0x1b8>)
  4012b6:	601a      	str	r2, [r3, #0]
  4012b8:	f3bf 8f4f 	dsb	sy
  4012bc:	f3bf 8f6f 	isb	sy
  4012c0:	4b2f      	ldr	r3, [pc, #188]	; (401380 <xQueueGenericSend+0x1c0>)
  4012c2:	4798      	blx	r3
  4012c4:	2001      	movs	r0, #1
  4012c6:	e04b      	b.n	401360 <xQueueGenericSend+0x1a0>
  4012c8:	9b01      	ldr	r3, [sp, #4]
  4012ca:	b91b      	cbnz	r3, 4012d4 <xQueueGenericSend+0x114>
  4012cc:	4b2c      	ldr	r3, [pc, #176]	; (401380 <xQueueGenericSend+0x1c0>)
  4012ce:	4798      	blx	r3
  4012d0:	2000      	movs	r0, #0
  4012d2:	e045      	b.n	401360 <xQueueGenericSend+0x1a0>
  4012d4:	b917      	cbnz	r7, 4012dc <xQueueGenericSend+0x11c>
  4012d6:	a802      	add	r0, sp, #8
  4012d8:	47c8      	blx	r9
  4012da:	2701      	movs	r7, #1
  4012dc:	4b28      	ldr	r3, [pc, #160]	; (401380 <xQueueGenericSend+0x1c0>)
  4012de:	4798      	blx	r3
  4012e0:	4b28      	ldr	r3, [pc, #160]	; (401384 <xQueueGenericSend+0x1c4>)
  4012e2:	4798      	blx	r3
  4012e4:	47b0      	blx	r6
  4012e6:	6c63      	ldr	r3, [r4, #68]	; 0x44
  4012e8:	f1b3 3fff 	cmp.w	r3, #4294967295
  4012ec:	d101      	bne.n	4012f2 <xQueueGenericSend+0x132>
  4012ee:	2300      	movs	r3, #0
  4012f0:	6463      	str	r3, [r4, #68]	; 0x44
  4012f2:	6ca3      	ldr	r3, [r4, #72]	; 0x48
  4012f4:	f1b3 3fff 	cmp.w	r3, #4294967295
  4012f8:	d101      	bne.n	4012fe <xQueueGenericSend+0x13e>
  4012fa:	2300      	movs	r3, #0
  4012fc:	64a3      	str	r3, [r4, #72]	; 0x48
  4012fe:	4b20      	ldr	r3, [pc, #128]	; (401380 <xQueueGenericSend+0x1c0>)
  401300:	4798      	blx	r3
  401302:	a901      	add	r1, sp, #4
  401304:	a802      	add	r0, sp, #8
  401306:	4b20      	ldr	r3, [pc, #128]	; (401388 <xQueueGenericSend+0x1c8>)
  401308:	4798      	blx	r3
  40130a:	bb18      	cbnz	r0, 401354 <xQueueGenericSend+0x194>
  40130c:	47b0      	blx	r6
  40130e:	f8d4 b038 	ldr.w	fp, [r4, #56]	; 0x38
  401312:	f8d4 a03c 	ldr.w	sl, [r4, #60]	; 0x3c
  401316:	4b1a      	ldr	r3, [pc, #104]	; (401380 <xQueueGenericSend+0x1c0>)
  401318:	4798      	blx	r3
  40131a:	45d3      	cmp	fp, sl
  40131c:	d114      	bne.n	401348 <xQueueGenericSend+0x188>
  40131e:	9901      	ldr	r1, [sp, #4]
  401320:	f104 0010 	add.w	r0, r4, #16
  401324:	4b19      	ldr	r3, [pc, #100]	; (40138c <xQueueGenericSend+0x1cc>)
  401326:	4798      	blx	r3
  401328:	4620      	mov	r0, r4
  40132a:	4b19      	ldr	r3, [pc, #100]	; (401390 <xQueueGenericSend+0x1d0>)
  40132c:	4798      	blx	r3
  40132e:	4b19      	ldr	r3, [pc, #100]	; (401394 <xQueueGenericSend+0x1d4>)
  401330:	4798      	blx	r3
  401332:	2800      	cmp	r0, #0
  401334:	d18d      	bne.n	401252 <xQueueGenericSend+0x92>
  401336:	f04f 5380 	mov.w	r3, #268435456	; 0x10000000
  40133a:	f8c8 3000 	str.w	r3, [r8]
  40133e:	f3bf 8f4f 	dsb	sy
  401342:	f3bf 8f6f 	isb	sy
  401346:	e784      	b.n	401252 <xQueueGenericSend+0x92>
  401348:	4620      	mov	r0, r4
  40134a:	4b11      	ldr	r3, [pc, #68]	; (401390 <xQueueGenericSend+0x1d0>)
  40134c:	4798      	blx	r3
  40134e:	4b11      	ldr	r3, [pc, #68]	; (401394 <xQueueGenericSend+0x1d4>)
  401350:	4798      	blx	r3
  401352:	e77e      	b.n	401252 <xQueueGenericSend+0x92>
  401354:	4620      	mov	r0, r4
  401356:	4b0e      	ldr	r3, [pc, #56]	; (401390 <xQueueGenericSend+0x1d0>)
  401358:	4798      	blx	r3
  40135a:	4b0e      	ldr	r3, [pc, #56]	; (401394 <xQueueGenericSend+0x1d4>)
  40135c:	4798      	blx	r3
  40135e:	2000      	movs	r0, #0
  401360:	b005      	add	sp, #20
  401362:	e8bd 8ff0 	ldmia.w	sp!, {r4, r5, r6, r7, r8, r9, sl, fp, pc}
  401366:	bf00      	nop
  401368:	004022b1 	.word	0x004022b1
  40136c:	00400c29 	.word	0x00400c29
  401370:	00400ed9 	.word	0x00400ed9
  401374:	00400f61 	.word	0x00400f61
  401378:	e000ed04 	.word	0xe000ed04
  40137c:	00402149 	.word	0x00402149
  401380:	00400c75 	.word	0x00400c75
  401384:	00401b25 	.word	0x00401b25
  401388:	00402211 	.word	0x00402211
  40138c:	00402045 	.word	0x00402045
  401390:	0040100d 	.word	0x0040100d
  401394:	00401c95 	.word	0x00401c95
  401398:	004021e1 	.word	0x004021e1

0040139c <xQueueCreateMutex>:
  40139c:	b570      	push	{r4, r5, r6, lr}
  40139e:	4606      	mov	r6, r0
  4013a0:	2058      	movs	r0, #88	; 0x58
  4013a2:	4b11      	ldr	r3, [pc, #68]	; (4013e8 <xQueueCreateMutex+0x4c>)
  4013a4:	4798      	blx	r3
  4013a6:	4604      	mov	r4, r0
  4013a8:	b1d8      	cbz	r0, 4013e2 <xQueueCreateMutex+0x46>
  4013aa:	2500      	movs	r5, #0
  4013ac:	6045      	str	r5, [r0, #4]
  4013ae:	6005      	str	r5, [r0, #0]
  4013b0:	6085      	str	r5, [r0, #8]
  4013b2:	60c5      	str	r5, [r0, #12]
  4013b4:	6385      	str	r5, [r0, #56]	; 0x38
  4013b6:	2301      	movs	r3, #1
  4013b8:	63c3      	str	r3, [r0, #60]	; 0x3c
  4013ba:	6405      	str	r5, [r0, #64]	; 0x40
  4013bc:	f04f 33ff 	mov.w	r3, #4294967295
  4013c0:	6443      	str	r3, [r0, #68]	; 0x44
  4013c2:	6483      	str	r3, [r0, #72]	; 0x48
  4013c4:	f880 6050 	strb.w	r6, [r0, #80]	; 0x50
  4013c8:	6545      	str	r5, [r0, #84]	; 0x54
  4013ca:	3010      	adds	r0, #16
  4013cc:	4e07      	ldr	r6, [pc, #28]	; (4013ec <xQueueCreateMutex+0x50>)
  4013ce:	47b0      	blx	r6
  4013d0:	f104 0024 	add.w	r0, r4, #36	; 0x24
  4013d4:	47b0      	blx	r6
  4013d6:	462b      	mov	r3, r5
  4013d8:	462a      	mov	r2, r5
  4013da:	4629      	mov	r1, r5
  4013dc:	4620      	mov	r0, r4
  4013de:	4d04      	ldr	r5, [pc, #16]	; (4013f0 <xQueueCreateMutex+0x54>)
  4013e0:	47a8      	blx	r5
  4013e2:	4620      	mov	r0, r4
  4013e4:	bd70      	pop	{r4, r5, r6, pc}
  4013e6:	bf00      	nop
  4013e8:	00400e85 	.word	0x00400e85
  4013ec:	00400add 	.word	0x00400add
  4013f0:	004011c1 	.word	0x004011c1

004013f4 <xQueueGenericSendFromISR>:
  4013f4:	b950      	cbnz	r0, 40140c <xQueueGenericSendFromISR+0x18>
  4013f6:	f04f 0380 	mov.w	r3, #128	; 0x80
  4013fa:	b672      	cpsid	i
  4013fc:	f383 8811 	msr	BASEPRI, r3
  401400:	f3bf 8f6f 	isb	sy
  401404:	f3bf 8f4f 	dsb	sy
  401408:	b662      	cpsie	i
  40140a:	e7fe      	b.n	40140a <xQueueGenericSendFromISR+0x16>
  40140c:	e92d 41f0 	stmdb	sp!, {r4, r5, r6, r7, r8, lr}
  401410:	4604      	mov	r4, r0
  401412:	b961      	cbnz	r1, 40142e <xQueueGenericSendFromISR+0x3a>
  401414:	6c00      	ldr	r0, [r0, #64]	; 0x40
  401416:	b150      	cbz	r0, 40142e <xQueueGenericSendFromISR+0x3a>
  401418:	f04f 0380 	mov.w	r3, #128	; 0x80
  40141c:	b672      	cpsid	i
  40141e:	f383 8811 	msr	BASEPRI, r3
  401422:	f3bf 8f6f 	isb	sy
  401426:	f3bf 8f4f 	dsb	sy
  40142a:	b662      	cpsie	i
  40142c:	e7fe      	b.n	40142c <xQueueGenericSendFromISR+0x38>
  40142e:	2b02      	cmp	r3, #2
  401430:	d10d      	bne.n	40144e <xQueueGenericSendFromISR+0x5a>
  401432:	6be0      	ldr	r0, [r4, #60]	; 0x3c
  401434:	2801      	cmp	r0, #1
  401436:	d00a      	beq.n	40144e <xQueueGenericSendFromISR+0x5a>
  401438:	f04f 0380 	mov.w	r3, #128	; 0x80
  40143c:	b672      	cpsid	i
  40143e:	f383 8811 	msr	BASEPRI, r3
  401442:	f3bf 8f6f 	isb	sy
  401446:	f3bf 8f4f 	dsb	sy
  40144a:	b662      	cpsie	i
  40144c:	e7fe      	b.n	40144c <xQueueGenericSendFromISR+0x58>
  40144e:	461e      	mov	r6, r3
  401450:	4615      	mov	r5, r2
  401452:	4688      	mov	r8, r1
  401454:	4b21      	ldr	r3, [pc, #132]	; (4014dc <xQueueGenericSendFromISR+0xe8>)
  401456:	4798      	blx	r3
  401458:	f3ef 8711 	mrs	r7, BASEPRI
  40145c:	f04f 0380 	mov.w	r3, #128	; 0x80
  401460:	b672      	cpsid	i
  401462:	f383 8811 	msr	BASEPRI, r3
  401466:	f3bf 8f6f 	isb	sy
  40146a:	f3bf 8f4f 	dsb	sy
  40146e:	b662      	cpsie	i
  401470:	6ba2      	ldr	r2, [r4, #56]	; 0x38
  401472:	6be3      	ldr	r3, [r4, #60]	; 0x3c
  401474:	429a      	cmp	r2, r3
  401476:	d301      	bcc.n	40147c <xQueueGenericSendFromISR+0x88>
  401478:	2e02      	cmp	r6, #2
  40147a:	d123      	bne.n	4014c4 <xQueueGenericSendFromISR+0xd0>
  40147c:	4632      	mov	r2, r6
  40147e:	4641      	mov	r1, r8
  401480:	4620      	mov	r0, r4
  401482:	4b17      	ldr	r3, [pc, #92]	; (4014e0 <xQueueGenericSendFromISR+0xec>)
  401484:	4798      	blx	r3
  401486:	6ca3      	ldr	r3, [r4, #72]	; 0x48
  401488:	f1b3 3fff 	cmp.w	r3, #4294967295
  40148c:	d115      	bne.n	4014ba <xQueueGenericSendFromISR+0xc6>
  40148e:	6d63      	ldr	r3, [r4, #84]	; 0x54
  401490:	b143      	cbz	r3, 4014a4 <xQueueGenericSendFromISR+0xb0>
  401492:	4631      	mov	r1, r6
  401494:	4620      	mov	r0, r4
  401496:	4b13      	ldr	r3, [pc, #76]	; (4014e4 <xQueueGenericSendFromISR+0xf0>)
  401498:	4798      	blx	r3
  40149a:	b1ad      	cbz	r5, 4014c8 <xQueueGenericSendFromISR+0xd4>
  40149c:	2801      	cmp	r0, #1
  40149e:	d113      	bne.n	4014c8 <xQueueGenericSendFromISR+0xd4>
  4014a0:	6028      	str	r0, [r5, #0]
  4014a2:	e016      	b.n	4014d2 <xQueueGenericSendFromISR+0xde>
  4014a4:	6a63      	ldr	r3, [r4, #36]	; 0x24
  4014a6:	b18b      	cbz	r3, 4014cc <xQueueGenericSendFromISR+0xd8>
  4014a8:	f104 0024 	add.w	r0, r4, #36	; 0x24
  4014ac:	4b0e      	ldr	r3, [pc, #56]	; (4014e8 <xQueueGenericSendFromISR+0xf4>)
  4014ae:	4798      	blx	r3
  4014b0:	b175      	cbz	r5, 4014d0 <xQueueGenericSendFromISR+0xdc>
  4014b2:	b168      	cbz	r0, 4014d0 <xQueueGenericSendFromISR+0xdc>
  4014b4:	2001      	movs	r0, #1
  4014b6:	6028      	str	r0, [r5, #0]
  4014b8:	e00b      	b.n	4014d2 <xQueueGenericSendFromISR+0xde>
  4014ba:	6ca3      	ldr	r3, [r4, #72]	; 0x48
  4014bc:	3301      	adds	r3, #1
  4014be:	64a3      	str	r3, [r4, #72]	; 0x48
  4014c0:	2001      	movs	r0, #1
  4014c2:	e006      	b.n	4014d2 <xQueueGenericSendFromISR+0xde>
  4014c4:	2000      	movs	r0, #0
  4014c6:	e004      	b.n	4014d2 <xQueueGenericSendFromISR+0xde>
  4014c8:	2001      	movs	r0, #1
  4014ca:	e002      	b.n	4014d2 <xQueueGenericSendFromISR+0xde>
  4014cc:	2001      	movs	r0, #1
  4014ce:	e000      	b.n	4014d2 <xQueueGenericSendFromISR+0xde>
  4014d0:	2001      	movs	r0, #1
  4014d2:	f387 8811 	msr	BASEPRI, r7
  4014d6:	e8bd 81f0 	ldmia.w	sp!, {r4, r5, r6, r7, r8, pc}
  4014da:	bf00      	nop
  4014dc:	00400e21 	.word	0x00400e21
  4014e0:	00400ed9 	.word	0x00400ed9
  4014e4:	00400f61 	.word	0x00400f61
  4014e8:	00402149 	.word	0x00402149

004014ec <xQueueGenericReceive>:
  4014ec:	e92d 4ff0 	stmdb	sp!, {r4, r5, r6, r7, r8, r9, sl, fp, lr}
  4014f0:	b085      	sub	sp, #20
  4014f2:	9201      	str	r2, [sp, #4]
  4014f4:	b950      	cbnz	r0, 40150c <xQueueGenericReceive+0x20>
  4014f6:	f04f 0380 	mov.w	r3, #128	; 0x80
  4014fa:	b672      	cpsid	i
  4014fc:	f383 8811 	msr	BASEPRI, r3
  401500:	f3bf 8f6f 	isb	sy
  401504:	f3bf 8f4f 	dsb	sy
  401508:	b662      	cpsie	i
  40150a:	e7fe      	b.n	40150a <xQueueGenericReceive+0x1e>
  40150c:	4604      	mov	r4, r0
  40150e:	b961      	cbnz	r1, 40152a <xQueueGenericReceive+0x3e>
  401510:	6c02      	ldr	r2, [r0, #64]	; 0x40
  401512:	b152      	cbz	r2, 40152a <xQueueGenericReceive+0x3e>
  401514:	f04f 0380 	mov.w	r3, #128	; 0x80
  401518:	b672      	cpsid	i
  40151a:	f383 8811 	msr	BASEPRI, r3
  40151e:	f3bf 8f6f 	isb	sy
  401522:	f3bf 8f4f 	dsb	sy
  401526:	b662      	cpsie	i
  401528:	e7fe      	b.n	401528 <xQueueGenericReceive+0x3c>
  40152a:	4698      	mov	r8, r3
  40152c:	468b      	mov	fp, r1
  40152e:	4b52      	ldr	r3, [pc, #328]	; (401678 <xQueueGenericReceive+0x18c>)
  401530:	4798      	blx	r3
  401532:	b960      	cbnz	r0, 40154e <xQueueGenericReceive+0x62>
  401534:	9b01      	ldr	r3, [sp, #4]
  401536:	b163      	cbz	r3, 401552 <xQueueGenericReceive+0x66>
  401538:	f04f 0380 	mov.w	r3, #128	; 0x80
  40153c:	b672      	cpsid	i
  40153e:	f383 8811 	msr	BASEPRI, r3
  401542:	f3bf 8f6f 	isb	sy
  401546:	f3bf 8f4f 	dsb	sy
  40154a:	b662      	cpsie	i
  40154c:	e7fe      	b.n	40154c <xQueueGenericReceive+0x60>
  40154e:	2600      	movs	r6, #0
  401550:	e000      	b.n	401554 <xQueueGenericReceive+0x68>
  401552:	2600      	movs	r6, #0
  401554:	4d49      	ldr	r5, [pc, #292]	; (40167c <xQueueGenericReceive+0x190>)
  401556:	f8df a154 	ldr.w	sl, [pc, #340]	; 4016ac <xQueueGenericReceive+0x1c0>
  40155a:	f8df 9130 	ldr.w	r9, [pc, #304]	; 40168c <xQueueGenericReceive+0x1a0>
  40155e:	47a8      	blx	r5
  401560:	6ba3      	ldr	r3, [r4, #56]	; 0x38
  401562:	2b00      	cmp	r3, #0
  401564:	d034      	beq.n	4015d0 <xQueueGenericReceive+0xe4>
  401566:	68e5      	ldr	r5, [r4, #12]
  401568:	4659      	mov	r1, fp
  40156a:	4620      	mov	r0, r4
  40156c:	4b44      	ldr	r3, [pc, #272]	; (401680 <xQueueGenericReceive+0x194>)
  40156e:	4798      	blx	r3
  401570:	f1b8 0f00 	cmp.w	r8, #0
  401574:	d118      	bne.n	4015a8 <xQueueGenericReceive+0xbc>
  401576:	6ba3      	ldr	r3, [r4, #56]	; 0x38
  401578:	3b01      	subs	r3, #1
  40157a:	63a3      	str	r3, [r4, #56]	; 0x38
  40157c:	6823      	ldr	r3, [r4, #0]
  40157e:	b913      	cbnz	r3, 401586 <xQueueGenericReceive+0x9a>
  401580:	4b40      	ldr	r3, [pc, #256]	; (401684 <xQueueGenericReceive+0x198>)
  401582:	4798      	blx	r3
  401584:	6060      	str	r0, [r4, #4]
  401586:	6923      	ldr	r3, [r4, #16]
  401588:	b1f3      	cbz	r3, 4015c8 <xQueueGenericReceive+0xdc>
  40158a:	f104 0010 	add.w	r0, r4, #16
  40158e:	4b3e      	ldr	r3, [pc, #248]	; (401688 <xQueueGenericReceive+0x19c>)
  401590:	4798      	blx	r3
  401592:	2801      	cmp	r0, #1
  401594:	d118      	bne.n	4015c8 <xQueueGenericReceive+0xdc>
  401596:	f04f 5280 	mov.w	r2, #268435456	; 0x10000000
  40159a:	4b3c      	ldr	r3, [pc, #240]	; (40168c <xQueueGenericReceive+0x1a0>)
  40159c:	601a      	str	r2, [r3, #0]
  40159e:	f3bf 8f4f 	dsb	sy
  4015a2:	f3bf 8f6f 	isb	sy
  4015a6:	e00f      	b.n	4015c8 <xQueueGenericReceive+0xdc>
  4015a8:	60e5      	str	r5, [r4, #12]
  4015aa:	6a63      	ldr	r3, [r4, #36]	; 0x24
  4015ac:	b163      	cbz	r3, 4015c8 <xQueueGenericReceive+0xdc>
  4015ae:	f104 0024 	add.w	r0, r4, #36	; 0x24
  4015b2:	4b35      	ldr	r3, [pc, #212]	; (401688 <xQueueGenericReceive+0x19c>)
  4015b4:	4798      	blx	r3
  4015b6:	b138      	cbz	r0, 4015c8 <xQueueGenericReceive+0xdc>
  4015b8:	f04f 5280 	mov.w	r2, #268435456	; 0x10000000
  4015bc:	4b33      	ldr	r3, [pc, #204]	; (40168c <xQueueGenericReceive+0x1a0>)
  4015be:	601a      	str	r2, [r3, #0]
  4015c0:	f3bf 8f4f 	dsb	sy
  4015c4:	f3bf 8f6f 	isb	sy
  4015c8:	4b31      	ldr	r3, [pc, #196]	; (401690 <xQueueGenericReceive+0x1a4>)
  4015ca:	4798      	blx	r3
  4015cc:	2001      	movs	r0, #1
  4015ce:	e04f      	b.n	401670 <xQueueGenericReceive+0x184>
  4015d0:	9b01      	ldr	r3, [sp, #4]
  4015d2:	b91b      	cbnz	r3, 4015dc <xQueueGenericReceive+0xf0>
  4015d4:	4b2e      	ldr	r3, [pc, #184]	; (401690 <xQueueGenericReceive+0x1a4>)
  4015d6:	4798      	blx	r3
  4015d8:	2000      	movs	r0, #0
  4015da:	e049      	b.n	401670 <xQueueGenericReceive+0x184>
  4015dc:	b916      	cbnz	r6, 4015e4 <xQueueGenericReceive+0xf8>
  4015de:	a802      	add	r0, sp, #8
  4015e0:	47d0      	blx	sl
  4015e2:	2601      	movs	r6, #1
  4015e4:	4b2a      	ldr	r3, [pc, #168]	; (401690 <xQueueGenericReceive+0x1a4>)
  4015e6:	4798      	blx	r3
  4015e8:	4b2a      	ldr	r3, [pc, #168]	; (401694 <xQueueGenericReceive+0x1a8>)
  4015ea:	4798      	blx	r3
  4015ec:	47a8      	blx	r5
  4015ee:	6c63      	ldr	r3, [r4, #68]	; 0x44
  4015f0:	f1b3 3fff 	cmp.w	r3, #4294967295
  4015f4:	d101      	bne.n	4015fa <xQueueGenericReceive+0x10e>
  4015f6:	2300      	movs	r3, #0
  4015f8:	6463      	str	r3, [r4, #68]	; 0x44
  4015fa:	6ca3      	ldr	r3, [r4, #72]	; 0x48
  4015fc:	f1b3 3fff 	cmp.w	r3, #4294967295
  401600:	d101      	bne.n	401606 <xQueueGenericReceive+0x11a>
  401602:	2300      	movs	r3, #0
  401604:	64a3      	str	r3, [r4, #72]	; 0x48
  401606:	4b22      	ldr	r3, [pc, #136]	; (401690 <xQueueGenericReceive+0x1a4>)
  401608:	4798      	blx	r3
  40160a:	a901      	add	r1, sp, #4
  40160c:	a802      	add	r0, sp, #8
  40160e:	4b22      	ldr	r3, [pc, #136]	; (401698 <xQueueGenericReceive+0x1ac>)
  401610:	4798      	blx	r3
  401612:	bb38      	cbnz	r0, 401664 <xQueueGenericReceive+0x178>
  401614:	47a8      	blx	r5
  401616:	6ba7      	ldr	r7, [r4, #56]	; 0x38
  401618:	4b1d      	ldr	r3, [pc, #116]	; (401690 <xQueueGenericReceive+0x1a4>)
  40161a:	4798      	blx	r3
  40161c:	b9e7      	cbnz	r7, 401658 <xQueueGenericReceive+0x16c>
  40161e:	6823      	ldr	r3, [r4, #0]
  401620:	b92b      	cbnz	r3, 40162e <xQueueGenericReceive+0x142>
  401622:	47a8      	blx	r5
  401624:	6860      	ldr	r0, [r4, #4]
  401626:	4b1d      	ldr	r3, [pc, #116]	; (40169c <xQueueGenericReceive+0x1b0>)
  401628:	4798      	blx	r3
  40162a:	4b19      	ldr	r3, [pc, #100]	; (401690 <xQueueGenericReceive+0x1a4>)
  40162c:	4798      	blx	r3
  40162e:	9901      	ldr	r1, [sp, #4]
  401630:	f104 0024 	add.w	r0, r4, #36	; 0x24
  401634:	4b1a      	ldr	r3, [pc, #104]	; (4016a0 <xQueueGenericReceive+0x1b4>)
  401636:	4798      	blx	r3
  401638:	4620      	mov	r0, r4
  40163a:	4b1a      	ldr	r3, [pc, #104]	; (4016a4 <xQueueGenericReceive+0x1b8>)
  40163c:	4798      	blx	r3
  40163e:	4b1a      	ldr	r3, [pc, #104]	; (4016a8 <xQueueGenericReceive+0x1bc>)
  401640:	4798      	blx	r3
  401642:	2800      	cmp	r0, #0
  401644:	d18b      	bne.n	40155e <xQueueGenericReceive+0x72>
  401646:	f04f 5380 	mov.w	r3, #268435456	; 0x10000000
  40164a:	f8c9 3000 	str.w	r3, [r9]
  40164e:	f3bf 8f4f 	dsb	sy
  401652:	f3bf 8f6f 	isb	sy
  401656:	e782      	b.n	40155e <xQueueGenericReceive+0x72>
  401658:	4620      	mov	r0, r4
  40165a:	4b12      	ldr	r3, [pc, #72]	; (4016a4 <xQueueGenericReceive+0x1b8>)
  40165c:	4798      	blx	r3
  40165e:	4b12      	ldr	r3, [pc, #72]	; (4016a8 <xQueueGenericReceive+0x1bc>)
  401660:	4798      	blx	r3
  401662:	e77c      	b.n	40155e <xQueueGenericReceive+0x72>
  401664:	4620      	mov	r0, r4
  401666:	4b0f      	ldr	r3, [pc, #60]	; (4016a4 <xQueueGenericReceive+0x1b8>)
  401668:	4798      	blx	r3
  40166a:	4b0f      	ldr	r3, [pc, #60]	; (4016a8 <xQueueGenericReceive+0x1bc>)
  40166c:	4798      	blx	r3
  40166e:	2000      	movs	r0, #0
  401670:	b005      	add	sp, #20
  401672:	e8bd 8ff0 	ldmia.w	sp!, {r4, r5, r6, r7, r8, r9, sl, fp, pc}
  401676:	bf00      	nop
  401678:	004022b1 	.word	0x004022b1
  40167c:	00400c29 	.word	0x00400c29
  401680:	00400fe5 	.word	0x00400fe5
  401684:	00402539 	.word	0x00402539
  401688:	00402149 	.word	0x00402149
  40168c:	e000ed04 	.word	0xe000ed04
  401690:	00400c75 	.word	0x00400c75
  401694:	00401b25 	.word	0x00401b25
  401698:	00402211 	.word	0x00402211
  40169c:	004022d1 	.word	0x004022d1
  4016a0:	00402045 	.word	0x00402045
  4016a4:	0040100d 	.word	0x0040100d
  4016a8:	00401c95 	.word	0x00401c95
  4016ac:	004021e1 	.word	0x004021e1

004016b0 <vQueueAddToRegistry>:
  4016b0:	b410      	push	{r4}
  4016b2:	4b0b      	ldr	r3, [pc, #44]	; (4016e0 <vQueueAddToRegistry+0x30>)
  4016b4:	681b      	ldr	r3, [r3, #0]
  4016b6:	b12b      	cbz	r3, 4016c4 <vQueueAddToRegistry+0x14>
  4016b8:	2301      	movs	r3, #1
  4016ba:	4c09      	ldr	r4, [pc, #36]	; (4016e0 <vQueueAddToRegistry+0x30>)
  4016bc:	f854 2033 	ldr.w	r2, [r4, r3, lsl #3]
  4016c0:	b942      	cbnz	r2, 4016d4 <vQueueAddToRegistry+0x24>
  4016c2:	e000      	b.n	4016c6 <vQueueAddToRegistry+0x16>
  4016c4:	2300      	movs	r3, #0
  4016c6:	4a06      	ldr	r2, [pc, #24]	; (4016e0 <vQueueAddToRegistry+0x30>)
  4016c8:	f842 1033 	str.w	r1, [r2, r3, lsl #3]
  4016cc:	eb02 03c3 	add.w	r3, r2, r3, lsl #3
  4016d0:	6058      	str	r0, [r3, #4]
  4016d2:	e002      	b.n	4016da <vQueueAddToRegistry+0x2a>
  4016d4:	3301      	adds	r3, #1
  4016d6:	2b08      	cmp	r3, #8
  4016d8:	d1f0      	bne.n	4016bc <vQueueAddToRegistry+0xc>
  4016da:	f85d 4b04 	ldr.w	r4, [sp], #4
  4016de:	4770      	bx	lr
  4016e0:	20400bd4 	.word	0x20400bd4

004016e4 <vQueueWaitForMessageRestricted>:
  4016e4:	b570      	push	{r4, r5, r6, lr}
  4016e6:	4604      	mov	r4, r0
  4016e8:	460d      	mov	r5, r1
  4016ea:	4616      	mov	r6, r2
  4016ec:	4b0d      	ldr	r3, [pc, #52]	; (401724 <vQueueWaitForMessageRestricted+0x40>)
  4016ee:	4798      	blx	r3
  4016f0:	6c63      	ldr	r3, [r4, #68]	; 0x44
  4016f2:	f1b3 3fff 	cmp.w	r3, #4294967295
  4016f6:	d101      	bne.n	4016fc <vQueueWaitForMessageRestricted+0x18>
  4016f8:	2300      	movs	r3, #0
  4016fa:	6463      	str	r3, [r4, #68]	; 0x44
  4016fc:	6ca3      	ldr	r3, [r4, #72]	; 0x48
  4016fe:	f1b3 3fff 	cmp.w	r3, #4294967295
  401702:	d101      	bne.n	401708 <vQueueWaitForMessageRestricted+0x24>
  401704:	2300      	movs	r3, #0
  401706:	64a3      	str	r3, [r4, #72]	; 0x48
  401708:	4b07      	ldr	r3, [pc, #28]	; (401728 <vQueueWaitForMessageRestricted+0x44>)
  40170a:	4798      	blx	r3
  40170c:	6ba3      	ldr	r3, [r4, #56]	; 0x38
  40170e:	b92b      	cbnz	r3, 40171c <vQueueWaitForMessageRestricted+0x38>
  401710:	4632      	mov	r2, r6
  401712:	4629      	mov	r1, r5
  401714:	f104 0024 	add.w	r0, r4, #36	; 0x24
  401718:	4b04      	ldr	r3, [pc, #16]	; (40172c <vQueueWaitForMessageRestricted+0x48>)
  40171a:	4798      	blx	r3
  40171c:	4620      	mov	r0, r4
  40171e:	4b04      	ldr	r3, [pc, #16]	; (401730 <vQueueWaitForMessageRestricted+0x4c>)
  401720:	4798      	blx	r3
  401722:	bd70      	pop	{r4, r5, r6, pc}
  401724:	00400c29 	.word	0x00400c29
  401728:	00400c75 	.word	0x00400c75
  40172c:	004020c9 	.word	0x004020c9
  401730:	0040100d 	.word	0x0040100d

00401734 <prvListTaskWithinSingleList>:
  401734:	680b      	ldr	r3, [r1, #0]
  401736:	2b00      	cmp	r3, #0
  401738:	d054      	beq.n	4017e4 <prvListTaskWithinSingleList+0xb0>
  40173a:	e92d 4ff0 	stmdb	sp!, {r4, r5, r6, r7, r8, r9, sl, fp, lr}
  40173e:	684b      	ldr	r3, [r1, #4]
  401740:	685b      	ldr	r3, [r3, #4]
  401742:	604b      	str	r3, [r1, #4]
  401744:	f101 0e08 	add.w	lr, r1, #8
  401748:	4573      	cmp	r3, lr
  40174a:	d101      	bne.n	401750 <prvListTaskWithinSingleList+0x1c>
  40174c:	685b      	ldr	r3, [r3, #4]
  40174e:	604b      	str	r3, [r1, #4]
  401750:	684b      	ldr	r3, [r1, #4]
  401752:	f8d3 c00c 	ldr.w	ip, [r3, #12]
  401756:	f100 061c 	add.w	r6, r0, #28
  40175a:	2000      	movs	r0, #0
  40175c:	f04f 0802 	mov.w	r8, #2
  401760:	4607      	mov	r7, r0
  401762:	684b      	ldr	r3, [r1, #4]
  401764:	685b      	ldr	r3, [r3, #4]
  401766:	604b      	str	r3, [r1, #4]
  401768:	459e      	cmp	lr, r3
  40176a:	d101      	bne.n	401770 <prvListTaskWithinSingleList+0x3c>
  40176c:	68cb      	ldr	r3, [r1, #12]
  40176e:	604b      	str	r3, [r1, #4]
  401770:	684b      	ldr	r3, [r1, #4]
  401772:	f8d3 900c 	ldr.w	r9, [r3, #12]
  401776:	46b2      	mov	sl, r6
  401778:	f846 9c1c 	str.w	r9, [r6, #-28]
  40177c:	f109 0334 	add.w	r3, r9, #52	; 0x34
  401780:	f846 3c18 	str.w	r3, [r6, #-24]
  401784:	f8d9 3040 	ldr.w	r3, [r9, #64]	; 0x40
  401788:	f846 3c14 	str.w	r3, [r6, #-20]
  40178c:	f806 2c10 	strb.w	r2, [r6, #-16]
  401790:	f8d9 302c 	ldr.w	r3, [r9, #44]	; 0x2c
  401794:	f846 3c0c 	str.w	r3, [r6, #-12]
  401798:	2a03      	cmp	r2, #3
  40179a:	d104      	bne.n	4017a6 <prvListTaskWithinSingleList+0x72>
  40179c:	f8d9 3028 	ldr.w	r3, [r9, #40]	; 0x28
  4017a0:	b10b      	cbz	r3, 4017a6 <prvListTaskWithinSingleList+0x72>
  4017a2:	f806 8c10 	strb.w	r8, [r6, #-16]
  4017a6:	f8d9 3048 	ldr.w	r3, [r9, #72]	; 0x48
  4017aa:	f84a 3c08 	str.w	r3, [sl, #-8]
  4017ae:	f84a 7c04 	str.w	r7, [sl, #-4]
  4017b2:	f8d9 b030 	ldr.w	fp, [r9, #48]	; 0x30
  4017b6:	f89b 3000 	ldrb.w	r3, [fp]
  4017ba:	2ba5      	cmp	r3, #165	; 0xa5
  4017bc:	d108      	bne.n	4017d0 <prvListTaskWithinSingleList+0x9c>
  4017be:	f10b 0301 	add.w	r3, fp, #1
  4017c2:	ebcb 0503 	rsb	r5, fp, r3
  4017c6:	f813 4b01 	ldrb.w	r4, [r3], #1
  4017ca:	2ca5      	cmp	r4, #165	; 0xa5
  4017cc:	d0f9      	beq.n	4017c2 <prvListTaskWithinSingleList+0x8e>
  4017ce:	e000      	b.n	4017d2 <prvListTaskWithinSingleList+0x9e>
  4017d0:	463d      	mov	r5, r7
  4017d2:	08ad      	lsrs	r5, r5, #2
  4017d4:	f8aa 5000 	strh.w	r5, [sl]
  4017d8:	3001      	adds	r0, #1
  4017da:	3620      	adds	r6, #32
  4017dc:	45cc      	cmp	ip, r9
  4017de:	d1c0      	bne.n	401762 <prvListTaskWithinSingleList+0x2e>
  4017e0:	e8bd 8ff0 	ldmia.w	sp!, {r4, r5, r6, r7, r8, r9, sl, fp, pc}
  4017e4:	2000      	movs	r0, #0
  4017e6:	4770      	bx	lr

004017e8 <prvResetNextTaskUnblockTime>:
  4017e8:	4b08      	ldr	r3, [pc, #32]	; (40180c <prvResetNextTaskUnblockTime+0x24>)
  4017ea:	681b      	ldr	r3, [r3, #0]
  4017ec:	681b      	ldr	r3, [r3, #0]
  4017ee:	b923      	cbnz	r3, 4017fa <prvResetNextTaskUnblockTime+0x12>
  4017f0:	f04f 32ff 	mov.w	r2, #4294967295
  4017f4:	4b06      	ldr	r3, [pc, #24]	; (401810 <prvResetNextTaskUnblockTime+0x28>)
  4017f6:	601a      	str	r2, [r3, #0]
  4017f8:	4770      	bx	lr
  4017fa:	4b04      	ldr	r3, [pc, #16]	; (40180c <prvResetNextTaskUnblockTime+0x24>)
  4017fc:	681b      	ldr	r3, [r3, #0]
  4017fe:	68db      	ldr	r3, [r3, #12]
  401800:	68db      	ldr	r3, [r3, #12]
  401802:	685a      	ldr	r2, [r3, #4]
  401804:	4b02      	ldr	r3, [pc, #8]	; (401810 <prvResetNextTaskUnblockTime+0x28>)
  401806:	601a      	str	r2, [r3, #0]
  401808:	4770      	bx	lr
  40180a:	bf00      	nop
  40180c:	2040094c 	.word	0x2040094c
  401810:	20400a0c 	.word	0x20400a0c

00401814 <prvAddCurrentTaskToDelayedList>:
  401814:	b510      	push	{r4, lr}
  401816:	4b0f      	ldr	r3, [pc, #60]	; (401854 <prvAddCurrentTaskToDelayedList+0x40>)
  401818:	681b      	ldr	r3, [r3, #0]
  40181a:	6058      	str	r0, [r3, #4]
  40181c:	4b0e      	ldr	r3, [pc, #56]	; (401858 <prvAddCurrentTaskToDelayedList+0x44>)
  40181e:	681b      	ldr	r3, [r3, #0]
  401820:	4298      	cmp	r0, r3
  401822:	d207      	bcs.n	401834 <prvAddCurrentTaskToDelayedList+0x20>
  401824:	4b0d      	ldr	r3, [pc, #52]	; (40185c <prvAddCurrentTaskToDelayedList+0x48>)
  401826:	6818      	ldr	r0, [r3, #0]
  401828:	4b0a      	ldr	r3, [pc, #40]	; (401854 <prvAddCurrentTaskToDelayedList+0x40>)
  40182a:	6819      	ldr	r1, [r3, #0]
  40182c:	3104      	adds	r1, #4
  40182e:	4b0c      	ldr	r3, [pc, #48]	; (401860 <prvAddCurrentTaskToDelayedList+0x4c>)
  401830:	4798      	blx	r3
  401832:	bd10      	pop	{r4, pc}
  401834:	4604      	mov	r4, r0
  401836:	4b0b      	ldr	r3, [pc, #44]	; (401864 <prvAddCurrentTaskToDelayedList+0x50>)
  401838:	6818      	ldr	r0, [r3, #0]
  40183a:	4b06      	ldr	r3, [pc, #24]	; (401854 <prvAddCurrentTaskToDelayedList+0x40>)
  40183c:	6819      	ldr	r1, [r3, #0]
  40183e:	3104      	adds	r1, #4
  401840:	4b07      	ldr	r3, [pc, #28]	; (401860 <prvAddCurrentTaskToDelayedList+0x4c>)
  401842:	4798      	blx	r3
  401844:	4b08      	ldr	r3, [pc, #32]	; (401868 <prvAddCurrentTaskToDelayedList+0x54>)
  401846:	681b      	ldr	r3, [r3, #0]
  401848:	429c      	cmp	r4, r3
  40184a:	d201      	bcs.n	401850 <prvAddCurrentTaskToDelayedList+0x3c>
  40184c:	4b06      	ldr	r3, [pc, #24]	; (401868 <prvAddCurrentTaskToDelayedList+0x54>)
  40184e:	601c      	str	r4, [r3, #0]
  401850:	bd10      	pop	{r4, pc}
  401852:	bf00      	nop
  401854:	204009ec 	.word	0x204009ec
  401858:	20400a08 	.word	0x20400a08
  40185c:	2040096c 	.word	0x2040096c
  401860:	00400b15 	.word	0x00400b15
  401864:	2040094c 	.word	0x2040094c
  401868:	20400a0c 	.word	0x20400a0c

0040186c <xTaskGenericCreate>:
  40186c:	e92d 4ff0 	stmdb	sp!, {r4, r5, r6, r7, r8, r9, sl, fp, lr}
  401870:	b083      	sub	sp, #12
  401872:	9f0c      	ldr	r7, [sp, #48]	; 0x30
  401874:	f8dd a034 	ldr.w	sl, [sp, #52]	; 0x34
  401878:	9d0e      	ldr	r5, [sp, #56]	; 0x38
  40187a:	b950      	cbnz	r0, 401892 <xTaskGenericCreate+0x26>
  40187c:	f04f 0380 	mov.w	r3, #128	; 0x80
  401880:	b672      	cpsid	i
  401882:	f383 8811 	msr	BASEPRI, r3
  401886:	f3bf 8f6f 	isb	sy
  40188a:	f3bf 8f4f 	dsb	sy
  40188e:	b662      	cpsie	i
  401890:	e7fe      	b.n	401890 <xTaskGenericCreate+0x24>
  401892:	2f04      	cmp	r7, #4
  401894:	d90a      	bls.n	4018ac <xTaskGenericCreate+0x40>
  401896:	f04f 0380 	mov.w	r3, #128	; 0x80
  40189a:	b672      	cpsid	i
  40189c:	f383 8811 	msr	BASEPRI, r3
  4018a0:	f3bf 8f6f 	isb	sy
  4018a4:	f3bf 8f4f 	dsb	sy
  4018a8:	b662      	cpsie	i
  4018aa:	e7fe      	b.n	4018aa <xTaskGenericCreate+0x3e>
  4018ac:	9001      	str	r0, [sp, #4]
  4018ae:	9300      	str	r3, [sp, #0]
  4018b0:	4690      	mov	r8, r2
  4018b2:	460e      	mov	r6, r1
  4018b4:	b935      	cbnz	r5, 4018c4 <xTaskGenericCreate+0x58>
  4018b6:	0090      	lsls	r0, r2, #2
  4018b8:	4b5f      	ldr	r3, [pc, #380]	; (401a38 <xTaskGenericCreate+0x1cc>)
  4018ba:	4798      	blx	r3
  4018bc:	4605      	mov	r5, r0
  4018be:	2800      	cmp	r0, #0
  4018c0:	f000 80b4 	beq.w	401a2c <xTaskGenericCreate+0x1c0>
  4018c4:	2058      	movs	r0, #88	; 0x58
  4018c6:	4b5c      	ldr	r3, [pc, #368]	; (401a38 <xTaskGenericCreate+0x1cc>)
  4018c8:	4798      	blx	r3
  4018ca:	4604      	mov	r4, r0
  4018cc:	b1a0      	cbz	r0, 4018f8 <xTaskGenericCreate+0x8c>
  4018ce:	6305      	str	r5, [r0, #48]	; 0x30
  4018d0:	ea4f 0288 	mov.w	r2, r8, lsl #2
  4018d4:	21a5      	movs	r1, #165	; 0xa5
  4018d6:	4628      	mov	r0, r5
  4018d8:	4b58      	ldr	r3, [pc, #352]	; (401a3c <xTaskGenericCreate+0x1d0>)
  4018da:	4798      	blx	r3
  4018dc:	f06f 4540 	mvn.w	r5, #3221225472	; 0xc0000000
  4018e0:	4445      	add	r5, r8
  4018e2:	6b23      	ldr	r3, [r4, #48]	; 0x30
  4018e4:	eb03 0385 	add.w	r3, r3, r5, lsl #2
  4018e8:	f023 0507 	bic.w	r5, r3, #7
  4018ec:	7833      	ldrb	r3, [r6, #0]
  4018ee:	f884 3034 	strb.w	r3, [r4, #52]	; 0x34
  4018f2:	7833      	ldrb	r3, [r6, #0]
  4018f4:	b923      	cbnz	r3, 401900 <xTaskGenericCreate+0x94>
  4018f6:	e00f      	b.n	401918 <xTaskGenericCreate+0xac>
  4018f8:	4628      	mov	r0, r5
  4018fa:	4b51      	ldr	r3, [pc, #324]	; (401a40 <xTaskGenericCreate+0x1d4>)
  4018fc:	4798      	blx	r3
  4018fe:	e095      	b.n	401a2c <xTaskGenericCreate+0x1c0>
  401900:	4633      	mov	r3, r6
  401902:	f104 0234 	add.w	r2, r4, #52	; 0x34
  401906:	3609      	adds	r6, #9
  401908:	f813 1f01 	ldrb.w	r1, [r3, #1]!
  40190c:	f802 1f01 	strb.w	r1, [r2, #1]!
  401910:	7819      	ldrb	r1, [r3, #0]
  401912:	b109      	cbz	r1, 401918 <xTaskGenericCreate+0xac>
  401914:	429e      	cmp	r6, r3
  401916:	d1f7      	bne.n	401908 <xTaskGenericCreate+0x9c>
  401918:	f04f 0800 	mov.w	r8, #0
  40191c:	f884 803d 	strb.w	r8, [r4, #61]	; 0x3d
  401920:	463e      	mov	r6, r7
  401922:	2f04      	cmp	r7, #4
  401924:	bf28      	it	cs
  401926:	2604      	movcs	r6, #4
  401928:	62e6      	str	r6, [r4, #44]	; 0x2c
  40192a:	64a6      	str	r6, [r4, #72]	; 0x48
  40192c:	f8c4 804c 	str.w	r8, [r4, #76]	; 0x4c
  401930:	f104 0904 	add.w	r9, r4, #4
  401934:	4648      	mov	r0, r9
  401936:	f8df b154 	ldr.w	fp, [pc, #340]	; 401a8c <xTaskGenericCreate+0x220>
  40193a:	47d8      	blx	fp
  40193c:	f104 0018 	add.w	r0, r4, #24
  401940:	47d8      	blx	fp
  401942:	6124      	str	r4, [r4, #16]
  401944:	f1c6 0605 	rsb	r6, r6, #5
  401948:	61a6      	str	r6, [r4, #24]
  40194a:	6264      	str	r4, [r4, #36]	; 0x24
  40194c:	f8c4 8050 	str.w	r8, [r4, #80]	; 0x50
  401950:	f884 8054 	strb.w	r8, [r4, #84]	; 0x54
  401954:	9a00      	ldr	r2, [sp, #0]
  401956:	9901      	ldr	r1, [sp, #4]
  401958:	4628      	mov	r0, r5
  40195a:	4b3a      	ldr	r3, [pc, #232]	; (401a44 <xTaskGenericCreate+0x1d8>)
  40195c:	4798      	blx	r3
  40195e:	6020      	str	r0, [r4, #0]
  401960:	f1ba 0f00 	cmp.w	sl, #0
  401964:	d001      	beq.n	40196a <xTaskGenericCreate+0xfe>
  401966:	f8ca 4000 	str.w	r4, [sl]
  40196a:	4b37      	ldr	r3, [pc, #220]	; (401a48 <xTaskGenericCreate+0x1dc>)
  40196c:	4798      	blx	r3
  40196e:	4a37      	ldr	r2, [pc, #220]	; (401a4c <xTaskGenericCreate+0x1e0>)
  401970:	6813      	ldr	r3, [r2, #0]
  401972:	3301      	adds	r3, #1
  401974:	6013      	str	r3, [r2, #0]
  401976:	4b36      	ldr	r3, [pc, #216]	; (401a50 <xTaskGenericCreate+0x1e4>)
  401978:	681b      	ldr	r3, [r3, #0]
  40197a:	bb0b      	cbnz	r3, 4019c0 <xTaskGenericCreate+0x154>
  40197c:	4b34      	ldr	r3, [pc, #208]	; (401a50 <xTaskGenericCreate+0x1e4>)
  40197e:	601c      	str	r4, [r3, #0]
  401980:	6813      	ldr	r3, [r2, #0]
  401982:	2b01      	cmp	r3, #1
  401984:	d126      	bne.n	4019d4 <xTaskGenericCreate+0x168>
  401986:	4d33      	ldr	r5, [pc, #204]	; (401a54 <xTaskGenericCreate+0x1e8>)
  401988:	f105 0864 	add.w	r8, r5, #100	; 0x64
  40198c:	4e32      	ldr	r6, [pc, #200]	; (401a58 <xTaskGenericCreate+0x1ec>)
  40198e:	4628      	mov	r0, r5
  401990:	47b0      	blx	r6
  401992:	3514      	adds	r5, #20
  401994:	4545      	cmp	r5, r8
  401996:	d1fa      	bne.n	40198e <xTaskGenericCreate+0x122>
  401998:	f8df 80f4 	ldr.w	r8, [pc, #244]	; 401a90 <xTaskGenericCreate+0x224>
  40199c:	4640      	mov	r0, r8
  40199e:	4d2e      	ldr	r5, [pc, #184]	; (401a58 <xTaskGenericCreate+0x1ec>)
  4019a0:	47a8      	blx	r5
  4019a2:	4e2e      	ldr	r6, [pc, #184]	; (401a5c <xTaskGenericCreate+0x1f0>)
  4019a4:	4630      	mov	r0, r6
  4019a6:	47a8      	blx	r5
  4019a8:	482d      	ldr	r0, [pc, #180]	; (401a60 <xTaskGenericCreate+0x1f4>)
  4019aa:	47a8      	blx	r5
  4019ac:	482d      	ldr	r0, [pc, #180]	; (401a64 <xTaskGenericCreate+0x1f8>)
  4019ae:	47a8      	blx	r5
  4019b0:	482d      	ldr	r0, [pc, #180]	; (401a68 <xTaskGenericCreate+0x1fc>)
  4019b2:	47a8      	blx	r5
  4019b4:	4b2d      	ldr	r3, [pc, #180]	; (401a6c <xTaskGenericCreate+0x200>)
  4019b6:	f8c3 8000 	str.w	r8, [r3]
  4019ba:	4b2d      	ldr	r3, [pc, #180]	; (401a70 <xTaskGenericCreate+0x204>)
  4019bc:	601e      	str	r6, [r3, #0]
  4019be:	e009      	b.n	4019d4 <xTaskGenericCreate+0x168>
  4019c0:	4b2c      	ldr	r3, [pc, #176]	; (401a74 <xTaskGenericCreate+0x208>)
  4019c2:	681b      	ldr	r3, [r3, #0]
  4019c4:	b933      	cbnz	r3, 4019d4 <xTaskGenericCreate+0x168>
  4019c6:	4b22      	ldr	r3, [pc, #136]	; (401a50 <xTaskGenericCreate+0x1e4>)
  4019c8:	681b      	ldr	r3, [r3, #0]
  4019ca:	6adb      	ldr	r3, [r3, #44]	; 0x2c
  4019cc:	429f      	cmp	r7, r3
  4019ce:	d301      	bcc.n	4019d4 <xTaskGenericCreate+0x168>
  4019d0:	4b1f      	ldr	r3, [pc, #124]	; (401a50 <xTaskGenericCreate+0x1e4>)
  4019d2:	601c      	str	r4, [r3, #0]
  4019d4:	4a28      	ldr	r2, [pc, #160]	; (401a78 <xTaskGenericCreate+0x20c>)
  4019d6:	6813      	ldr	r3, [r2, #0]
  4019d8:	3301      	adds	r3, #1
  4019da:	6013      	str	r3, [r2, #0]
  4019dc:	6423      	str	r3, [r4, #64]	; 0x40
  4019de:	6ae0      	ldr	r0, [r4, #44]	; 0x2c
  4019e0:	4926      	ldr	r1, [pc, #152]	; (401a7c <xTaskGenericCreate+0x210>)
  4019e2:	680b      	ldr	r3, [r1, #0]
  4019e4:	2201      	movs	r2, #1
  4019e6:	4082      	lsls	r2, r0
  4019e8:	4313      	orrs	r3, r2
  4019ea:	600b      	str	r3, [r1, #0]
  4019ec:	eb00 0080 	add.w	r0, r0, r0, lsl #2
  4019f0:	4649      	mov	r1, r9
  4019f2:	4b18      	ldr	r3, [pc, #96]	; (401a54 <xTaskGenericCreate+0x1e8>)
  4019f4:	eb03 0080 	add.w	r0, r3, r0, lsl #2
  4019f8:	4b21      	ldr	r3, [pc, #132]	; (401a80 <xTaskGenericCreate+0x214>)
  4019fa:	4798      	blx	r3
  4019fc:	4b21      	ldr	r3, [pc, #132]	; (401a84 <xTaskGenericCreate+0x218>)
  4019fe:	4798      	blx	r3
  401a00:	4b1c      	ldr	r3, [pc, #112]	; (401a74 <xTaskGenericCreate+0x208>)
  401a02:	681b      	ldr	r3, [r3, #0]
  401a04:	b173      	cbz	r3, 401a24 <xTaskGenericCreate+0x1b8>
  401a06:	4b12      	ldr	r3, [pc, #72]	; (401a50 <xTaskGenericCreate+0x1e4>)
  401a08:	681b      	ldr	r3, [r3, #0]
  401a0a:	6adb      	ldr	r3, [r3, #44]	; 0x2c
  401a0c:	429f      	cmp	r7, r3
  401a0e:	d90b      	bls.n	401a28 <xTaskGenericCreate+0x1bc>
  401a10:	f04f 5280 	mov.w	r2, #268435456	; 0x10000000
  401a14:	4b1c      	ldr	r3, [pc, #112]	; (401a88 <xTaskGenericCreate+0x21c>)
  401a16:	601a      	str	r2, [r3, #0]
  401a18:	f3bf 8f4f 	dsb	sy
  401a1c:	f3bf 8f6f 	isb	sy
  401a20:	2001      	movs	r0, #1
  401a22:	e005      	b.n	401a30 <xTaskGenericCreate+0x1c4>
  401a24:	2001      	movs	r0, #1
  401a26:	e003      	b.n	401a30 <xTaskGenericCreate+0x1c4>
  401a28:	2001      	movs	r0, #1
  401a2a:	e001      	b.n	401a30 <xTaskGenericCreate+0x1c4>
  401a2c:	f04f 30ff 	mov.w	r0, #4294967295
  401a30:	b003      	add	sp, #12
  401a32:	e8bd 8ff0 	ldmia.w	sp!, {r4, r5, r6, r7, r8, r9, sl, fp, pc}
  401a36:	bf00      	nop
  401a38:	00400e85 	.word	0x00400e85
  401a3c:	0040375d 	.word	0x0040375d
  401a40:	00400eb5 	.word	0x00400eb5
  401a44:	00400bdd 	.word	0x00400bdd
  401a48:	00400c29 	.word	0x00400c29
  401a4c:	20400a14 	.word	0x20400a14
  401a50:	204009ec 	.word	0x204009ec
  401a54:	20400974 	.word	0x20400974
  401a58:	00400add 	.word	0x00400add
  401a5c:	20400a18 	.word	0x20400a18
  401a60:	204009f0 	.word	0x204009f0
  401a64:	204009d8 	.word	0x204009d8
  401a68:	20400a2c 	.word	0x20400a2c
  401a6c:	2040094c 	.word	0x2040094c
  401a70:	2040096c 	.word	0x2040096c
  401a74:	20400950 	.word	0x20400950
  401a78:	20400a10 	.word	0x20400a10
  401a7c:	20400a40 	.word	0x20400a40
  401a80:	00400afd 	.word	0x00400afd
  401a84:	00400c75 	.word	0x00400c75
  401a88:	e000ed04 	.word	0xe000ed04
  401a8c:	00400af5 	.word	0x00400af5
  401a90:	20400958 	.word	0x20400958

00401a94 <vTaskStartScheduler>:
  401a94:	b510      	push	{r4, lr}
  401a96:	b084      	sub	sp, #16
  401a98:	2300      	movs	r3, #0
  401a9a:	9303      	str	r3, [sp, #12]
  401a9c:	9302      	str	r3, [sp, #8]
  401a9e:	9301      	str	r3, [sp, #4]
  401aa0:	9300      	str	r3, [sp, #0]
  401aa2:	2282      	movs	r2, #130	; 0x82
  401aa4:	4917      	ldr	r1, [pc, #92]	; (401b04 <vTaskStartScheduler+0x70>)
  401aa6:	4818      	ldr	r0, [pc, #96]	; (401b08 <vTaskStartScheduler+0x74>)
  401aa8:	4c18      	ldr	r4, [pc, #96]	; (401b0c <vTaskStartScheduler+0x78>)
  401aaa:	47a0      	blx	r4
  401aac:	2801      	cmp	r0, #1
  401aae:	d11a      	bne.n	401ae6 <vTaskStartScheduler+0x52>
  401ab0:	4b17      	ldr	r3, [pc, #92]	; (401b10 <vTaskStartScheduler+0x7c>)
  401ab2:	4798      	blx	r3
  401ab4:	2801      	cmp	r0, #1
  401ab6:	d116      	bne.n	401ae6 <vTaskStartScheduler+0x52>
  401ab8:	f04f 0380 	mov.w	r3, #128	; 0x80
  401abc:	b672      	cpsid	i
  401abe:	f383 8811 	msr	BASEPRI, r3
  401ac2:	f3bf 8f6f 	isb	sy
  401ac6:	f3bf 8f4f 	dsb	sy
  401aca:	b662      	cpsie	i
  401acc:	f04f 32ff 	mov.w	r2, #4294967295
  401ad0:	4b10      	ldr	r3, [pc, #64]	; (401b14 <vTaskStartScheduler+0x80>)
  401ad2:	601a      	str	r2, [r3, #0]
  401ad4:	2201      	movs	r2, #1
  401ad6:	4b10      	ldr	r3, [pc, #64]	; (401b18 <vTaskStartScheduler+0x84>)
  401ad8:	601a      	str	r2, [r3, #0]
  401ada:	2200      	movs	r2, #0
  401adc:	4b0f      	ldr	r3, [pc, #60]	; (401b1c <vTaskStartScheduler+0x88>)
  401ade:	601a      	str	r2, [r3, #0]
  401ae0:	4b0f      	ldr	r3, [pc, #60]	; (401b20 <vTaskStartScheduler+0x8c>)
  401ae2:	4798      	blx	r3
  401ae4:	e00b      	b.n	401afe <vTaskStartScheduler+0x6a>
  401ae6:	b950      	cbnz	r0, 401afe <vTaskStartScheduler+0x6a>
  401ae8:	f04f 0380 	mov.w	r3, #128	; 0x80
  401aec:	b672      	cpsid	i
  401aee:	f383 8811 	msr	BASEPRI, r3
  401af2:	f3bf 8f6f 	isb	sy
  401af6:	f3bf 8f4f 	dsb	sy
  401afa:	b662      	cpsie	i
  401afc:	e7fe      	b.n	401afc <vTaskStartScheduler+0x68>
  401afe:	b004      	add	sp, #16
  401b00:	bd10      	pop	{r4, pc}
  401b02:	bf00      	nop
  401b04:	004098ec 	.word	0x004098ec
  401b08:	00401e3d 	.word	0x00401e3d
  401b0c:	0040186d 	.word	0x0040186d
  401b10:	00402621 	.word	0x00402621
  401b14:	20400a0c 	.word	0x20400a0c
  401b18:	20400950 	.word	0x20400950
  401b1c:	20400a08 	.word	0x20400a08
  401b20:	00400d5d 	.word	0x00400d5d

00401b24 <vTaskSuspendAll>:
  401b24:	4a02      	ldr	r2, [pc, #8]	; (401b30 <vTaskSuspendAll+0xc>)
  401b26:	6813      	ldr	r3, [r2, #0]
  401b28:	3301      	adds	r3, #1
  401b2a:	6013      	str	r3, [r2, #0]
  401b2c:	4770      	bx	lr
  401b2e:	bf00      	nop
  401b30:	20400a04 	.word	0x20400a04

00401b34 <xTaskGetTickCount>:
  401b34:	4b01      	ldr	r3, [pc, #4]	; (401b3c <xTaskGetTickCount+0x8>)
  401b36:	6818      	ldr	r0, [r3, #0]
  401b38:	4770      	bx	lr
  401b3a:	bf00      	nop
  401b3c:	20400a08 	.word	0x20400a08

00401b40 <uxTaskGetNumberOfTasks>:
  401b40:	4b01      	ldr	r3, [pc, #4]	; (401b48 <uxTaskGetNumberOfTasks+0x8>)
  401b42:	6818      	ldr	r0, [r3, #0]
  401b44:	4770      	bx	lr
  401b46:	bf00      	nop
  401b48:	20400a14 	.word	0x20400a14

00401b4c <xTaskIncrementTick>:
  401b4c:	e92d 47f0 	stmdb	sp!, {r4, r5, r6, r7, r8, r9, sl, lr}
  401b50:	4b41      	ldr	r3, [pc, #260]	; (401c58 <xTaskIncrementTick+0x10c>)
  401b52:	681b      	ldr	r3, [r3, #0]
  401b54:	2b00      	cmp	r3, #0
  401b56:	d16f      	bne.n	401c38 <xTaskIncrementTick+0xec>
  401b58:	4b40      	ldr	r3, [pc, #256]	; (401c5c <xTaskIncrementTick+0x110>)
  401b5a:	681a      	ldr	r2, [r3, #0]
  401b5c:	3201      	adds	r2, #1
  401b5e:	601a      	str	r2, [r3, #0]
  401b60:	681e      	ldr	r6, [r3, #0]
  401b62:	b9d6      	cbnz	r6, 401b9a <xTaskIncrementTick+0x4e>
  401b64:	4b3e      	ldr	r3, [pc, #248]	; (401c60 <xTaskIncrementTick+0x114>)
  401b66:	681b      	ldr	r3, [r3, #0]
  401b68:	681b      	ldr	r3, [r3, #0]
  401b6a:	b153      	cbz	r3, 401b82 <xTaskIncrementTick+0x36>
  401b6c:	f04f 0380 	mov.w	r3, #128	; 0x80
  401b70:	b672      	cpsid	i
  401b72:	f383 8811 	msr	BASEPRI, r3
  401b76:	f3bf 8f6f 	isb	sy
  401b7a:	f3bf 8f4f 	dsb	sy
  401b7e:	b662      	cpsie	i
  401b80:	e7fe      	b.n	401b80 <xTaskIncrementTick+0x34>
  401b82:	4a37      	ldr	r2, [pc, #220]	; (401c60 <xTaskIncrementTick+0x114>)
  401b84:	6811      	ldr	r1, [r2, #0]
  401b86:	4b37      	ldr	r3, [pc, #220]	; (401c64 <xTaskIncrementTick+0x118>)
  401b88:	6818      	ldr	r0, [r3, #0]
  401b8a:	6010      	str	r0, [r2, #0]
  401b8c:	6019      	str	r1, [r3, #0]
  401b8e:	4a36      	ldr	r2, [pc, #216]	; (401c68 <xTaskIncrementTick+0x11c>)
  401b90:	6813      	ldr	r3, [r2, #0]
  401b92:	3301      	adds	r3, #1
  401b94:	6013      	str	r3, [r2, #0]
  401b96:	4b35      	ldr	r3, [pc, #212]	; (401c6c <xTaskIncrementTick+0x120>)
  401b98:	4798      	blx	r3
  401b9a:	4b35      	ldr	r3, [pc, #212]	; (401c70 <xTaskIncrementTick+0x124>)
  401b9c:	681b      	ldr	r3, [r3, #0]
  401b9e:	429e      	cmp	r6, r3
  401ba0:	d201      	bcs.n	401ba6 <xTaskIncrementTick+0x5a>
  401ba2:	2400      	movs	r4, #0
  401ba4:	e037      	b.n	401c16 <xTaskIncrementTick+0xca>
  401ba6:	2400      	movs	r4, #0
  401ba8:	f8df 90b4 	ldr.w	r9, [pc, #180]	; 401c60 <xTaskIncrementTick+0x114>
  401bac:	f8df 80e0 	ldr.w	r8, [pc, #224]	; 401c90 <xTaskIncrementTick+0x144>
  401bb0:	4f30      	ldr	r7, [pc, #192]	; (401c74 <xTaskIncrementTick+0x128>)
  401bb2:	f8d9 3000 	ldr.w	r3, [r9]
  401bb6:	681b      	ldr	r3, [r3, #0]
  401bb8:	b923      	cbnz	r3, 401bc4 <xTaskIncrementTick+0x78>
  401bba:	f04f 32ff 	mov.w	r2, #4294967295
  401bbe:	4b2c      	ldr	r3, [pc, #176]	; (401c70 <xTaskIncrementTick+0x124>)
  401bc0:	601a      	str	r2, [r3, #0]
  401bc2:	e028      	b.n	401c16 <xTaskIncrementTick+0xca>
  401bc4:	f8d9 3000 	ldr.w	r3, [r9]
  401bc8:	68db      	ldr	r3, [r3, #12]
  401bca:	68dd      	ldr	r5, [r3, #12]
  401bcc:	686b      	ldr	r3, [r5, #4]
  401bce:	429e      	cmp	r6, r3
  401bd0:	d202      	bcs.n	401bd8 <xTaskIncrementTick+0x8c>
  401bd2:	4a27      	ldr	r2, [pc, #156]	; (401c70 <xTaskIncrementTick+0x124>)
  401bd4:	6013      	str	r3, [r2, #0]
  401bd6:	e01e      	b.n	401c16 <xTaskIncrementTick+0xca>
  401bd8:	f105 0a04 	add.w	sl, r5, #4
  401bdc:	4650      	mov	r0, sl
  401bde:	47c0      	blx	r8
  401be0:	6aab      	ldr	r3, [r5, #40]	; 0x28
  401be2:	b113      	cbz	r3, 401bea <xTaskIncrementTick+0x9e>
  401be4:	f105 0018 	add.w	r0, r5, #24
  401be8:	47c0      	blx	r8
  401bea:	6ae8      	ldr	r0, [r5, #44]	; 0x2c
  401bec:	683b      	ldr	r3, [r7, #0]
  401bee:	2201      	movs	r2, #1
  401bf0:	4082      	lsls	r2, r0
  401bf2:	4313      	orrs	r3, r2
  401bf4:	603b      	str	r3, [r7, #0]
  401bf6:	eb00 0080 	add.w	r0, r0, r0, lsl #2
  401bfa:	4651      	mov	r1, sl
  401bfc:	4b1e      	ldr	r3, [pc, #120]	; (401c78 <xTaskIncrementTick+0x12c>)
  401bfe:	eb03 0080 	add.w	r0, r3, r0, lsl #2
  401c02:	4b1e      	ldr	r3, [pc, #120]	; (401c7c <xTaskIncrementTick+0x130>)
  401c04:	4798      	blx	r3
  401c06:	4b1e      	ldr	r3, [pc, #120]	; (401c80 <xTaskIncrementTick+0x134>)
  401c08:	681b      	ldr	r3, [r3, #0]
  401c0a:	6aea      	ldr	r2, [r5, #44]	; 0x2c
  401c0c:	6adb      	ldr	r3, [r3, #44]	; 0x2c
  401c0e:	429a      	cmp	r2, r3
  401c10:	bf28      	it	cs
  401c12:	2401      	movcs	r4, #1
  401c14:	e7cd      	b.n	401bb2 <xTaskIncrementTick+0x66>
  401c16:	4b1a      	ldr	r3, [pc, #104]	; (401c80 <xTaskIncrementTick+0x134>)
  401c18:	681b      	ldr	r3, [r3, #0]
  401c1a:	6adb      	ldr	r3, [r3, #44]	; 0x2c
  401c1c:	eb03 0383 	add.w	r3, r3, r3, lsl #2
  401c20:	4a15      	ldr	r2, [pc, #84]	; (401c78 <xTaskIncrementTick+0x12c>)
  401c22:	f852 3023 	ldr.w	r3, [r2, r3, lsl #2]
  401c26:	2b02      	cmp	r3, #2
  401c28:	bf28      	it	cs
  401c2a:	2401      	movcs	r4, #1
  401c2c:	4b15      	ldr	r3, [pc, #84]	; (401c84 <xTaskIncrementTick+0x138>)
  401c2e:	681b      	ldr	r3, [r3, #0]
  401c30:	b94b      	cbnz	r3, 401c46 <xTaskIncrementTick+0xfa>
  401c32:	4b15      	ldr	r3, [pc, #84]	; (401c88 <xTaskIncrementTick+0x13c>)
  401c34:	4798      	blx	r3
  401c36:	e006      	b.n	401c46 <xTaskIncrementTick+0xfa>
  401c38:	4a12      	ldr	r2, [pc, #72]	; (401c84 <xTaskIncrementTick+0x138>)
  401c3a:	6813      	ldr	r3, [r2, #0]
  401c3c:	3301      	adds	r3, #1
  401c3e:	6013      	str	r3, [r2, #0]
  401c40:	4b11      	ldr	r3, [pc, #68]	; (401c88 <xTaskIncrementTick+0x13c>)
  401c42:	4798      	blx	r3
  401c44:	2400      	movs	r4, #0
  401c46:	4b11      	ldr	r3, [pc, #68]	; (401c8c <xTaskIncrementTick+0x140>)
  401c48:	681b      	ldr	r3, [r3, #0]
  401c4a:	2b00      	cmp	r3, #0
  401c4c:	bf0c      	ite	eq
  401c4e:	4620      	moveq	r0, r4
  401c50:	2001      	movne	r0, #1
  401c52:	e8bd 87f0 	ldmia.w	sp!, {r4, r5, r6, r7, r8, r9, sl, pc}
  401c56:	bf00      	nop
  401c58:	20400a04 	.word	0x20400a04
  401c5c:	20400a08 	.word	0x20400a08
  401c60:	2040094c 	.word	0x2040094c
  401c64:	2040096c 	.word	0x2040096c
  401c68:	20400948 	.word	0x20400948
  401c6c:	004017e9 	.word	0x004017e9
  401c70:	20400a0c 	.word	0x20400a0c
  401c74:	20400a40 	.word	0x20400a40
  401c78:	20400974 	.word	0x20400974
  401c7c:	00400afd 	.word	0x00400afd
  401c80:	204009ec 	.word	0x204009ec
  401c84:	20400970 	.word	0x20400970
  401c88:	00402c9d 	.word	0x00402c9d
  401c8c:	20400a44 	.word	0x20400a44
  401c90:	00400b49 	.word	0x00400b49

00401c94 <xTaskResumeAll>:
  401c94:	e92d 43f8 	stmdb	sp!, {r3, r4, r5, r6, r7, r8, r9, lr}
  401c98:	4b36      	ldr	r3, [pc, #216]	; (401d74 <xTaskResumeAll+0xe0>)
  401c9a:	681b      	ldr	r3, [r3, #0]
  401c9c:	b953      	cbnz	r3, 401cb4 <xTaskResumeAll+0x20>
  401c9e:	f04f 0380 	mov.w	r3, #128	; 0x80
  401ca2:	b672      	cpsid	i
  401ca4:	f383 8811 	msr	BASEPRI, r3
  401ca8:	f3bf 8f6f 	isb	sy
  401cac:	f3bf 8f4f 	dsb	sy
  401cb0:	b662      	cpsie	i
  401cb2:	e7fe      	b.n	401cb2 <xTaskResumeAll+0x1e>
  401cb4:	4b30      	ldr	r3, [pc, #192]	; (401d78 <xTaskResumeAll+0xe4>)
  401cb6:	4798      	blx	r3
  401cb8:	4b2e      	ldr	r3, [pc, #184]	; (401d74 <xTaskResumeAll+0xe0>)
  401cba:	681a      	ldr	r2, [r3, #0]
  401cbc:	3a01      	subs	r2, #1
  401cbe:	601a      	str	r2, [r3, #0]
  401cc0:	681b      	ldr	r3, [r3, #0]
  401cc2:	2b00      	cmp	r3, #0
  401cc4:	d14d      	bne.n	401d62 <xTaskResumeAll+0xce>
  401cc6:	4b2d      	ldr	r3, [pc, #180]	; (401d7c <xTaskResumeAll+0xe8>)
  401cc8:	681b      	ldr	r3, [r3, #0]
  401cca:	bb0b      	cbnz	r3, 401d10 <xTaskResumeAll+0x7c>
  401ccc:	2400      	movs	r4, #0
  401cce:	e04b      	b.n	401d68 <xTaskResumeAll+0xd4>
  401cd0:	68fb      	ldr	r3, [r7, #12]
  401cd2:	68dc      	ldr	r4, [r3, #12]
  401cd4:	f104 0018 	add.w	r0, r4, #24
  401cd8:	47b0      	blx	r6
  401cda:	f104 0804 	add.w	r8, r4, #4
  401cde:	4640      	mov	r0, r8
  401ce0:	47b0      	blx	r6
  401ce2:	6ae0      	ldr	r0, [r4, #44]	; 0x2c
  401ce4:	682b      	ldr	r3, [r5, #0]
  401ce6:	2201      	movs	r2, #1
  401ce8:	4082      	lsls	r2, r0
  401cea:	4313      	orrs	r3, r2
  401cec:	602b      	str	r3, [r5, #0]
  401cee:	eb00 0080 	add.w	r0, r0, r0, lsl #2
  401cf2:	4641      	mov	r1, r8
  401cf4:	eb09 0080 	add.w	r0, r9, r0, lsl #2
  401cf8:	4b21      	ldr	r3, [pc, #132]	; (401d80 <xTaskResumeAll+0xec>)
  401cfa:	4798      	blx	r3
  401cfc:	4b21      	ldr	r3, [pc, #132]	; (401d84 <xTaskResumeAll+0xf0>)
  401cfe:	681b      	ldr	r3, [r3, #0]
  401d00:	6ae2      	ldr	r2, [r4, #44]	; 0x2c
  401d02:	6adb      	ldr	r3, [r3, #44]	; 0x2c
  401d04:	429a      	cmp	r2, r3
  401d06:	d308      	bcc.n	401d1a <xTaskResumeAll+0x86>
  401d08:	2201      	movs	r2, #1
  401d0a:	4b1f      	ldr	r3, [pc, #124]	; (401d88 <xTaskResumeAll+0xf4>)
  401d0c:	601a      	str	r2, [r3, #0]
  401d0e:	e004      	b.n	401d1a <xTaskResumeAll+0x86>
  401d10:	4f1e      	ldr	r7, [pc, #120]	; (401d8c <xTaskResumeAll+0xf8>)
  401d12:	4e1f      	ldr	r6, [pc, #124]	; (401d90 <xTaskResumeAll+0xfc>)
  401d14:	4d1f      	ldr	r5, [pc, #124]	; (401d94 <xTaskResumeAll+0x100>)
  401d16:	f8df 9090 	ldr.w	r9, [pc, #144]	; 401da8 <xTaskResumeAll+0x114>
  401d1a:	683b      	ldr	r3, [r7, #0]
  401d1c:	2b00      	cmp	r3, #0
  401d1e:	d1d7      	bne.n	401cd0 <xTaskResumeAll+0x3c>
  401d20:	4b1d      	ldr	r3, [pc, #116]	; (401d98 <xTaskResumeAll+0x104>)
  401d22:	681b      	ldr	r3, [r3, #0]
  401d24:	b17b      	cbz	r3, 401d46 <xTaskResumeAll+0xb2>
  401d26:	4b1c      	ldr	r3, [pc, #112]	; (401d98 <xTaskResumeAll+0x104>)
  401d28:	681b      	ldr	r3, [r3, #0]
  401d2a:	b163      	cbz	r3, 401d46 <xTaskResumeAll+0xb2>
  401d2c:	4e1b      	ldr	r6, [pc, #108]	; (401d9c <xTaskResumeAll+0x108>)
  401d2e:	4d16      	ldr	r5, [pc, #88]	; (401d88 <xTaskResumeAll+0xf4>)
  401d30:	4c19      	ldr	r4, [pc, #100]	; (401d98 <xTaskResumeAll+0x104>)
  401d32:	47b0      	blx	r6
  401d34:	b108      	cbz	r0, 401d3a <xTaskResumeAll+0xa6>
  401d36:	2301      	movs	r3, #1
  401d38:	602b      	str	r3, [r5, #0]
  401d3a:	6823      	ldr	r3, [r4, #0]
  401d3c:	3b01      	subs	r3, #1
  401d3e:	6023      	str	r3, [r4, #0]
  401d40:	6823      	ldr	r3, [r4, #0]
  401d42:	2b00      	cmp	r3, #0
  401d44:	d1f5      	bne.n	401d32 <xTaskResumeAll+0x9e>
  401d46:	4b10      	ldr	r3, [pc, #64]	; (401d88 <xTaskResumeAll+0xf4>)
  401d48:	681b      	ldr	r3, [r3, #0]
  401d4a:	2b01      	cmp	r3, #1
  401d4c:	d10b      	bne.n	401d66 <xTaskResumeAll+0xd2>
  401d4e:	f04f 5280 	mov.w	r2, #268435456	; 0x10000000
  401d52:	4b13      	ldr	r3, [pc, #76]	; (401da0 <xTaskResumeAll+0x10c>)
  401d54:	601a      	str	r2, [r3, #0]
  401d56:	f3bf 8f4f 	dsb	sy
  401d5a:	f3bf 8f6f 	isb	sy
  401d5e:	2401      	movs	r4, #1
  401d60:	e002      	b.n	401d68 <xTaskResumeAll+0xd4>
  401d62:	2400      	movs	r4, #0
  401d64:	e000      	b.n	401d68 <xTaskResumeAll+0xd4>
  401d66:	2400      	movs	r4, #0
  401d68:	4b0e      	ldr	r3, [pc, #56]	; (401da4 <xTaskResumeAll+0x110>)
  401d6a:	4798      	blx	r3
  401d6c:	4620      	mov	r0, r4
  401d6e:	e8bd 83f8 	ldmia.w	sp!, {r3, r4, r5, r6, r7, r8, r9, pc}
  401d72:	bf00      	nop
  401d74:	20400a04 	.word	0x20400a04
  401d78:	00400c29 	.word	0x00400c29
  401d7c:	20400a14 	.word	0x20400a14
  401d80:	00400afd 	.word	0x00400afd
  401d84:	204009ec 	.word	0x204009ec
  401d88:	20400a44 	.word	0x20400a44
  401d8c:	204009f0 	.word	0x204009f0
  401d90:	00400b49 	.word	0x00400b49
  401d94:	20400a40 	.word	0x20400a40
  401d98:	20400970 	.word	0x20400970
  401d9c:	00401b4d 	.word	0x00401b4d
  401da0:	e000ed04 	.word	0xe000ed04
  401da4:	00400c75 	.word	0x00400c75
  401da8:	20400974 	.word	0x20400974

00401dac <vTaskDelay>:
  401dac:	b510      	push	{r4, lr}
  401dae:	2800      	cmp	r0, #0
  401db0:	d029      	beq.n	401e06 <vTaskDelay+0x5a>
  401db2:	4604      	mov	r4, r0
  401db4:	4b18      	ldr	r3, [pc, #96]	; (401e18 <vTaskDelay+0x6c>)
  401db6:	681b      	ldr	r3, [r3, #0]
  401db8:	b153      	cbz	r3, 401dd0 <vTaskDelay+0x24>
  401dba:	f04f 0380 	mov.w	r3, #128	; 0x80
  401dbe:	b672      	cpsid	i
  401dc0:	f383 8811 	msr	BASEPRI, r3
  401dc4:	f3bf 8f6f 	isb	sy
  401dc8:	f3bf 8f4f 	dsb	sy
  401dcc:	b662      	cpsie	i
  401dce:	e7fe      	b.n	401dce <vTaskDelay+0x22>
  401dd0:	4b12      	ldr	r3, [pc, #72]	; (401e1c <vTaskDelay+0x70>)
  401dd2:	4798      	blx	r3
  401dd4:	4b12      	ldr	r3, [pc, #72]	; (401e20 <vTaskDelay+0x74>)
  401dd6:	681b      	ldr	r3, [r3, #0]
  401dd8:	441c      	add	r4, r3
  401dda:	4b12      	ldr	r3, [pc, #72]	; (401e24 <vTaskDelay+0x78>)
  401ddc:	6818      	ldr	r0, [r3, #0]
  401dde:	3004      	adds	r0, #4
  401de0:	4b11      	ldr	r3, [pc, #68]	; (401e28 <vTaskDelay+0x7c>)
  401de2:	4798      	blx	r3
  401de4:	b948      	cbnz	r0, 401dfa <vTaskDelay+0x4e>
  401de6:	4b0f      	ldr	r3, [pc, #60]	; (401e24 <vTaskDelay+0x78>)
  401de8:	681a      	ldr	r2, [r3, #0]
  401dea:	4910      	ldr	r1, [pc, #64]	; (401e2c <vTaskDelay+0x80>)
  401dec:	680b      	ldr	r3, [r1, #0]
  401dee:	6ad0      	ldr	r0, [r2, #44]	; 0x2c
  401df0:	2201      	movs	r2, #1
  401df2:	4082      	lsls	r2, r0
  401df4:	ea23 0302 	bic.w	r3, r3, r2
  401df8:	600b      	str	r3, [r1, #0]
  401dfa:	4620      	mov	r0, r4
  401dfc:	4b0c      	ldr	r3, [pc, #48]	; (401e30 <vTaskDelay+0x84>)
  401dfe:	4798      	blx	r3
  401e00:	4b0c      	ldr	r3, [pc, #48]	; (401e34 <vTaskDelay+0x88>)
  401e02:	4798      	blx	r3
  401e04:	b938      	cbnz	r0, 401e16 <vTaskDelay+0x6a>
  401e06:	f04f 5280 	mov.w	r2, #268435456	; 0x10000000
  401e0a:	4b0b      	ldr	r3, [pc, #44]	; (401e38 <vTaskDelay+0x8c>)
  401e0c:	601a      	str	r2, [r3, #0]
  401e0e:	f3bf 8f4f 	dsb	sy
  401e12:	f3bf 8f6f 	isb	sy
  401e16:	bd10      	pop	{r4, pc}
  401e18:	20400a04 	.word	0x20400a04
  401e1c:	00401b25 	.word	0x00401b25
  401e20:	20400a08 	.word	0x20400a08
  401e24:	204009ec 	.word	0x204009ec
  401e28:	00400b49 	.word	0x00400b49
  401e2c:	20400a40 	.word	0x20400a40
  401e30:	00401815 	.word	0x00401815
  401e34:	00401c95 	.word	0x00401c95
  401e38:	e000ed04 	.word	0xe000ed04

00401e3c <prvIdleTask>:
  401e3c:	b580      	push	{r7, lr}
  401e3e:	4d18      	ldr	r5, [pc, #96]	; (401ea0 <prvIdleTask+0x64>)
  401e40:	4f18      	ldr	r7, [pc, #96]	; (401ea4 <prvIdleTask+0x68>)
  401e42:	f8df 8080 	ldr.w	r8, [pc, #128]	; 401ec4 <prvIdleTask+0x88>
  401e46:	4e18      	ldr	r6, [pc, #96]	; (401ea8 <prvIdleTask+0x6c>)
  401e48:	e019      	b.n	401e7e <prvIdleTask+0x42>
  401e4a:	47c0      	blx	r8
  401e4c:	683c      	ldr	r4, [r7, #0]
  401e4e:	47b0      	blx	r6
  401e50:	b1ac      	cbz	r4, 401e7e <prvIdleTask+0x42>
  401e52:	4b16      	ldr	r3, [pc, #88]	; (401eac <prvIdleTask+0x70>)
  401e54:	4798      	blx	r3
  401e56:	68fb      	ldr	r3, [r7, #12]
  401e58:	68dc      	ldr	r4, [r3, #12]
  401e5a:	1d20      	adds	r0, r4, #4
  401e5c:	4b14      	ldr	r3, [pc, #80]	; (401eb0 <prvIdleTask+0x74>)
  401e5e:	4798      	blx	r3
  401e60:	4a14      	ldr	r2, [pc, #80]	; (401eb4 <prvIdleTask+0x78>)
  401e62:	6813      	ldr	r3, [r2, #0]
  401e64:	3b01      	subs	r3, #1
  401e66:	6013      	str	r3, [r2, #0]
  401e68:	682b      	ldr	r3, [r5, #0]
  401e6a:	3b01      	subs	r3, #1
  401e6c:	602b      	str	r3, [r5, #0]
  401e6e:	4b12      	ldr	r3, [pc, #72]	; (401eb8 <prvIdleTask+0x7c>)
  401e70:	4798      	blx	r3
  401e72:	6b20      	ldr	r0, [r4, #48]	; 0x30
  401e74:	f8df 9050 	ldr.w	r9, [pc, #80]	; 401ec8 <prvIdleTask+0x8c>
  401e78:	47c8      	blx	r9
  401e7a:	4620      	mov	r0, r4
  401e7c:	47c8      	blx	r9
  401e7e:	682b      	ldr	r3, [r5, #0]
  401e80:	2b00      	cmp	r3, #0
  401e82:	d1e2      	bne.n	401e4a <prvIdleTask+0xe>
  401e84:	4b0d      	ldr	r3, [pc, #52]	; (401ebc <prvIdleTask+0x80>)
  401e86:	681b      	ldr	r3, [r3, #0]
  401e88:	2b01      	cmp	r3, #1
  401e8a:	d9dc      	bls.n	401e46 <prvIdleTask+0xa>
  401e8c:	f04f 5280 	mov.w	r2, #268435456	; 0x10000000
  401e90:	4b0b      	ldr	r3, [pc, #44]	; (401ec0 <prvIdleTask+0x84>)
  401e92:	601a      	str	r2, [r3, #0]
  401e94:	f3bf 8f4f 	dsb	sy
  401e98:	f3bf 8f6f 	isb	sy
  401e9c:	e7d1      	b.n	401e42 <prvIdleTask+0x6>
  401e9e:	bf00      	nop
  401ea0:	20400954 	.word	0x20400954
  401ea4:	204009d8 	.word	0x204009d8
  401ea8:	00401c95 	.word	0x00401c95
  401eac:	00400c29 	.word	0x00400c29
  401eb0:	00400b49 	.word	0x00400b49
  401eb4:	20400a14 	.word	0x20400a14
  401eb8:	00400c75 	.word	0x00400c75
  401ebc:	20400974 	.word	0x20400974
  401ec0:	e000ed04 	.word	0xe000ed04
  401ec4:	00401b25 	.word	0x00401b25
  401ec8:	00400eb5 	.word	0x00400eb5

00401ecc <uxTaskGetSystemState>:
  401ecc:	e92d 47f0 	stmdb	sp!, {r4, r5, r6, r7, r8, r9, sl, lr}
  401ed0:	4606      	mov	r6, r0
  401ed2:	460c      	mov	r4, r1
  401ed4:	4617      	mov	r7, r2
  401ed6:	4b1f      	ldr	r3, [pc, #124]	; (401f54 <uxTaskGetSystemState+0x88>)
  401ed8:	4798      	blx	r3
  401eda:	4b1f      	ldr	r3, [pc, #124]	; (401f58 <uxTaskGetSystemState+0x8c>)
  401edc:	681b      	ldr	r3, [r3, #0]
  401ede:	42a3      	cmp	r3, r4
  401ee0:	d831      	bhi.n	401f46 <uxTaskGetSystemState+0x7a>
  401ee2:	4b1e      	ldr	r3, [pc, #120]	; (401f5c <uxTaskGetSystemState+0x90>)
  401ee4:	f103 0550 	add.w	r5, r3, #80	; 0x50
  401ee8:	f1a3 0814 	sub.w	r8, r3, #20
  401eec:	2400      	movs	r4, #0
  401eee:	f04f 0a01 	mov.w	sl, #1
  401ef2:	f8df 9070 	ldr.w	r9, [pc, #112]	; 401f64 <uxTaskGetSystemState+0x98>
  401ef6:	4652      	mov	r2, sl
  401ef8:	4629      	mov	r1, r5
  401efa:	eb06 1044 	add.w	r0, r6, r4, lsl #5
  401efe:	47c8      	blx	r9
  401f00:	4404      	add	r4, r0
  401f02:	3d14      	subs	r5, #20
  401f04:	4545      	cmp	r5, r8
  401f06:	d1f6      	bne.n	401ef6 <uxTaskGetSystemState+0x2a>
  401f08:	4b15      	ldr	r3, [pc, #84]	; (401f60 <uxTaskGetSystemState+0x94>)
  401f0a:	6819      	ldr	r1, [r3, #0]
  401f0c:	2202      	movs	r2, #2
  401f0e:	eb06 1044 	add.w	r0, r6, r4, lsl #5
  401f12:	4d14      	ldr	r5, [pc, #80]	; (401f64 <uxTaskGetSystemState+0x98>)
  401f14:	47a8      	blx	r5
  401f16:	4404      	add	r4, r0
  401f18:	4b13      	ldr	r3, [pc, #76]	; (401f68 <uxTaskGetSystemState+0x9c>)
  401f1a:	6819      	ldr	r1, [r3, #0]
  401f1c:	2202      	movs	r2, #2
  401f1e:	eb06 1044 	add.w	r0, r6, r4, lsl #5
  401f22:	47a8      	blx	r5
  401f24:	4404      	add	r4, r0
  401f26:	2204      	movs	r2, #4
  401f28:	4910      	ldr	r1, [pc, #64]	; (401f6c <uxTaskGetSystemState+0xa0>)
  401f2a:	eb06 1044 	add.w	r0, r6, r4, lsl #5
  401f2e:	47a8      	blx	r5
  401f30:	4404      	add	r4, r0
  401f32:	2203      	movs	r2, #3
  401f34:	490e      	ldr	r1, [pc, #56]	; (401f70 <uxTaskGetSystemState+0xa4>)
  401f36:	eb06 1044 	add.w	r0, r6, r4, lsl #5
  401f3a:	47a8      	blx	r5
  401f3c:	4404      	add	r4, r0
  401f3e:	b11f      	cbz	r7, 401f48 <uxTaskGetSystemState+0x7c>
  401f40:	2300      	movs	r3, #0
  401f42:	603b      	str	r3, [r7, #0]
  401f44:	e000      	b.n	401f48 <uxTaskGetSystemState+0x7c>
  401f46:	2400      	movs	r4, #0
  401f48:	4b0a      	ldr	r3, [pc, #40]	; (401f74 <uxTaskGetSystemState+0xa8>)
  401f4a:	4798      	blx	r3
  401f4c:	4620      	mov	r0, r4
  401f4e:	e8bd 87f0 	ldmia.w	sp!, {r4, r5, r6, r7, r8, r9, sl, pc}
  401f52:	bf00      	nop
  401f54:	00401b25 	.word	0x00401b25
  401f58:	20400a14 	.word	0x20400a14
  401f5c:	20400974 	.word	0x20400974
  401f60:	2040094c 	.word	0x2040094c
  401f64:	00401735 	.word	0x00401735
  401f68:	2040096c 	.word	0x2040096c
  401f6c:	204009d8 	.word	0x204009d8
  401f70:	20400a2c 	.word	0x20400a2c
  401f74:	00401c95 	.word	0x00401c95

00401f78 <vTaskSwitchContext>:
  401f78:	4b2c      	ldr	r3, [pc, #176]	; (40202c <vTaskSwitchContext+0xb4>)
  401f7a:	681b      	ldr	r3, [r3, #0]
  401f7c:	b11b      	cbz	r3, 401f86 <vTaskSwitchContext+0xe>
  401f7e:	2201      	movs	r2, #1
  401f80:	4b2b      	ldr	r3, [pc, #172]	; (402030 <vTaskSwitchContext+0xb8>)
  401f82:	601a      	str	r2, [r3, #0]
  401f84:	4770      	bx	lr
  401f86:	b510      	push	{r4, lr}
  401f88:	2200      	movs	r2, #0
  401f8a:	4b29      	ldr	r3, [pc, #164]	; (402030 <vTaskSwitchContext+0xb8>)
  401f8c:	601a      	str	r2, [r3, #0]
  401f8e:	4b29      	ldr	r3, [pc, #164]	; (402034 <vTaskSwitchContext+0xbc>)
  401f90:	681b      	ldr	r3, [r3, #0]
  401f92:	6b1b      	ldr	r3, [r3, #48]	; 0x30
  401f94:	681a      	ldr	r2, [r3, #0]
  401f96:	f1b2 3fa5 	cmp.w	r2, #2779096485	; 0xa5a5a5a5
  401f9a:	d10b      	bne.n	401fb4 <vTaskSwitchContext+0x3c>
  401f9c:	685a      	ldr	r2, [r3, #4]
  401f9e:	f1b2 3fa5 	cmp.w	r2, #2779096485	; 0xa5a5a5a5
  401fa2:	d107      	bne.n	401fb4 <vTaskSwitchContext+0x3c>
  401fa4:	689a      	ldr	r2, [r3, #8]
  401fa6:	f1b2 3fa5 	cmp.w	r2, #2779096485	; 0xa5a5a5a5
  401faa:	d103      	bne.n	401fb4 <vTaskSwitchContext+0x3c>
  401fac:	68db      	ldr	r3, [r3, #12]
  401fae:	f1b3 3fa5 	cmp.w	r3, #2779096485	; 0xa5a5a5a5
  401fb2:	d005      	beq.n	401fc0 <vTaskSwitchContext+0x48>
  401fb4:	4b1f      	ldr	r3, [pc, #124]	; (402034 <vTaskSwitchContext+0xbc>)
  401fb6:	6818      	ldr	r0, [r3, #0]
  401fb8:	6819      	ldr	r1, [r3, #0]
  401fba:	3134      	adds	r1, #52	; 0x34
  401fbc:	4b1e      	ldr	r3, [pc, #120]	; (402038 <vTaskSwitchContext+0xc0>)
  401fbe:	4798      	blx	r3
  401fc0:	4b1e      	ldr	r3, [pc, #120]	; (40203c <vTaskSwitchContext+0xc4>)
  401fc2:	681b      	ldr	r3, [r3, #0]
  401fc4:	fab3 f383 	clz	r3, r3
  401fc8:	b2db      	uxtb	r3, r3
  401fca:	f1c3 031f 	rsb	r3, r3, #31
  401fce:	eb03 0183 	add.w	r1, r3, r3, lsl #2
  401fd2:	4a1b      	ldr	r2, [pc, #108]	; (402040 <vTaskSwitchContext+0xc8>)
  401fd4:	f852 2021 	ldr.w	r2, [r2, r1, lsl #2]
  401fd8:	b952      	cbnz	r2, 401ff0 <vTaskSwitchContext+0x78>
  401fda:	f04f 0380 	mov.w	r3, #128	; 0x80
  401fde:	b672      	cpsid	i
  401fe0:	f383 8811 	msr	BASEPRI, r3
  401fe4:	f3bf 8f6f 	isb	sy
  401fe8:	f3bf 8f4f 	dsb	sy
  401fec:	b662      	cpsie	i
  401fee:	e7fe      	b.n	401fee <vTaskSwitchContext+0x76>
  401ff0:	4a13      	ldr	r2, [pc, #76]	; (402040 <vTaskSwitchContext+0xc8>)
  401ff2:	0099      	lsls	r1, r3, #2
  401ff4:	18c8      	adds	r0, r1, r3
  401ff6:	eb02 0080 	add.w	r0, r2, r0, lsl #2
  401ffa:	6844      	ldr	r4, [r0, #4]
  401ffc:	6864      	ldr	r4, [r4, #4]
  401ffe:	6044      	str	r4, [r0, #4]
  402000:	4602      	mov	r2, r0
  402002:	3208      	adds	r2, #8
  402004:	4294      	cmp	r4, r2
  402006:	d106      	bne.n	402016 <vTaskSwitchContext+0x9e>
  402008:	6860      	ldr	r0, [r4, #4]
  40200a:	eb03 0183 	add.w	r1, r3, r3, lsl #2
  40200e:	4a0c      	ldr	r2, [pc, #48]	; (402040 <vTaskSwitchContext+0xc8>)
  402010:	eb02 0281 	add.w	r2, r2, r1, lsl #2
  402014:	6050      	str	r0, [r2, #4]
  402016:	eb03 0383 	add.w	r3, r3, r3, lsl #2
  40201a:	4a09      	ldr	r2, [pc, #36]	; (402040 <vTaskSwitchContext+0xc8>)
  40201c:	eb02 0383 	add.w	r3, r2, r3, lsl #2
  402020:	685b      	ldr	r3, [r3, #4]
  402022:	68da      	ldr	r2, [r3, #12]
  402024:	4b03      	ldr	r3, [pc, #12]	; (402034 <vTaskSwitchContext+0xbc>)
  402026:	601a      	str	r2, [r3, #0]
  402028:	bd10      	pop	{r4, pc}
  40202a:	bf00      	nop
  40202c:	20400a04 	.word	0x20400a04
  402030:	20400a44 	.word	0x20400a44
  402034:	204009ec 	.word	0x204009ec
  402038:	00402c85 	.word	0x00402c85
  40203c:	20400a40 	.word	0x20400a40
  402040:	20400974 	.word	0x20400974

00402044 <vTaskPlaceOnEventList>:
  402044:	b538      	push	{r3, r4, r5, lr}
  402046:	b950      	cbnz	r0, 40205e <vTaskPlaceOnEventList+0x1a>
  402048:	f04f 0380 	mov.w	r3, #128	; 0x80
  40204c:	b672      	cpsid	i
  40204e:	f383 8811 	msr	BASEPRI, r3
  402052:	f3bf 8f6f 	isb	sy
  402056:	f3bf 8f4f 	dsb	sy
  40205a:	b662      	cpsie	i
  40205c:	e7fe      	b.n	40205c <vTaskPlaceOnEventList+0x18>
  40205e:	460c      	mov	r4, r1
  402060:	4d11      	ldr	r5, [pc, #68]	; (4020a8 <vTaskPlaceOnEventList+0x64>)
  402062:	6829      	ldr	r1, [r5, #0]
  402064:	3118      	adds	r1, #24
  402066:	4b11      	ldr	r3, [pc, #68]	; (4020ac <vTaskPlaceOnEventList+0x68>)
  402068:	4798      	blx	r3
  40206a:	6828      	ldr	r0, [r5, #0]
  40206c:	3004      	adds	r0, #4
  40206e:	4b10      	ldr	r3, [pc, #64]	; (4020b0 <vTaskPlaceOnEventList+0x6c>)
  402070:	4798      	blx	r3
  402072:	b940      	cbnz	r0, 402086 <vTaskPlaceOnEventList+0x42>
  402074:	682a      	ldr	r2, [r5, #0]
  402076:	490f      	ldr	r1, [pc, #60]	; (4020b4 <vTaskPlaceOnEventList+0x70>)
  402078:	680b      	ldr	r3, [r1, #0]
  40207a:	6ad0      	ldr	r0, [r2, #44]	; 0x2c
  40207c:	2201      	movs	r2, #1
  40207e:	4082      	lsls	r2, r0
  402080:	ea23 0302 	bic.w	r3, r3, r2
  402084:	600b      	str	r3, [r1, #0]
  402086:	f1b4 3fff 	cmp.w	r4, #4294967295
  40208a:	d106      	bne.n	40209a <vTaskPlaceOnEventList+0x56>
  40208c:	4b06      	ldr	r3, [pc, #24]	; (4020a8 <vTaskPlaceOnEventList+0x64>)
  40208e:	6819      	ldr	r1, [r3, #0]
  402090:	3104      	adds	r1, #4
  402092:	4809      	ldr	r0, [pc, #36]	; (4020b8 <vTaskPlaceOnEventList+0x74>)
  402094:	4b09      	ldr	r3, [pc, #36]	; (4020bc <vTaskPlaceOnEventList+0x78>)
  402096:	4798      	blx	r3
  402098:	bd38      	pop	{r3, r4, r5, pc}
  40209a:	4b09      	ldr	r3, [pc, #36]	; (4020c0 <vTaskPlaceOnEventList+0x7c>)
  40209c:	6818      	ldr	r0, [r3, #0]
  40209e:	4420      	add	r0, r4
  4020a0:	4b08      	ldr	r3, [pc, #32]	; (4020c4 <vTaskPlaceOnEventList+0x80>)
  4020a2:	4798      	blx	r3
  4020a4:	bd38      	pop	{r3, r4, r5, pc}
  4020a6:	bf00      	nop
  4020a8:	204009ec 	.word	0x204009ec
  4020ac:	00400b15 	.word	0x00400b15
  4020b0:	00400b49 	.word	0x00400b49
  4020b4:	20400a40 	.word	0x20400a40
  4020b8:	20400a2c 	.word	0x20400a2c
  4020bc:	00400afd 	.word	0x00400afd
  4020c0:	20400a08 	.word	0x20400a08
  4020c4:	00401815 	.word	0x00401815

004020c8 <vTaskPlaceOnEventListRestricted>:
  4020c8:	b950      	cbnz	r0, 4020e0 <vTaskPlaceOnEventListRestricted+0x18>
  4020ca:	f04f 0380 	mov.w	r3, #128	; 0x80
  4020ce:	b672      	cpsid	i
  4020d0:	f383 8811 	msr	BASEPRI, r3
  4020d4:	f3bf 8f6f 	isb	sy
  4020d8:	f3bf 8f4f 	dsb	sy
  4020dc:	b662      	cpsie	i
  4020de:	e7fe      	b.n	4020de <vTaskPlaceOnEventListRestricted+0x16>
  4020e0:	b570      	push	{r4, r5, r6, lr}
  4020e2:	4615      	mov	r5, r2
  4020e4:	460c      	mov	r4, r1
  4020e6:	4e11      	ldr	r6, [pc, #68]	; (40212c <vTaskPlaceOnEventListRestricted+0x64>)
  4020e8:	6831      	ldr	r1, [r6, #0]
  4020ea:	3118      	adds	r1, #24
  4020ec:	4b10      	ldr	r3, [pc, #64]	; (402130 <vTaskPlaceOnEventListRestricted+0x68>)
  4020ee:	4798      	blx	r3
  4020f0:	6830      	ldr	r0, [r6, #0]
  4020f2:	3004      	adds	r0, #4
  4020f4:	4b0f      	ldr	r3, [pc, #60]	; (402134 <vTaskPlaceOnEventListRestricted+0x6c>)
  4020f6:	4798      	blx	r3
  4020f8:	b940      	cbnz	r0, 40210c <vTaskPlaceOnEventListRestricted+0x44>
  4020fa:	6832      	ldr	r2, [r6, #0]
  4020fc:	490e      	ldr	r1, [pc, #56]	; (402138 <vTaskPlaceOnEventListRestricted+0x70>)
  4020fe:	680b      	ldr	r3, [r1, #0]
  402100:	6ad0      	ldr	r0, [r2, #44]	; 0x2c
  402102:	2201      	movs	r2, #1
  402104:	4082      	lsls	r2, r0
  402106:	ea23 0302 	bic.w	r3, r3, r2
  40210a:	600b      	str	r3, [r1, #0]
  40210c:	2d01      	cmp	r5, #1
  40210e:	d106      	bne.n	40211e <vTaskPlaceOnEventListRestricted+0x56>
  402110:	4b06      	ldr	r3, [pc, #24]	; (40212c <vTaskPlaceOnEventListRestricted+0x64>)
  402112:	6819      	ldr	r1, [r3, #0]
  402114:	3104      	adds	r1, #4
  402116:	4809      	ldr	r0, [pc, #36]	; (40213c <vTaskPlaceOnEventListRestricted+0x74>)
  402118:	4b05      	ldr	r3, [pc, #20]	; (402130 <vTaskPlaceOnEventListRestricted+0x68>)
  40211a:	4798      	blx	r3
  40211c:	bd70      	pop	{r4, r5, r6, pc}
  40211e:	4b08      	ldr	r3, [pc, #32]	; (402140 <vTaskPlaceOnEventListRestricted+0x78>)
  402120:	6818      	ldr	r0, [r3, #0]
  402122:	4420      	add	r0, r4
  402124:	4b07      	ldr	r3, [pc, #28]	; (402144 <vTaskPlaceOnEventListRestricted+0x7c>)
  402126:	4798      	blx	r3
  402128:	bd70      	pop	{r4, r5, r6, pc}
  40212a:	bf00      	nop
  40212c:	204009ec 	.word	0x204009ec
  402130:	00400afd 	.word	0x00400afd
  402134:	00400b49 	.word	0x00400b49
  402138:	20400a40 	.word	0x20400a40
  40213c:	20400a2c 	.word	0x20400a2c
  402140:	20400a08 	.word	0x20400a08
  402144:	00401815 	.word	0x00401815

00402148 <xTaskRemoveFromEventList>:
  402148:	b538      	push	{r3, r4, r5, lr}
  40214a:	68c3      	ldr	r3, [r0, #12]
  40214c:	68dc      	ldr	r4, [r3, #12]
  40214e:	b954      	cbnz	r4, 402166 <xTaskRemoveFromEventList+0x1e>
  402150:	f04f 0380 	mov.w	r3, #128	; 0x80
  402154:	b672      	cpsid	i
  402156:	f383 8811 	msr	BASEPRI, r3
  40215a:	f3bf 8f6f 	isb	sy
  40215e:	f3bf 8f4f 	dsb	sy
  402162:	b662      	cpsie	i
  402164:	e7fe      	b.n	402164 <xTaskRemoveFromEventList+0x1c>
  402166:	f104 0518 	add.w	r5, r4, #24
  40216a:	4628      	mov	r0, r5
  40216c:	4b14      	ldr	r3, [pc, #80]	; (4021c0 <xTaskRemoveFromEventList+0x78>)
  40216e:	4798      	blx	r3
  402170:	4b14      	ldr	r3, [pc, #80]	; (4021c4 <xTaskRemoveFromEventList+0x7c>)
  402172:	681b      	ldr	r3, [r3, #0]
  402174:	b99b      	cbnz	r3, 40219e <xTaskRemoveFromEventList+0x56>
  402176:	1d25      	adds	r5, r4, #4
  402178:	4628      	mov	r0, r5
  40217a:	4b11      	ldr	r3, [pc, #68]	; (4021c0 <xTaskRemoveFromEventList+0x78>)
  40217c:	4798      	blx	r3
  40217e:	6ae0      	ldr	r0, [r4, #44]	; 0x2c
  402180:	4911      	ldr	r1, [pc, #68]	; (4021c8 <xTaskRemoveFromEventList+0x80>)
  402182:	680b      	ldr	r3, [r1, #0]
  402184:	2201      	movs	r2, #1
  402186:	4082      	lsls	r2, r0
  402188:	4313      	orrs	r3, r2
  40218a:	600b      	str	r3, [r1, #0]
  40218c:	eb00 0080 	add.w	r0, r0, r0, lsl #2
  402190:	4629      	mov	r1, r5
  402192:	4b0e      	ldr	r3, [pc, #56]	; (4021cc <xTaskRemoveFromEventList+0x84>)
  402194:	eb03 0080 	add.w	r0, r3, r0, lsl #2
  402198:	4b0d      	ldr	r3, [pc, #52]	; (4021d0 <xTaskRemoveFromEventList+0x88>)
  40219a:	4798      	blx	r3
  40219c:	e003      	b.n	4021a6 <xTaskRemoveFromEventList+0x5e>
  40219e:	4629      	mov	r1, r5
  4021a0:	480c      	ldr	r0, [pc, #48]	; (4021d4 <xTaskRemoveFromEventList+0x8c>)
  4021a2:	4b0b      	ldr	r3, [pc, #44]	; (4021d0 <xTaskRemoveFromEventList+0x88>)
  4021a4:	4798      	blx	r3
  4021a6:	4b0c      	ldr	r3, [pc, #48]	; (4021d8 <xTaskRemoveFromEventList+0x90>)
  4021a8:	681b      	ldr	r3, [r3, #0]
  4021aa:	6ae2      	ldr	r2, [r4, #44]	; 0x2c
  4021ac:	6adb      	ldr	r3, [r3, #44]	; 0x2c
  4021ae:	429a      	cmp	r2, r3
  4021b0:	d903      	bls.n	4021ba <xTaskRemoveFromEventList+0x72>
  4021b2:	2001      	movs	r0, #1
  4021b4:	4b09      	ldr	r3, [pc, #36]	; (4021dc <xTaskRemoveFromEventList+0x94>)
  4021b6:	6018      	str	r0, [r3, #0]
  4021b8:	bd38      	pop	{r3, r4, r5, pc}
  4021ba:	2000      	movs	r0, #0
  4021bc:	bd38      	pop	{r3, r4, r5, pc}
  4021be:	bf00      	nop
  4021c0:	00400b49 	.word	0x00400b49
  4021c4:	20400a04 	.word	0x20400a04
  4021c8:	20400a40 	.word	0x20400a40
  4021cc:	20400974 	.word	0x20400974
  4021d0:	00400afd 	.word	0x00400afd
  4021d4:	204009f0 	.word	0x204009f0
  4021d8:	204009ec 	.word	0x204009ec
  4021dc:	20400a44 	.word	0x20400a44

004021e0 <vTaskSetTimeOutState>:
  4021e0:	b950      	cbnz	r0, 4021f8 <vTaskSetTimeOutState+0x18>
  4021e2:	f04f 0380 	mov.w	r3, #128	; 0x80
  4021e6:	b672      	cpsid	i
  4021e8:	f383 8811 	msr	BASEPRI, r3
  4021ec:	f3bf 8f6f 	isb	sy
  4021f0:	f3bf 8f4f 	dsb	sy
  4021f4:	b662      	cpsie	i
  4021f6:	e7fe      	b.n	4021f6 <vTaskSetTimeOutState+0x16>
  4021f8:	4a03      	ldr	r2, [pc, #12]	; (402208 <vTaskSetTimeOutState+0x28>)
  4021fa:	6812      	ldr	r2, [r2, #0]
  4021fc:	6002      	str	r2, [r0, #0]
  4021fe:	4a03      	ldr	r2, [pc, #12]	; (40220c <vTaskSetTimeOutState+0x2c>)
  402200:	6812      	ldr	r2, [r2, #0]
  402202:	6042      	str	r2, [r0, #4]
  402204:	4770      	bx	lr
  402206:	bf00      	nop
  402208:	20400948 	.word	0x20400948
  40220c:	20400a08 	.word	0x20400a08

00402210 <xTaskCheckForTimeOut>:
  402210:	b538      	push	{r3, r4, r5, lr}
  402212:	b950      	cbnz	r0, 40222a <xTaskCheckForTimeOut+0x1a>
  402214:	f04f 0380 	mov.w	r3, #128	; 0x80
  402218:	b672      	cpsid	i
  40221a:	f383 8811 	msr	BASEPRI, r3
  40221e:	f3bf 8f6f 	isb	sy
  402222:	f3bf 8f4f 	dsb	sy
  402226:	b662      	cpsie	i
  402228:	e7fe      	b.n	402228 <xTaskCheckForTimeOut+0x18>
  40222a:	4604      	mov	r4, r0
  40222c:	b951      	cbnz	r1, 402244 <xTaskCheckForTimeOut+0x34>
  40222e:	f04f 0380 	mov.w	r3, #128	; 0x80
  402232:	b672      	cpsid	i
  402234:	f383 8811 	msr	BASEPRI, r3
  402238:	f3bf 8f6f 	isb	sy
  40223c:	f3bf 8f4f 	dsb	sy
  402240:	b662      	cpsie	i
  402242:	e7fe      	b.n	402242 <xTaskCheckForTimeOut+0x32>
  402244:	460d      	mov	r5, r1
  402246:	4b12      	ldr	r3, [pc, #72]	; (402290 <xTaskCheckForTimeOut+0x80>)
  402248:	4798      	blx	r3
  40224a:	4b12      	ldr	r3, [pc, #72]	; (402294 <xTaskCheckForTimeOut+0x84>)
  40224c:	6819      	ldr	r1, [r3, #0]
  40224e:	682b      	ldr	r3, [r5, #0]
  402250:	f1b3 3fff 	cmp.w	r3, #4294967295
  402254:	d013      	beq.n	40227e <xTaskCheckForTimeOut+0x6e>
  402256:	4a10      	ldr	r2, [pc, #64]	; (402298 <xTaskCheckForTimeOut+0x88>)
  402258:	6812      	ldr	r2, [r2, #0]
  40225a:	6820      	ldr	r0, [r4, #0]
  40225c:	4290      	cmp	r0, r2
  40225e:	d002      	beq.n	402266 <xTaskCheckForTimeOut+0x56>
  402260:	6862      	ldr	r2, [r4, #4]
  402262:	4291      	cmp	r1, r2
  402264:	d20d      	bcs.n	402282 <xTaskCheckForTimeOut+0x72>
  402266:	6862      	ldr	r2, [r4, #4]
  402268:	1a88      	subs	r0, r1, r2
  40226a:	4283      	cmp	r3, r0
  40226c:	d90b      	bls.n	402286 <xTaskCheckForTimeOut+0x76>
  40226e:	1a52      	subs	r2, r2, r1
  402270:	4413      	add	r3, r2
  402272:	602b      	str	r3, [r5, #0]
  402274:	4620      	mov	r0, r4
  402276:	4b09      	ldr	r3, [pc, #36]	; (40229c <xTaskCheckForTimeOut+0x8c>)
  402278:	4798      	blx	r3
  40227a:	2400      	movs	r4, #0
  40227c:	e004      	b.n	402288 <xTaskCheckForTimeOut+0x78>
  40227e:	2400      	movs	r4, #0
  402280:	e002      	b.n	402288 <xTaskCheckForTimeOut+0x78>
  402282:	2401      	movs	r4, #1
  402284:	e000      	b.n	402288 <xTaskCheckForTimeOut+0x78>
  402286:	2401      	movs	r4, #1
  402288:	4b05      	ldr	r3, [pc, #20]	; (4022a0 <xTaskCheckForTimeOut+0x90>)
  40228a:	4798      	blx	r3
  40228c:	4620      	mov	r0, r4
  40228e:	bd38      	pop	{r3, r4, r5, pc}
  402290:	00400c29 	.word	0x00400c29
  402294:	20400a08 	.word	0x20400a08
  402298:	20400948 	.word	0x20400948
  40229c:	004021e1 	.word	0x004021e1
  4022a0:	00400c75 	.word	0x00400c75

004022a4 <vTaskMissedYield>:
  4022a4:	2201      	movs	r2, #1
  4022a6:	4b01      	ldr	r3, [pc, #4]	; (4022ac <vTaskMissedYield+0x8>)
  4022a8:	601a      	str	r2, [r3, #0]
  4022aa:	4770      	bx	lr
  4022ac:	20400a44 	.word	0x20400a44

004022b0 <xTaskGetSchedulerState>:
  4022b0:	4b05      	ldr	r3, [pc, #20]	; (4022c8 <xTaskGetSchedulerState+0x18>)
  4022b2:	681b      	ldr	r3, [r3, #0]
  4022b4:	b133      	cbz	r3, 4022c4 <xTaskGetSchedulerState+0x14>
  4022b6:	4b05      	ldr	r3, [pc, #20]	; (4022cc <xTaskGetSchedulerState+0x1c>)
  4022b8:	681b      	ldr	r3, [r3, #0]
  4022ba:	2b00      	cmp	r3, #0
  4022bc:	bf0c      	ite	eq
  4022be:	2002      	moveq	r0, #2
  4022c0:	2000      	movne	r0, #0
  4022c2:	4770      	bx	lr
  4022c4:	2001      	movs	r0, #1
  4022c6:	4770      	bx	lr
  4022c8:	20400950 	.word	0x20400950
  4022cc:	20400a04 	.word	0x20400a04

004022d0 <vTaskPriorityInherit>:
  4022d0:	2800      	cmp	r0, #0
  4022d2:	d045      	beq.n	402360 <vTaskPriorityInherit+0x90>
  4022d4:	b538      	push	{r3, r4, r5, lr}
  4022d6:	4603      	mov	r3, r0
  4022d8:	6ac2      	ldr	r2, [r0, #44]	; 0x2c
  4022da:	4922      	ldr	r1, [pc, #136]	; (402364 <vTaskPriorityInherit+0x94>)
  4022dc:	6809      	ldr	r1, [r1, #0]
  4022de:	6ac9      	ldr	r1, [r1, #44]	; 0x2c
  4022e0:	428a      	cmp	r2, r1
  4022e2:	d23c      	bcs.n	40235e <vTaskPriorityInherit+0x8e>
  4022e4:	6981      	ldr	r1, [r0, #24]
  4022e6:	2900      	cmp	r1, #0
  4022e8:	db05      	blt.n	4022f6 <vTaskPriorityInherit+0x26>
  4022ea:	491e      	ldr	r1, [pc, #120]	; (402364 <vTaskPriorityInherit+0x94>)
  4022ec:	6809      	ldr	r1, [r1, #0]
  4022ee:	6ac9      	ldr	r1, [r1, #44]	; 0x2c
  4022f0:	f1c1 0105 	rsb	r1, r1, #5
  4022f4:	6181      	str	r1, [r0, #24]
  4022f6:	eb02 0282 	add.w	r2, r2, r2, lsl #2
  4022fa:	491b      	ldr	r1, [pc, #108]	; (402368 <vTaskPriorityInherit+0x98>)
  4022fc:	eb01 0282 	add.w	r2, r1, r2, lsl #2
  402300:	6959      	ldr	r1, [r3, #20]
  402302:	4291      	cmp	r1, r2
  402304:	d127      	bne.n	402356 <vTaskPriorityInherit+0x86>
  402306:	461c      	mov	r4, r3
  402308:	1d1d      	adds	r5, r3, #4
  40230a:	4628      	mov	r0, r5
  40230c:	4b17      	ldr	r3, [pc, #92]	; (40236c <vTaskPriorityInherit+0x9c>)
  40230e:	4798      	blx	r3
  402310:	b970      	cbnz	r0, 402330 <vTaskPriorityInherit+0x60>
  402312:	6ae3      	ldr	r3, [r4, #44]	; 0x2c
  402314:	eb03 0183 	add.w	r1, r3, r3, lsl #2
  402318:	4a13      	ldr	r2, [pc, #76]	; (402368 <vTaskPriorityInherit+0x98>)
  40231a:	f852 2021 	ldr.w	r2, [r2, r1, lsl #2]
  40231e:	b93a      	cbnz	r2, 402330 <vTaskPriorityInherit+0x60>
  402320:	4813      	ldr	r0, [pc, #76]	; (402370 <vTaskPriorityInherit+0xa0>)
  402322:	6802      	ldr	r2, [r0, #0]
  402324:	2101      	movs	r1, #1
  402326:	fa01 f303 	lsl.w	r3, r1, r3
  40232a:	ea22 0303 	bic.w	r3, r2, r3
  40232e:	6003      	str	r3, [r0, #0]
  402330:	4b0c      	ldr	r3, [pc, #48]	; (402364 <vTaskPriorityInherit+0x94>)
  402332:	681b      	ldr	r3, [r3, #0]
  402334:	6ad8      	ldr	r0, [r3, #44]	; 0x2c
  402336:	62e0      	str	r0, [r4, #44]	; 0x2c
  402338:	490d      	ldr	r1, [pc, #52]	; (402370 <vTaskPriorityInherit+0xa0>)
  40233a:	680a      	ldr	r2, [r1, #0]
  40233c:	2301      	movs	r3, #1
  40233e:	4083      	lsls	r3, r0
  402340:	4313      	orrs	r3, r2
  402342:	600b      	str	r3, [r1, #0]
  402344:	eb00 0080 	add.w	r0, r0, r0, lsl #2
  402348:	4629      	mov	r1, r5
  40234a:	4b07      	ldr	r3, [pc, #28]	; (402368 <vTaskPriorityInherit+0x98>)
  40234c:	eb03 0080 	add.w	r0, r3, r0, lsl #2
  402350:	4b08      	ldr	r3, [pc, #32]	; (402374 <vTaskPriorityInherit+0xa4>)
  402352:	4798      	blx	r3
  402354:	bd38      	pop	{r3, r4, r5, pc}
  402356:	4a03      	ldr	r2, [pc, #12]	; (402364 <vTaskPriorityInherit+0x94>)
  402358:	6812      	ldr	r2, [r2, #0]
  40235a:	6ad2      	ldr	r2, [r2, #44]	; 0x2c
  40235c:	62da      	str	r2, [r3, #44]	; 0x2c
  40235e:	bd38      	pop	{r3, r4, r5, pc}
  402360:	4770      	bx	lr
  402362:	bf00      	nop
  402364:	204009ec 	.word	0x204009ec
  402368:	20400974 	.word	0x20400974
  40236c:	00400b49 	.word	0x00400b49
  402370:	20400a40 	.word	0x20400a40
  402374:	00400afd 	.word	0x00400afd

00402378 <xTaskPriorityDisinherit>:
  402378:	2800      	cmp	r0, #0
  40237a:	d04e      	beq.n	40241a <xTaskPriorityDisinherit+0xa2>
  40237c:	b538      	push	{r3, r4, r5, lr}
  40237e:	4603      	mov	r3, r0
  402380:	4a28      	ldr	r2, [pc, #160]	; (402424 <xTaskPriorityDisinherit+0xac>)
  402382:	6812      	ldr	r2, [r2, #0]
  402384:	4290      	cmp	r0, r2
  402386:	d00a      	beq.n	40239e <xTaskPriorityDisinherit+0x26>
  402388:	f04f 0380 	mov.w	r3, #128	; 0x80
  40238c:	b672      	cpsid	i
  40238e:	f383 8811 	msr	BASEPRI, r3
  402392:	f3bf 8f6f 	isb	sy
  402396:	f3bf 8f4f 	dsb	sy
  40239a:	b662      	cpsie	i
  40239c:	e7fe      	b.n	40239c <xTaskPriorityDisinherit+0x24>
  40239e:	6cc2      	ldr	r2, [r0, #76]	; 0x4c
  4023a0:	b952      	cbnz	r2, 4023b8 <xTaskPriorityDisinherit+0x40>
  4023a2:	f04f 0380 	mov.w	r3, #128	; 0x80
  4023a6:	b672      	cpsid	i
  4023a8:	f383 8811 	msr	BASEPRI, r3
  4023ac:	f3bf 8f6f 	isb	sy
  4023b0:	f3bf 8f4f 	dsb	sy
  4023b4:	b662      	cpsie	i
  4023b6:	e7fe      	b.n	4023b6 <xTaskPriorityDisinherit+0x3e>
  4023b8:	3a01      	subs	r2, #1
  4023ba:	64c2      	str	r2, [r0, #76]	; 0x4c
  4023bc:	6ac0      	ldr	r0, [r0, #44]	; 0x2c
  4023be:	6c99      	ldr	r1, [r3, #72]	; 0x48
  4023c0:	4288      	cmp	r0, r1
  4023c2:	d02c      	beq.n	40241e <xTaskPriorityDisinherit+0xa6>
  4023c4:	bb5a      	cbnz	r2, 40241e <xTaskPriorityDisinherit+0xa6>
  4023c6:	461c      	mov	r4, r3
  4023c8:	1d1d      	adds	r5, r3, #4
  4023ca:	4628      	mov	r0, r5
  4023cc:	4b16      	ldr	r3, [pc, #88]	; (402428 <xTaskPriorityDisinherit+0xb0>)
  4023ce:	4798      	blx	r3
  4023d0:	b968      	cbnz	r0, 4023ee <xTaskPriorityDisinherit+0x76>
  4023d2:	6ae1      	ldr	r1, [r4, #44]	; 0x2c
  4023d4:	eb01 0281 	add.w	r2, r1, r1, lsl #2
  4023d8:	4b14      	ldr	r3, [pc, #80]	; (40242c <xTaskPriorityDisinherit+0xb4>)
  4023da:	f853 3022 	ldr.w	r3, [r3, r2, lsl #2]
  4023de:	b933      	cbnz	r3, 4023ee <xTaskPriorityDisinherit+0x76>
  4023e0:	4813      	ldr	r0, [pc, #76]	; (402430 <xTaskPriorityDisinherit+0xb8>)
  4023e2:	6803      	ldr	r3, [r0, #0]
  4023e4:	2201      	movs	r2, #1
  4023e6:	408a      	lsls	r2, r1
  4023e8:	ea23 0302 	bic.w	r3, r3, r2
  4023ec:	6003      	str	r3, [r0, #0]
  4023ee:	6ca0      	ldr	r0, [r4, #72]	; 0x48
  4023f0:	62e0      	str	r0, [r4, #44]	; 0x2c
  4023f2:	f1c0 0305 	rsb	r3, r0, #5
  4023f6:	61a3      	str	r3, [r4, #24]
  4023f8:	4a0d      	ldr	r2, [pc, #52]	; (402430 <xTaskPriorityDisinherit+0xb8>)
  4023fa:	6813      	ldr	r3, [r2, #0]
  4023fc:	2401      	movs	r4, #1
  4023fe:	fa04 f100 	lsl.w	r1, r4, r0
  402402:	430b      	orrs	r3, r1
  402404:	6013      	str	r3, [r2, #0]
  402406:	eb00 0080 	add.w	r0, r0, r0, lsl #2
  40240a:	4629      	mov	r1, r5
  40240c:	4b07      	ldr	r3, [pc, #28]	; (40242c <xTaskPriorityDisinherit+0xb4>)
  40240e:	eb03 0080 	add.w	r0, r3, r0, lsl #2
  402412:	4b08      	ldr	r3, [pc, #32]	; (402434 <xTaskPriorityDisinherit+0xbc>)
  402414:	4798      	blx	r3
  402416:	4620      	mov	r0, r4
  402418:	bd38      	pop	{r3, r4, r5, pc}
  40241a:	2000      	movs	r0, #0
  40241c:	4770      	bx	lr
  40241e:	2000      	movs	r0, #0
  402420:	bd38      	pop	{r3, r4, r5, pc}
  402422:	bf00      	nop
  402424:	204009ec 	.word	0x204009ec
  402428:	00400b49 	.word	0x00400b49
  40242c:	20400974 	.word	0x20400974
  402430:	20400a40 	.word	0x20400a40
  402434:	00400afd 	.word	0x00400afd

00402438 <vTaskList>:
  402438:	e92d 47f0 	stmdb	sp!, {r4, r5, r6, r7, r8, r9, sl, lr}
  40243c:	b084      	sub	sp, #16
  40243e:	4604      	mov	r4, r0
  402440:	2300      	movs	r3, #0
  402442:	7003      	strb	r3, [r0, #0]
  402444:	4b34      	ldr	r3, [pc, #208]	; (402518 <vTaskList+0xe0>)
  402446:	681a      	ldr	r2, [r3, #0]
  402448:	9203      	str	r2, [sp, #12]
  40244a:	6818      	ldr	r0, [r3, #0]
  40244c:	0140      	lsls	r0, r0, #5
  40244e:	4b33      	ldr	r3, [pc, #204]	; (40251c <vTaskList+0xe4>)
  402450:	4798      	blx	r3
  402452:	2800      	cmp	r0, #0
  402454:	d05c      	beq.n	402510 <vTaskList+0xd8>
  402456:	4605      	mov	r5, r0
  402458:	9903      	ldr	r1, [sp, #12]
  40245a:	2200      	movs	r2, #0
  40245c:	4b30      	ldr	r3, [pc, #192]	; (402520 <vTaskList+0xe8>)
  40245e:	4798      	blx	r3
  402460:	9003      	str	r0, [sp, #12]
  402462:	2300      	movs	r3, #0
  402464:	9302      	str	r3, [sp, #8]
  402466:	9a02      	ldr	r2, [sp, #8]
  402468:	9b03      	ldr	r3, [sp, #12]
  40246a:	429a      	cmp	r2, r3
  40246c:	d24d      	bcs.n	40250a <vTaskList+0xd2>
  40246e:	f04f 0800 	mov.w	r8, #0
  402472:	f8df 90c0 	ldr.w	r9, [pc, #192]	; 402534 <vTaskList+0xfc>
  402476:	4e2b      	ldr	r6, [pc, #172]	; (402524 <vTaskList+0xec>)
  402478:	9b02      	ldr	r3, [sp, #8]
  40247a:	eb05 1343 	add.w	r3, r5, r3, lsl #5
  40247e:	7b1b      	ldrb	r3, [r3, #12]
  402480:	3b01      	subs	r3, #1
  402482:	2b03      	cmp	r3, #3
  402484:	d809      	bhi.n	40249a <vTaskList+0x62>
  402486:	e8df f003 	tbb	[pc, r3]
  40248a:	020a      	.short	0x020a
  40248c:	0604      	.short	0x0604
  40248e:	2742      	movs	r7, #66	; 0x42
  402490:	e006      	b.n	4024a0 <vTaskList+0x68>
  402492:	2753      	movs	r7, #83	; 0x53
  402494:	e004      	b.n	4024a0 <vTaskList+0x68>
  402496:	2744      	movs	r7, #68	; 0x44
  402498:	e002      	b.n	4024a0 <vTaskList+0x68>
  40249a:	4647      	mov	r7, r8
  40249c:	e000      	b.n	4024a0 <vTaskList+0x68>
  40249e:	2752      	movs	r7, #82	; 0x52
  4024a0:	9b02      	ldr	r3, [sp, #8]
  4024a2:	eb05 1343 	add.w	r3, r5, r3, lsl #5
  4024a6:	6859      	ldr	r1, [r3, #4]
  4024a8:	4620      	mov	r0, r4
  4024aa:	47c8      	blx	r9
  4024ac:	4620      	mov	r0, r4
  4024ae:	47b0      	blx	r6
  4024b0:	2808      	cmp	r0, #8
  4024b2:	d808      	bhi.n	4024c6 <vTaskList+0x8e>
  4024b4:	4420      	add	r0, r4
  4024b6:	f104 0209 	add.w	r2, r4, #9
  4024ba:	2320      	movs	r3, #32
  4024bc:	f800 3b01 	strb.w	r3, [r0], #1
  4024c0:	4290      	cmp	r0, r2
  4024c2:	d1fb      	bne.n	4024bc <vTaskList+0x84>
  4024c4:	2009      	movs	r0, #9
  4024c6:	eb04 0a00 	add.w	sl, r4, r0
  4024ca:	f804 8000 	strb.w	r8, [r4, r0]
  4024ce:	9b02      	ldr	r3, [sp, #8]
  4024d0:	9a02      	ldr	r2, [sp, #8]
  4024d2:	9902      	ldr	r1, [sp, #8]
  4024d4:	eb05 1343 	add.w	r3, r5, r3, lsl #5
  4024d8:	691b      	ldr	r3, [r3, #16]
  4024da:	eb05 1141 	add.w	r1, r5, r1, lsl #5
  4024de:	6889      	ldr	r1, [r1, #8]
  4024e0:	9101      	str	r1, [sp, #4]
  4024e2:	eb05 1242 	add.w	r2, r5, r2, lsl #5
  4024e6:	8b92      	ldrh	r2, [r2, #28]
  4024e8:	9200      	str	r2, [sp, #0]
  4024ea:	463a      	mov	r2, r7
  4024ec:	490e      	ldr	r1, [pc, #56]	; (402528 <vTaskList+0xf0>)
  4024ee:	4650      	mov	r0, sl
  4024f0:	4c0e      	ldr	r4, [pc, #56]	; (40252c <vTaskList+0xf4>)
  4024f2:	47a0      	blx	r4
  4024f4:	4650      	mov	r0, sl
  4024f6:	47b0      	blx	r6
  4024f8:	eb0a 0400 	add.w	r4, sl, r0
  4024fc:	9b02      	ldr	r3, [sp, #8]
  4024fe:	3301      	adds	r3, #1
  402500:	9302      	str	r3, [sp, #8]
  402502:	9a02      	ldr	r2, [sp, #8]
  402504:	9b03      	ldr	r3, [sp, #12]
  402506:	429a      	cmp	r2, r3
  402508:	d3b6      	bcc.n	402478 <vTaskList+0x40>
  40250a:	4628      	mov	r0, r5
  40250c:	4b08      	ldr	r3, [pc, #32]	; (402530 <vTaskList+0xf8>)
  40250e:	4798      	blx	r3
  402510:	b004      	add	sp, #16
  402512:	e8bd 87f0 	ldmia.w	sp!, {r4, r5, r6, r7, r8, r9, sl, pc}
  402516:	bf00      	nop
  402518:	20400a14 	.word	0x20400a14
  40251c:	00400e85 	.word	0x00400e85
  402520:	00401ecd 	.word	0x00401ecd
  402524:	00403b41 	.word	0x00403b41
  402528:	004098f4 	.word	0x004098f4
  40252c:	004039fd 	.word	0x004039fd
  402530:	00400eb5 	.word	0x00400eb5
  402534:	00403a49 	.word	0x00403a49

00402538 <pvTaskIncrementMutexHeldCount>:
  402538:	4b05      	ldr	r3, [pc, #20]	; (402550 <pvTaskIncrementMutexHeldCount+0x18>)
  40253a:	681b      	ldr	r3, [r3, #0]
  40253c:	b123      	cbz	r3, 402548 <pvTaskIncrementMutexHeldCount+0x10>
  40253e:	4b04      	ldr	r3, [pc, #16]	; (402550 <pvTaskIncrementMutexHeldCount+0x18>)
  402540:	681a      	ldr	r2, [r3, #0]
  402542:	6cd3      	ldr	r3, [r2, #76]	; 0x4c
  402544:	3301      	adds	r3, #1
  402546:	64d3      	str	r3, [r2, #76]	; 0x4c
  402548:	4b01      	ldr	r3, [pc, #4]	; (402550 <pvTaskIncrementMutexHeldCount+0x18>)
  40254a:	6818      	ldr	r0, [r3, #0]
  40254c:	4770      	bx	lr
  40254e:	bf00      	nop
  402550:	204009ec 	.word	0x204009ec

00402554 <prvInsertTimerInActiveList>:
  402554:	b508      	push	{r3, lr}
  402556:	6041      	str	r1, [r0, #4]
  402558:	6100      	str	r0, [r0, #16]
  40255a:	4291      	cmp	r1, r2
  40255c:	d80a      	bhi.n	402574 <prvInsertTimerInActiveList+0x20>
  40255e:	1ad2      	subs	r2, r2, r3
  402560:	6983      	ldr	r3, [r0, #24]
  402562:	429a      	cmp	r2, r3
  402564:	d211      	bcs.n	40258a <prvInsertTimerInActiveList+0x36>
  402566:	1d01      	adds	r1, r0, #4
  402568:	4b0a      	ldr	r3, [pc, #40]	; (402594 <prvInsertTimerInActiveList+0x40>)
  40256a:	6818      	ldr	r0, [r3, #0]
  40256c:	4b0a      	ldr	r3, [pc, #40]	; (402598 <prvInsertTimerInActiveList+0x44>)
  40256e:	4798      	blx	r3
  402570:	2000      	movs	r0, #0
  402572:	bd08      	pop	{r3, pc}
  402574:	429a      	cmp	r2, r3
  402576:	d201      	bcs.n	40257c <prvInsertTimerInActiveList+0x28>
  402578:	4299      	cmp	r1, r3
  40257a:	d208      	bcs.n	40258e <prvInsertTimerInActiveList+0x3a>
  40257c:	1d01      	adds	r1, r0, #4
  40257e:	4b07      	ldr	r3, [pc, #28]	; (40259c <prvInsertTimerInActiveList+0x48>)
  402580:	6818      	ldr	r0, [r3, #0]
  402582:	4b05      	ldr	r3, [pc, #20]	; (402598 <prvInsertTimerInActiveList+0x44>)
  402584:	4798      	blx	r3
  402586:	2000      	movs	r0, #0
  402588:	bd08      	pop	{r3, pc}
  40258a:	2001      	movs	r0, #1
  40258c:	bd08      	pop	{r3, pc}
  40258e:	2001      	movs	r0, #1
  402590:	bd08      	pop	{r3, pc}
  402592:	bf00      	nop
  402594:	20400a7c 	.word	0x20400a7c
  402598:	00400b15 	.word	0x00400b15
  40259c:	20400a48 	.word	0x20400a48

004025a0 <prvCheckForValidListAndQueue>:
  4025a0:	b570      	push	{r4, r5, r6, lr}
  4025a2:	4b14      	ldr	r3, [pc, #80]	; (4025f4 <prvCheckForValidListAndQueue+0x54>)
  4025a4:	4798      	blx	r3
  4025a6:	4b14      	ldr	r3, [pc, #80]	; (4025f8 <prvCheckForValidListAndQueue+0x58>)
  4025a8:	681b      	ldr	r3, [r3, #0]
  4025aa:	bb03      	cbnz	r3, 4025ee <prvCheckForValidListAndQueue+0x4e>
  4025ac:	4d13      	ldr	r5, [pc, #76]	; (4025fc <prvCheckForValidListAndQueue+0x5c>)
  4025ae:	4628      	mov	r0, r5
  4025b0:	4e13      	ldr	r6, [pc, #76]	; (402600 <prvCheckForValidListAndQueue+0x60>)
  4025b2:	47b0      	blx	r6
  4025b4:	4c13      	ldr	r4, [pc, #76]	; (402604 <prvCheckForValidListAndQueue+0x64>)
  4025b6:	4620      	mov	r0, r4
  4025b8:	47b0      	blx	r6
  4025ba:	4b13      	ldr	r3, [pc, #76]	; (402608 <prvCheckForValidListAndQueue+0x68>)
  4025bc:	601d      	str	r5, [r3, #0]
  4025be:	4b13      	ldr	r3, [pc, #76]	; (40260c <prvCheckForValidListAndQueue+0x6c>)
  4025c0:	601c      	str	r4, [r3, #0]
  4025c2:	2200      	movs	r2, #0
  4025c4:	2110      	movs	r1, #16
  4025c6:	2005      	movs	r0, #5
  4025c8:	4b11      	ldr	r3, [pc, #68]	; (402610 <prvCheckForValidListAndQueue+0x70>)
  4025ca:	4798      	blx	r3
  4025cc:	4b0a      	ldr	r3, [pc, #40]	; (4025f8 <prvCheckForValidListAndQueue+0x58>)
  4025ce:	6018      	str	r0, [r3, #0]
  4025d0:	b950      	cbnz	r0, 4025e8 <prvCheckForValidListAndQueue+0x48>
  4025d2:	f04f 0380 	mov.w	r3, #128	; 0x80
  4025d6:	b672      	cpsid	i
  4025d8:	f383 8811 	msr	BASEPRI, r3
  4025dc:	f3bf 8f6f 	isb	sy
  4025e0:	f3bf 8f4f 	dsb	sy
  4025e4:	b662      	cpsie	i
  4025e6:	e7fe      	b.n	4025e6 <prvCheckForValidListAndQueue+0x46>
  4025e8:	490a      	ldr	r1, [pc, #40]	; (402614 <prvCheckForValidListAndQueue+0x74>)
  4025ea:	4b0b      	ldr	r3, [pc, #44]	; (402618 <prvCheckForValidListAndQueue+0x78>)
  4025ec:	4798      	blx	r3
  4025ee:	4b0b      	ldr	r3, [pc, #44]	; (40261c <prvCheckForValidListAndQueue+0x7c>)
  4025f0:	4798      	blx	r3
  4025f2:	bd70      	pop	{r4, r5, r6, pc}
  4025f4:	00400c29 	.word	0x00400c29
  4025f8:	20400a78 	.word	0x20400a78
  4025fc:	20400a4c 	.word	0x20400a4c
  402600:	00400add 	.word	0x00400add
  402604:	20400a60 	.word	0x20400a60
  402608:	20400a48 	.word	0x20400a48
  40260c:	20400a7c 	.word	0x20400a7c
  402610:	0040113d 	.word	0x0040113d
  402614:	00409904 	.word	0x00409904
  402618:	004016b1 	.word	0x004016b1
  40261c:	00400c75 	.word	0x00400c75

00402620 <xTimerCreateTimerTask>:
  402620:	b510      	push	{r4, lr}
  402622:	b084      	sub	sp, #16
  402624:	4b0f      	ldr	r3, [pc, #60]	; (402664 <xTimerCreateTimerTask+0x44>)
  402626:	4798      	blx	r3
  402628:	4b0f      	ldr	r3, [pc, #60]	; (402668 <xTimerCreateTimerTask+0x48>)
  40262a:	681b      	ldr	r3, [r3, #0]
  40262c:	b163      	cbz	r3, 402648 <xTimerCreateTimerTask+0x28>
  40262e:	2300      	movs	r3, #0
  402630:	9303      	str	r3, [sp, #12]
  402632:	9302      	str	r3, [sp, #8]
  402634:	9301      	str	r3, [sp, #4]
  402636:	2204      	movs	r2, #4
  402638:	9200      	str	r2, [sp, #0]
  40263a:	f44f 7282 	mov.w	r2, #260	; 0x104
  40263e:	490b      	ldr	r1, [pc, #44]	; (40266c <xTimerCreateTimerTask+0x4c>)
  402640:	480b      	ldr	r0, [pc, #44]	; (402670 <xTimerCreateTimerTask+0x50>)
  402642:	4c0c      	ldr	r4, [pc, #48]	; (402674 <xTimerCreateTimerTask+0x54>)
  402644:	47a0      	blx	r4
  402646:	b950      	cbnz	r0, 40265e <xTimerCreateTimerTask+0x3e>
  402648:	f04f 0380 	mov.w	r3, #128	; 0x80
  40264c:	b672      	cpsid	i
  40264e:	f383 8811 	msr	BASEPRI, r3
  402652:	f3bf 8f6f 	isb	sy
  402656:	f3bf 8f4f 	dsb	sy
  40265a:	b662      	cpsie	i
  40265c:	e7fe      	b.n	40265c <xTimerCreateTimerTask+0x3c>
  40265e:	b004      	add	sp, #16
  402660:	bd10      	pop	{r4, pc}
  402662:	bf00      	nop
  402664:	004025a1 	.word	0x004025a1
  402668:	20400a78 	.word	0x20400a78
  40266c:	0040990c 	.word	0x0040990c
  402670:	004027a5 	.word	0x004027a5
  402674:	0040186d 	.word	0x0040186d

00402678 <xTimerGenericCommand>:
  402678:	b950      	cbnz	r0, 402690 <xTimerGenericCommand+0x18>
  40267a:	f04f 0380 	mov.w	r3, #128	; 0x80
  40267e:	b672      	cpsid	i
  402680:	f383 8811 	msr	BASEPRI, r3
  402684:	f3bf 8f6f 	isb	sy
  402688:	f3bf 8f4f 	dsb	sy
  40268c:	b662      	cpsie	i
  40268e:	e7fe      	b.n	40268e <xTimerGenericCommand+0x16>
  402690:	b530      	push	{r4, r5, lr}
  402692:	b085      	sub	sp, #20
  402694:	4615      	mov	r5, r2
  402696:	4604      	mov	r4, r0
  402698:	4a0f      	ldr	r2, [pc, #60]	; (4026d8 <xTimerGenericCommand+0x60>)
  40269a:	6810      	ldr	r0, [r2, #0]
  40269c:	b1c0      	cbz	r0, 4026d0 <xTimerGenericCommand+0x58>
  40269e:	461a      	mov	r2, r3
  4026a0:	9100      	str	r1, [sp, #0]
  4026a2:	9501      	str	r5, [sp, #4]
  4026a4:	9402      	str	r4, [sp, #8]
  4026a6:	2905      	cmp	r1, #5
  4026a8:	dc0d      	bgt.n	4026c6 <xTimerGenericCommand+0x4e>
  4026aa:	4b0c      	ldr	r3, [pc, #48]	; (4026dc <xTimerGenericCommand+0x64>)
  4026ac:	4798      	blx	r3
  4026ae:	2802      	cmp	r0, #2
  4026b0:	f04f 0300 	mov.w	r3, #0
  4026b4:	bf0c      	ite	eq
  4026b6:	9a08      	ldreq	r2, [sp, #32]
  4026b8:	461a      	movne	r2, r3
  4026ba:	4669      	mov	r1, sp
  4026bc:	4806      	ldr	r0, [pc, #24]	; (4026d8 <xTimerGenericCommand+0x60>)
  4026be:	6800      	ldr	r0, [r0, #0]
  4026c0:	4c07      	ldr	r4, [pc, #28]	; (4026e0 <xTimerGenericCommand+0x68>)
  4026c2:	47a0      	blx	r4
  4026c4:	e005      	b.n	4026d2 <xTimerGenericCommand+0x5a>
  4026c6:	2300      	movs	r3, #0
  4026c8:	4669      	mov	r1, sp
  4026ca:	4c06      	ldr	r4, [pc, #24]	; (4026e4 <xTimerGenericCommand+0x6c>)
  4026cc:	47a0      	blx	r4
  4026ce:	e000      	b.n	4026d2 <xTimerGenericCommand+0x5a>
  4026d0:	2000      	movs	r0, #0
  4026d2:	b005      	add	sp, #20
  4026d4:	bd30      	pop	{r4, r5, pc}
  4026d6:	bf00      	nop
  4026d8:	20400a78 	.word	0x20400a78
  4026dc:	004022b1 	.word	0x004022b1
  4026e0:	004011c1 	.word	0x004011c1
  4026e4:	004013f5 	.word	0x004013f5

004026e8 <prvSampleTimeNow>:
  4026e8:	e92d 47f0 	stmdb	sp!, {r4, r5, r6, r7, r8, r9, sl, lr}
  4026ec:	b082      	sub	sp, #8
  4026ee:	4680      	mov	r8, r0
  4026f0:	4b25      	ldr	r3, [pc, #148]	; (402788 <prvSampleTimeNow+0xa0>)
  4026f2:	4798      	blx	r3
  4026f4:	4607      	mov	r7, r0
  4026f6:	4b25      	ldr	r3, [pc, #148]	; (40278c <prvSampleTimeNow+0xa4>)
  4026f8:	681b      	ldr	r3, [r3, #0]
  4026fa:	4298      	cmp	r0, r3
  4026fc:	d23b      	bcs.n	402776 <prvSampleTimeNow+0x8e>
  4026fe:	e02b      	b.n	402758 <prvSampleTimeNow+0x70>
  402700:	68db      	ldr	r3, [r3, #12]
  402702:	f8d3 a000 	ldr.w	sl, [r3]
  402706:	68dc      	ldr	r4, [r3, #12]
  402708:	f104 0904 	add.w	r9, r4, #4
  40270c:	4648      	mov	r0, r9
  40270e:	47b0      	blx	r6
  402710:	6a63      	ldr	r3, [r4, #36]	; 0x24
  402712:	4620      	mov	r0, r4
  402714:	4798      	blx	r3
  402716:	69e3      	ldr	r3, [r4, #28]
  402718:	2b01      	cmp	r3, #1
  40271a:	d11f      	bne.n	40275c <prvSampleTimeNow+0x74>
  40271c:	69a3      	ldr	r3, [r4, #24]
  40271e:	4453      	add	r3, sl
  402720:	459a      	cmp	sl, r3
  402722:	d206      	bcs.n	402732 <prvSampleTimeNow+0x4a>
  402724:	6063      	str	r3, [r4, #4]
  402726:	6124      	str	r4, [r4, #16]
  402728:	4649      	mov	r1, r9
  40272a:	6828      	ldr	r0, [r5, #0]
  40272c:	4b18      	ldr	r3, [pc, #96]	; (402790 <prvSampleTimeNow+0xa8>)
  40272e:	4798      	blx	r3
  402730:	e014      	b.n	40275c <prvSampleTimeNow+0x74>
  402732:	2100      	movs	r1, #0
  402734:	9100      	str	r1, [sp, #0]
  402736:	460b      	mov	r3, r1
  402738:	4652      	mov	r2, sl
  40273a:	4620      	mov	r0, r4
  40273c:	4c15      	ldr	r4, [pc, #84]	; (402794 <prvSampleTimeNow+0xac>)
  40273e:	47a0      	blx	r4
  402740:	b960      	cbnz	r0, 40275c <prvSampleTimeNow+0x74>
  402742:	f04f 0380 	mov.w	r3, #128	; 0x80
  402746:	b672      	cpsid	i
  402748:	f383 8811 	msr	BASEPRI, r3
  40274c:	f3bf 8f6f 	isb	sy
  402750:	f3bf 8f4f 	dsb	sy
  402754:	b662      	cpsie	i
  402756:	e7fe      	b.n	402756 <prvSampleTimeNow+0x6e>
  402758:	4d0f      	ldr	r5, [pc, #60]	; (402798 <prvSampleTimeNow+0xb0>)
  40275a:	4e10      	ldr	r6, [pc, #64]	; (40279c <prvSampleTimeNow+0xb4>)
  40275c:	682b      	ldr	r3, [r5, #0]
  40275e:	681a      	ldr	r2, [r3, #0]
  402760:	2a00      	cmp	r2, #0
  402762:	d1cd      	bne.n	402700 <prvSampleTimeNow+0x18>
  402764:	4a0e      	ldr	r2, [pc, #56]	; (4027a0 <prvSampleTimeNow+0xb8>)
  402766:	6810      	ldr	r0, [r2, #0]
  402768:	490b      	ldr	r1, [pc, #44]	; (402798 <prvSampleTimeNow+0xb0>)
  40276a:	6008      	str	r0, [r1, #0]
  40276c:	6013      	str	r3, [r2, #0]
  40276e:	2301      	movs	r3, #1
  402770:	f8c8 3000 	str.w	r3, [r8]
  402774:	e002      	b.n	40277c <prvSampleTimeNow+0x94>
  402776:	2300      	movs	r3, #0
  402778:	f8c8 3000 	str.w	r3, [r8]
  40277c:	4b03      	ldr	r3, [pc, #12]	; (40278c <prvSampleTimeNow+0xa4>)
  40277e:	601f      	str	r7, [r3, #0]
  402780:	4638      	mov	r0, r7
  402782:	b002      	add	sp, #8
  402784:	e8bd 87f0 	ldmia.w	sp!, {r4, r5, r6, r7, r8, r9, sl, pc}
  402788:	00401b35 	.word	0x00401b35
  40278c:	20400a74 	.word	0x20400a74
  402790:	00400b15 	.word	0x00400b15
  402794:	00402679 	.word	0x00402679
  402798:	20400a48 	.word	0x20400a48
  40279c:	00400b49 	.word	0x00400b49
  4027a0:	20400a7c 	.word	0x20400a7c

004027a4 <prvTimerTask>:
  4027a4:	e92d 43f0 	stmdb	sp!, {r4, r5, r6, r7, r8, r9, lr}
  4027a8:	b089      	sub	sp, #36	; 0x24
  4027aa:	4c68      	ldr	r4, [pc, #416]	; (40294c <prvTimerTask+0x1a8>)
  4027ac:	f8df 81cc 	ldr.w	r8, [pc, #460]	; 40297c <prvTimerTask+0x1d8>
  4027b0:	4d67      	ldr	r5, [pc, #412]	; (402950 <prvTimerTask+0x1ac>)
  4027b2:	4b68      	ldr	r3, [pc, #416]	; (402954 <prvTimerTask+0x1b0>)
  4027b4:	681b      	ldr	r3, [r3, #0]
  4027b6:	681a      	ldr	r2, [r3, #0]
  4027b8:	2a00      	cmp	r2, #0
  4027ba:	f000 80b5 	beq.w	402928 <prvTimerTask+0x184>
  4027be:	68db      	ldr	r3, [r3, #12]
  4027c0:	681e      	ldr	r6, [r3, #0]
  4027c2:	4b65      	ldr	r3, [pc, #404]	; (402958 <prvTimerTask+0x1b4>)
  4027c4:	4798      	blx	r3
  4027c6:	a804      	add	r0, sp, #16
  4027c8:	4b64      	ldr	r3, [pc, #400]	; (40295c <prvTimerTask+0x1b8>)
  4027ca:	4798      	blx	r3
  4027cc:	4607      	mov	r7, r0
  4027ce:	9b04      	ldr	r3, [sp, #16]
  4027d0:	2b00      	cmp	r3, #0
  4027d2:	d144      	bne.n	40285e <prvTimerTask+0xba>
  4027d4:	42b0      	cmp	r0, r6
  4027d6:	d330      	bcc.n	40283a <prvTimerTask+0x96>
  4027d8:	4b61      	ldr	r3, [pc, #388]	; (402960 <prvTimerTask+0x1bc>)
  4027da:	4798      	blx	r3
  4027dc:	4b5d      	ldr	r3, [pc, #372]	; (402954 <prvTimerTask+0x1b0>)
  4027de:	681b      	ldr	r3, [r3, #0]
  4027e0:	68db      	ldr	r3, [r3, #12]
  4027e2:	f8d3 900c 	ldr.w	r9, [r3, #12]
  4027e6:	f109 0004 	add.w	r0, r9, #4
  4027ea:	4b5e      	ldr	r3, [pc, #376]	; (402964 <prvTimerTask+0x1c0>)
  4027ec:	4798      	blx	r3
  4027ee:	f8d9 301c 	ldr.w	r3, [r9, #28]
  4027f2:	2b01      	cmp	r3, #1
  4027f4:	d11c      	bne.n	402830 <prvTimerTask+0x8c>
  4027f6:	f8d9 1018 	ldr.w	r1, [r9, #24]
  4027fa:	4633      	mov	r3, r6
  4027fc:	463a      	mov	r2, r7
  4027fe:	4431      	add	r1, r6
  402800:	4648      	mov	r0, r9
  402802:	4f59      	ldr	r7, [pc, #356]	; (402968 <prvTimerTask+0x1c4>)
  402804:	47b8      	blx	r7
  402806:	2801      	cmp	r0, #1
  402808:	d112      	bne.n	402830 <prvTimerTask+0x8c>
  40280a:	2100      	movs	r1, #0
  40280c:	9100      	str	r1, [sp, #0]
  40280e:	460b      	mov	r3, r1
  402810:	4632      	mov	r2, r6
  402812:	4648      	mov	r0, r9
  402814:	4e55      	ldr	r6, [pc, #340]	; (40296c <prvTimerTask+0x1c8>)
  402816:	47b0      	blx	r6
  402818:	b950      	cbnz	r0, 402830 <prvTimerTask+0x8c>
  40281a:	f04f 0380 	mov.w	r3, #128	; 0x80
  40281e:	b672      	cpsid	i
  402820:	f383 8811 	msr	BASEPRI, r3
  402824:	f3bf 8f6f 	isb	sy
  402828:	f3bf 8f4f 	dsb	sy
  40282c:	b662      	cpsie	i
  40282e:	e7fe      	b.n	40282e <prvTimerTask+0x8a>
  402830:	f8d9 3024 	ldr.w	r3, [r9, #36]	; 0x24
  402834:	4648      	mov	r0, r9
  402836:	4798      	blx	r3
  402838:	e06d      	b.n	402916 <prvTimerTask+0x172>
  40283a:	2200      	movs	r2, #0
  40283c:	1bf1      	subs	r1, r6, r7
  40283e:	6820      	ldr	r0, [r4, #0]
  402840:	4b4b      	ldr	r3, [pc, #300]	; (402970 <prvTimerTask+0x1cc>)
  402842:	4798      	blx	r3
  402844:	4b46      	ldr	r3, [pc, #280]	; (402960 <prvTimerTask+0x1bc>)
  402846:	4798      	blx	r3
  402848:	2800      	cmp	r0, #0
  40284a:	d164      	bne.n	402916 <prvTimerTask+0x172>
  40284c:	f04f 5380 	mov.w	r3, #268435456	; 0x10000000
  402850:	f8c8 3000 	str.w	r3, [r8]
  402854:	f3bf 8f4f 	dsb	sy
  402858:	f3bf 8f6f 	isb	sy
  40285c:	e05b      	b.n	402916 <prvTimerTask+0x172>
  40285e:	4b40      	ldr	r3, [pc, #256]	; (402960 <prvTimerTask+0x1bc>)
  402860:	4798      	blx	r3
  402862:	e058      	b.n	402916 <prvTimerTask+0x172>
  402864:	9b04      	ldr	r3, [sp, #16]
  402866:	2b00      	cmp	r3, #0
  402868:	da06      	bge.n	402878 <prvTimerTask+0xd4>
  40286a:	9907      	ldr	r1, [sp, #28]
  40286c:	9806      	ldr	r0, [sp, #24]
  40286e:	9b05      	ldr	r3, [sp, #20]
  402870:	4798      	blx	r3
  402872:	9b04      	ldr	r3, [sp, #16]
  402874:	2b00      	cmp	r3, #0
  402876:	db4f      	blt.n	402918 <prvTimerTask+0x174>
  402878:	9e06      	ldr	r6, [sp, #24]
  40287a:	6973      	ldr	r3, [r6, #20]
  40287c:	b10b      	cbz	r3, 402882 <prvTimerTask+0xde>
  40287e:	1d30      	adds	r0, r6, #4
  402880:	47b8      	blx	r7
  402882:	a803      	add	r0, sp, #12
  402884:	4b35      	ldr	r3, [pc, #212]	; (40295c <prvTimerTask+0x1b8>)
  402886:	4798      	blx	r3
  402888:	9b04      	ldr	r3, [sp, #16]
  40288a:	2b09      	cmp	r3, #9
  40288c:	d844      	bhi.n	402918 <prvTimerTask+0x174>
  40288e:	e8df f003 	tbb	[pc, r3]
  402892:	0505      	.short	0x0505
  402894:	3f2a4305 	.word	0x3f2a4305
  402898:	2a430505 	.word	0x2a430505
  40289c:	9f05      	ldr	r7, [sp, #20]
  40289e:	69b1      	ldr	r1, [r6, #24]
  4028a0:	463b      	mov	r3, r7
  4028a2:	4602      	mov	r2, r0
  4028a4:	4439      	add	r1, r7
  4028a6:	4630      	mov	r0, r6
  4028a8:	4f2f      	ldr	r7, [pc, #188]	; (402968 <prvTimerTask+0x1c4>)
  4028aa:	47b8      	blx	r7
  4028ac:	2801      	cmp	r0, #1
  4028ae:	d132      	bne.n	402916 <prvTimerTask+0x172>
  4028b0:	6a73      	ldr	r3, [r6, #36]	; 0x24
  4028b2:	4630      	mov	r0, r6
  4028b4:	4798      	blx	r3
  4028b6:	69f3      	ldr	r3, [r6, #28]
  4028b8:	2b01      	cmp	r3, #1
  4028ba:	d12c      	bne.n	402916 <prvTimerTask+0x172>
  4028bc:	69b2      	ldr	r2, [r6, #24]
  4028be:	2100      	movs	r1, #0
  4028c0:	9100      	str	r1, [sp, #0]
  4028c2:	460b      	mov	r3, r1
  4028c4:	9805      	ldr	r0, [sp, #20]
  4028c6:	4402      	add	r2, r0
  4028c8:	4630      	mov	r0, r6
  4028ca:	4e28      	ldr	r6, [pc, #160]	; (40296c <prvTimerTask+0x1c8>)
  4028cc:	47b0      	blx	r6
  4028ce:	bb10      	cbnz	r0, 402916 <prvTimerTask+0x172>
  4028d0:	f04f 0380 	mov.w	r3, #128	; 0x80
  4028d4:	b672      	cpsid	i
  4028d6:	f383 8811 	msr	BASEPRI, r3
  4028da:	f3bf 8f6f 	isb	sy
  4028de:	f3bf 8f4f 	dsb	sy
  4028e2:	b662      	cpsie	i
  4028e4:	e7fe      	b.n	4028e4 <prvTimerTask+0x140>
  4028e6:	9905      	ldr	r1, [sp, #20]
  4028e8:	61b1      	str	r1, [r6, #24]
  4028ea:	b951      	cbnz	r1, 402902 <prvTimerTask+0x15e>
  4028ec:	f04f 0380 	mov.w	r3, #128	; 0x80
  4028f0:	b672      	cpsid	i
  4028f2:	f383 8811 	msr	BASEPRI, r3
  4028f6:	f3bf 8f6f 	isb	sy
  4028fa:	f3bf 8f4f 	dsb	sy
  4028fe:	b662      	cpsie	i
  402900:	e7fe      	b.n	402900 <prvTimerTask+0x15c>
  402902:	4603      	mov	r3, r0
  402904:	4602      	mov	r2, r0
  402906:	4401      	add	r1, r0
  402908:	4630      	mov	r0, r6
  40290a:	4e17      	ldr	r6, [pc, #92]	; (402968 <prvTimerTask+0x1c4>)
  40290c:	47b0      	blx	r6
  40290e:	e002      	b.n	402916 <prvTimerTask+0x172>
  402910:	4630      	mov	r0, r6
  402912:	4b18      	ldr	r3, [pc, #96]	; (402974 <prvTimerTask+0x1d0>)
  402914:	4798      	blx	r3
  402916:	4f13      	ldr	r7, [pc, #76]	; (402964 <prvTimerTask+0x1c0>)
  402918:	2300      	movs	r3, #0
  40291a:	461a      	mov	r2, r3
  40291c:	a904      	add	r1, sp, #16
  40291e:	6820      	ldr	r0, [r4, #0]
  402920:	47a8      	blx	r5
  402922:	2800      	cmp	r0, #0
  402924:	d19e      	bne.n	402864 <prvTimerTask+0xc0>
  402926:	e744      	b.n	4027b2 <prvTimerTask+0xe>
  402928:	4b0b      	ldr	r3, [pc, #44]	; (402958 <prvTimerTask+0x1b4>)
  40292a:	4798      	blx	r3
  40292c:	a804      	add	r0, sp, #16
  40292e:	4b0b      	ldr	r3, [pc, #44]	; (40295c <prvTimerTask+0x1b8>)
  402930:	4798      	blx	r3
  402932:	4607      	mov	r7, r0
  402934:	9b04      	ldr	r3, [sp, #16]
  402936:	2b00      	cmp	r3, #0
  402938:	d191      	bne.n	40285e <prvTimerTask+0xba>
  40293a:	4b0f      	ldr	r3, [pc, #60]	; (402978 <prvTimerTask+0x1d4>)
  40293c:	681b      	ldr	r3, [r3, #0]
  40293e:	681a      	ldr	r2, [r3, #0]
  402940:	fab2 f282 	clz	r2, r2
  402944:	0952      	lsrs	r2, r2, #5
  402946:	2600      	movs	r6, #0
  402948:	e778      	b.n	40283c <prvTimerTask+0x98>
  40294a:	bf00      	nop
  40294c:	20400a78 	.word	0x20400a78
  402950:	004014ed 	.word	0x004014ed
  402954:	20400a48 	.word	0x20400a48
  402958:	00401b25 	.word	0x00401b25
  40295c:	004026e9 	.word	0x004026e9
  402960:	00401c95 	.word	0x00401c95
  402964:	00400b49 	.word	0x00400b49
  402968:	00402555 	.word	0x00402555
  40296c:	00402679 	.word	0x00402679
  402970:	004016e5 	.word	0x004016e5
  402974:	00400eb5 	.word	0x00400eb5
  402978:	20400a7c 	.word	0x20400a7c
  40297c:	e000ed04 	.word	0xe000ed04

00402980 <task_led>:

/**
 * \brief This task, when activated, make LED blink at a fixed rate
 */
static void task_led(void *pvParameters)
{
  402980:	e92d 41f0 	stmdb	sp!, {r4, r5, r6, r7, r8, lr}
  402984:	4604      	mov	r4, r0
	my_led_t *led = (my_led_t *) pvParameters;
	for (;;) {
	    /**
	    *  Toggle status led
		*/
		xSemaphoreTake(led->sem, 10);
  402986:	2500      	movs	r5, #0
  402988:	f8df 8050 	ldr.w	r8, [pc, #80]	; 4029dc <task_led+0x5c>
        if(pio_get_output_data_status(led->pio, led->pin_mask))
  40298c:	4f0e      	ldr	r7, [pc, #56]	; (4029c8 <task_led+0x48>)
	my_led_t *led = (my_led_t *) pvParameters;
	for (;;) {
	    /**
	    *  Toggle status led
		*/
		xSemaphoreTake(led->sem, 10);
  40298e:	462b      	mov	r3, r5
  402990:	220a      	movs	r2, #10
  402992:	4629      	mov	r1, r5
  402994:	6920      	ldr	r0, [r4, #16]
  402996:	47c0      	blx	r8
        if(pio_get_output_data_status(led->pio, led->pin_mask))
  402998:	68a1      	ldr	r1, [r4, #8]
  40299a:	6820      	ldr	r0, [r4, #0]
  40299c:	47b8      	blx	r7
  40299e:	b120      	cbz	r0, 4029aa <task_led+0x2a>
            pio_clear(led->pio, led->pin_mask);
  4029a0:	68a1      	ldr	r1, [r4, #8]
  4029a2:	6820      	ldr	r0, [r4, #0]
  4029a4:	4b09      	ldr	r3, [pc, #36]	; (4029cc <task_led+0x4c>)
  4029a6:	4798      	blx	r3
  4029a8:	e003      	b.n	4029b2 <task_led+0x32>
        else
            pio_set(led->pio, led->pin_mask);
  4029aa:	68a1      	ldr	r1, [r4, #8]
  4029ac:	6820      	ldr	r0, [r4, #0]
  4029ae:	4b08      	ldr	r3, [pc, #32]	; (4029d0 <task_led+0x50>)
  4029b0:	4798      	blx	r3
		vTaskDelay(led->stime);
  4029b2:	68e0      	ldr	r0, [r4, #12]
  4029b4:	4b07      	ldr	r3, [pc, #28]	; (4029d4 <task_led+0x54>)
  4029b6:	4798      	blx	r3
		xSemaphoreGive(led->sem);
  4029b8:	462b      	mov	r3, r5
  4029ba:	462a      	mov	r2, r5
  4029bc:	4629      	mov	r1, r5
  4029be:	6920      	ldr	r0, [r4, #16]
  4029c0:	4e05      	ldr	r6, [pc, #20]	; (4029d8 <task_led+0x58>)
  4029c2:	47b0      	blx	r6
	}
  4029c4:	e7e3      	b.n	40298e <task_led+0xe>
  4029c6:	bf00      	nop
  4029c8:	004004a1 	.word	0x004004a1
  4029cc:	00400421 	.word	0x00400421
  4029d0:	0040041d 	.word	0x0040041d
  4029d4:	00401dad 	.word	0x00401dad
  4029d8:	004011c1 	.word	0x004011c1
  4029dc:	004014ed 	.word	0x004014ed

004029e0 <task_but>:
}

volatile int clicked = 0;

static void task_but(void *params)
{
  4029e0:	b580      	push	{r7, lr}
	UNUSED(params);
	for (;;) {
		if (!pio_get(BUT_PIO, PIO_INPUT, BUT_PIN_MASK)) {
  4029e2:	f8df 80b0 	ldr.w	r8, [pc, #176]	; 402a94 <task_but+0xb4>
  4029e6:	4e23      	ldr	r6, [pc, #140]	; (402a74 <task_but+0x94>)
				xSemaphoreTake(led1Mutex, 10);
				xSemaphoreTake(led2Mutex, 10);
				xSemaphoreTake(led3Mutex, 10);
			}
		} else {
			if (clicked) {
  4029e8:	4d23      	ldr	r5, [pc, #140]	; (402a78 <task_but+0x98>)

static void task_but(void *params)
{
	UNUSED(params);
	for (;;) {
		if (!pio_get(BUT_PIO, PIO_INPUT, BUT_PIN_MASK)) {
  4029ea:	f44f 6200 	mov.w	r2, #2048	; 0x800
  4029ee:	f04f 5120 	mov.w	r1, #671088640	; 0x28000000
  4029f2:	4640      	mov	r0, r8
  4029f4:	47b0      	blx	r6
  4029f6:	b9f0      	cbnz	r0, 402a36 <task_but+0x56>
			if (!clicked) {
  4029f8:	682b      	ldr	r3, [r5, #0]
  4029fa:	2b00      	cmp	r3, #0
  4029fc:	d1f5      	bne.n	4029ea <task_but+0xa>
				clicked = 1;
  4029fe:	2301      	movs	r3, #1
  402a00:	602b      	str	r3, [r5, #0]
				xSemaphoreTake(led0Mutex, 10);
  402a02:	2300      	movs	r3, #0
  402a04:	220a      	movs	r2, #10
  402a06:	4619      	mov	r1, r3
  402a08:	481c      	ldr	r0, [pc, #112]	; (402a7c <task_but+0x9c>)
  402a0a:	6800      	ldr	r0, [r0, #0]
  402a0c:	4c1c      	ldr	r4, [pc, #112]	; (402a80 <task_but+0xa0>)
  402a0e:	47a0      	blx	r4
				xSemaphoreTake(led1Mutex, 10);
  402a10:	2300      	movs	r3, #0
  402a12:	220a      	movs	r2, #10
  402a14:	4619      	mov	r1, r3
  402a16:	481b      	ldr	r0, [pc, #108]	; (402a84 <task_but+0xa4>)
  402a18:	6800      	ldr	r0, [r0, #0]
  402a1a:	47a0      	blx	r4
				xSemaphoreTake(led2Mutex, 10);
  402a1c:	2300      	movs	r3, #0
  402a1e:	220a      	movs	r2, #10
  402a20:	4619      	mov	r1, r3
  402a22:	4819      	ldr	r0, [pc, #100]	; (402a88 <task_but+0xa8>)
  402a24:	6800      	ldr	r0, [r0, #0]
  402a26:	47a0      	blx	r4
				xSemaphoreTake(led3Mutex, 10);
  402a28:	2300      	movs	r3, #0
  402a2a:	220a      	movs	r2, #10
  402a2c:	4619      	mov	r1, r3
  402a2e:	4817      	ldr	r0, [pc, #92]	; (402a8c <task_but+0xac>)
  402a30:	6800      	ldr	r0, [r0, #0]
  402a32:	47a0      	blx	r4
  402a34:	e7d9      	b.n	4029ea <task_but+0xa>
			}
		} else {
			if (clicked) {
  402a36:	682b      	ldr	r3, [r5, #0]
  402a38:	2b00      	cmp	r3, #0
  402a3a:	d0d6      	beq.n	4029ea <task_but+0xa>
				clicked = 0;
  402a3c:	2400      	movs	r4, #0
  402a3e:	602c      	str	r4, [r5, #0]
				xSemaphoreGive(led0Mutex);
  402a40:	4623      	mov	r3, r4
  402a42:	4622      	mov	r2, r4
  402a44:	4621      	mov	r1, r4
  402a46:	480d      	ldr	r0, [pc, #52]	; (402a7c <task_but+0x9c>)
  402a48:	6800      	ldr	r0, [r0, #0]
  402a4a:	4f11      	ldr	r7, [pc, #68]	; (402a90 <task_but+0xb0>)
  402a4c:	47b8      	blx	r7
				xSemaphoreGive(led1Mutex);
  402a4e:	4623      	mov	r3, r4
  402a50:	4622      	mov	r2, r4
  402a52:	4621      	mov	r1, r4
  402a54:	480b      	ldr	r0, [pc, #44]	; (402a84 <task_but+0xa4>)
  402a56:	6800      	ldr	r0, [r0, #0]
  402a58:	47b8      	blx	r7
				xSemaphoreGive(led2Mutex);
  402a5a:	4623      	mov	r3, r4
  402a5c:	4622      	mov	r2, r4
  402a5e:	4621      	mov	r1, r4
  402a60:	4809      	ldr	r0, [pc, #36]	; (402a88 <task_but+0xa8>)
  402a62:	6800      	ldr	r0, [r0, #0]
  402a64:	47b8      	blx	r7
				xSemaphoreGive(led3Mutex);
  402a66:	4623      	mov	r3, r4
  402a68:	4622      	mov	r2, r4
  402a6a:	4621      	mov	r1, r4
  402a6c:	4807      	ldr	r0, [pc, #28]	; (402a8c <task_but+0xac>)
  402a6e:	6800      	ldr	r0, [r0, #0]
  402a70:	47b8      	blx	r7
  402a72:	e7ba      	b.n	4029ea <task_but+0xa>
  402a74:	00400425 	.word	0x00400425
  402a78:	20400b8c 	.word	0x20400b8c
  402a7c:	20400b90 	.word	0x20400b90
  402a80:	004014ed 	.word	0x004014ed
  402a84:	20400b84 	.word	0x20400b84
  402a88:	20400b88 	.word	0x20400b88
  402a8c:	20400a80 	.word	0x20400a80
  402a90:	004011c1 	.word	0x004011c1
  402a94:	400e0e00 	.word	0x400e0e00

00402a98 <task_monitor>:
/**
 * \brief This task, when activated, send every ten seconds on debug UART
 * the whole report of free heap and total tasks status
 */
static void task_monitor(void *pvParameters)
{
  402a98:	b580      	push	{r7, lr}
	static portCHAR szList[256];
	UNUSED(pvParameters);

	for (;;) {
		printf("--- task ## %u", (unsigned int)uxTaskGetNumberOfTasks());
  402a9a:	4f09      	ldr	r7, [pc, #36]	; (402ac0 <task_monitor+0x28>)
  402a9c:	4e09      	ldr	r6, [pc, #36]	; (402ac4 <task_monitor+0x2c>)
  402a9e:	4d0a      	ldr	r5, [pc, #40]	; (402ac8 <task_monitor+0x30>)
  402aa0:	47b8      	blx	r7
  402aa2:	4601      	mov	r1, r0
  402aa4:	4630      	mov	r0, r6
  402aa6:	47a8      	blx	r5
		vTaskList((signed portCHAR *)szList);
  402aa8:	4c08      	ldr	r4, [pc, #32]	; (402acc <task_monitor+0x34>)
  402aaa:	4620      	mov	r0, r4
  402aac:	4b08      	ldr	r3, [pc, #32]	; (402ad0 <task_monitor+0x38>)
  402aae:	4798      	blx	r3
		printf(szList);
  402ab0:	4620      	mov	r0, r4
  402ab2:	47a8      	blx	r5
		vTaskDelay(1000);
  402ab4:	f44f 707a 	mov.w	r0, #1000	; 0x3e8
  402ab8:	4b06      	ldr	r3, [pc, #24]	; (402ad4 <task_monitor+0x3c>)
  402aba:	4798      	blx	r3
  402abc:	e7f0      	b.n	402aa0 <task_monitor+0x8>
  402abe:	bf00      	nop
  402ac0:	00401b41 	.word	0x00401b41
  402ac4:	00409914 	.word	0x00409914
  402ac8:	00403071 	.word	0x00403071
  402acc:	20400a84 	.word	0x20400a84
  402ad0:	00402439 	.word	0x00402439
  402ad4:	00401dad 	.word	0x00401dad

00402ad8 <usart_serial_getchar>:
 * \param p_usart   Base address of the USART instance.
 * \param data   Data to read
 *
 */
static inline void usart_serial_getchar(usart_if p_usart, uint8_t *data)
{
  402ad8:	b5f0      	push	{r4, r5, r6, r7, lr}
  402ada:	b083      	sub	sp, #12
  402adc:	4605      	mov	r5, r0
  402ade:	460c      	mov	r4, r1
	uint32_t val = 0;
  402ae0:	2300      	movs	r3, #0
  402ae2:	9301      	str	r3, [sp, #4]
	if (UART == (Uart*)p_usart) {
		while (uart_read((Uart*)p_usart, data));
	}
#else
# ifdef UART0
	if (UART0 == (Uart*)p_usart) {
  402ae4:	4b29      	ldr	r3, [pc, #164]	; (402b8c <usart_serial_getchar+0xb4>)
  402ae6:	4298      	cmp	r0, r3
  402ae8:	d107      	bne.n	402afa <usart_serial_getchar+0x22>
		while (uart_read((Uart*)p_usart, data));
  402aea:	461f      	mov	r7, r3
  402aec:	4e28      	ldr	r6, [pc, #160]	; (402b90 <usart_serial_getchar+0xb8>)
  402aee:	4621      	mov	r1, r4
  402af0:	4638      	mov	r0, r7
  402af2:	47b0      	blx	r6
  402af4:	2800      	cmp	r0, #0
  402af6:	d1fa      	bne.n	402aee <usart_serial_getchar+0x16>
  402af8:	e015      	b.n	402b26 <usart_serial_getchar+0x4e>
	}
# endif
# ifdef UART1
	if (UART1 == (Uart*)p_usart) {
  402afa:	4b26      	ldr	r3, [pc, #152]	; (402b94 <usart_serial_getchar+0xbc>)
  402afc:	4298      	cmp	r0, r3
  402afe:	d107      	bne.n	402b10 <usart_serial_getchar+0x38>
		while (uart_read((Uart*)p_usart, data));
  402b00:	461f      	mov	r7, r3
  402b02:	4e23      	ldr	r6, [pc, #140]	; (402b90 <usart_serial_getchar+0xb8>)
  402b04:	4621      	mov	r1, r4
  402b06:	4638      	mov	r0, r7
  402b08:	47b0      	blx	r6
  402b0a:	2800      	cmp	r0, #0
  402b0c:	d1fa      	bne.n	402b04 <usart_serial_getchar+0x2c>
  402b0e:	e015      	b.n	402b3c <usart_serial_getchar+0x64>
	}
# endif
# ifdef UART2
	if (UART2 == (Uart*)p_usart) {
  402b10:	4b21      	ldr	r3, [pc, #132]	; (402b98 <usart_serial_getchar+0xc0>)
  402b12:	4298      	cmp	r0, r3
  402b14:	d107      	bne.n	402b26 <usart_serial_getchar+0x4e>
		while (uart_read((Uart*)p_usart, data));
  402b16:	461f      	mov	r7, r3
  402b18:	4e1d      	ldr	r6, [pc, #116]	; (402b90 <usart_serial_getchar+0xb8>)
  402b1a:	4621      	mov	r1, r4
  402b1c:	4638      	mov	r0, r7
  402b1e:	47b0      	blx	r6
  402b20:	2800      	cmp	r0, #0
  402b22:	d1fa      	bne.n	402b1a <usart_serial_getchar+0x42>
  402b24:	e017      	b.n	402b56 <usart_serial_getchar+0x7e>
	}
# endif
# ifdef UART3
	if (UART3 == (Uart*)p_usart) {
  402b26:	4b1d      	ldr	r3, [pc, #116]	; (402b9c <usart_serial_getchar+0xc4>)
  402b28:	429d      	cmp	r5, r3
  402b2a:	d107      	bne.n	402b3c <usart_serial_getchar+0x64>
		while (uart_read((Uart*)p_usart, data));
  402b2c:	461f      	mov	r7, r3
  402b2e:	4e18      	ldr	r6, [pc, #96]	; (402b90 <usart_serial_getchar+0xb8>)
  402b30:	4621      	mov	r1, r4
  402b32:	4638      	mov	r0, r7
  402b34:	47b0      	blx	r6
  402b36:	2800      	cmp	r0, #0
  402b38:	d1fa      	bne.n	402b30 <usart_serial_getchar+0x58>
  402b3a:	e019      	b.n	402b70 <usart_serial_getchar+0x98>
		while (usart_read(p_usart, &val));
		*data = (uint8_t)(val & 0xFF);
	}
#else
# ifdef USART0
	if (USART0 == p_usart) {
  402b3c:	4b18      	ldr	r3, [pc, #96]	; (402ba0 <usart_serial_getchar+0xc8>)
  402b3e:	429d      	cmp	r5, r3
  402b40:	d109      	bne.n	402b56 <usart_serial_getchar+0x7e>
		while (usart_read(p_usart, &val));
  402b42:	461e      	mov	r6, r3
  402b44:	4d17      	ldr	r5, [pc, #92]	; (402ba4 <usart_serial_getchar+0xcc>)
  402b46:	a901      	add	r1, sp, #4
  402b48:	4630      	mov	r0, r6
  402b4a:	47a8      	blx	r5
  402b4c:	2800      	cmp	r0, #0
  402b4e:	d1fa      	bne.n	402b46 <usart_serial_getchar+0x6e>
		*data = (uint8_t)(val & 0xFF);
  402b50:	9b01      	ldr	r3, [sp, #4]
  402b52:	7023      	strb	r3, [r4, #0]
  402b54:	e018      	b.n	402b88 <usart_serial_getchar+0xb0>
	}
# endif
# ifdef USART1
	if (USART1 == p_usart) {
  402b56:	4b14      	ldr	r3, [pc, #80]	; (402ba8 <usart_serial_getchar+0xd0>)
  402b58:	429d      	cmp	r5, r3
  402b5a:	d109      	bne.n	402b70 <usart_serial_getchar+0x98>
		while (usart_read(p_usart, &val));
  402b5c:	461e      	mov	r6, r3
  402b5e:	4d11      	ldr	r5, [pc, #68]	; (402ba4 <usart_serial_getchar+0xcc>)
  402b60:	a901      	add	r1, sp, #4
  402b62:	4630      	mov	r0, r6
  402b64:	47a8      	blx	r5
  402b66:	2800      	cmp	r0, #0
  402b68:	d1fa      	bne.n	402b60 <usart_serial_getchar+0x88>
		*data = (uint8_t)(val & 0xFF);
  402b6a:	9b01      	ldr	r3, [sp, #4]
  402b6c:	7023      	strb	r3, [r4, #0]
  402b6e:	e00b      	b.n	402b88 <usart_serial_getchar+0xb0>
	}
# endif
# ifdef USART2
	if (USART2 == p_usart) {
  402b70:	4b0e      	ldr	r3, [pc, #56]	; (402bac <usart_serial_getchar+0xd4>)
  402b72:	429d      	cmp	r5, r3
  402b74:	d108      	bne.n	402b88 <usart_serial_getchar+0xb0>
		while (usart_read(p_usart, &val));
  402b76:	461e      	mov	r6, r3
  402b78:	4d0a      	ldr	r5, [pc, #40]	; (402ba4 <usart_serial_getchar+0xcc>)
  402b7a:	a901      	add	r1, sp, #4
  402b7c:	4630      	mov	r0, r6
  402b7e:	47a8      	blx	r5
  402b80:	2800      	cmp	r0, #0
  402b82:	d1fa      	bne.n	402b7a <usart_serial_getchar+0xa2>
		*data = (uint8_t)(val & 0xFF);
  402b84:	9b01      	ldr	r3, [sp, #4]
  402b86:	7023      	strb	r3, [r4, #0]
		*data = (uint8_t)(val & 0xFF);
	}
# endif
#endif /* ifdef USART */

}
  402b88:	b003      	add	sp, #12
  402b8a:	bdf0      	pop	{r4, r5, r6, r7, pc}
  402b8c:	400e0800 	.word	0x400e0800
  402b90:	004006f9 	.word	0x004006f9
  402b94:	400e0a00 	.word	0x400e0a00
  402b98:	400e1a00 	.word	0x400e1a00
  402b9c:	400e1c00 	.word	0x400e1c00
  402ba0:	40024000 	.word	0x40024000
  402ba4:	00400811 	.word	0x00400811
  402ba8:	40028000 	.word	0x40028000
  402bac:	4002c000 	.word	0x4002c000

00402bb0 <usart_serial_putchar>:
 *   \retval 1  The character was written.
 *   \retval 0  The function timed out before the USART transmitter became
 * ready to send.
 */
static inline int usart_serial_putchar(usart_if p_usart, const uint8_t c)
{
  402bb0:	b570      	push	{r4, r5, r6, lr}
  402bb2:	460c      	mov	r4, r1
		while (uart_write((Uart*)p_usart, c)!=0);
		return 1;
	}
#else
# ifdef UART0
	if (UART0 == (Uart*)p_usart) {
  402bb4:	4b2a      	ldr	r3, [pc, #168]	; (402c60 <usart_serial_putchar+0xb0>)
  402bb6:	4298      	cmp	r0, r3
  402bb8:	d108      	bne.n	402bcc <usart_serial_putchar+0x1c>
		while (uart_write((Uart*)p_usart, c)!=0);
  402bba:	461e      	mov	r6, r3
  402bbc:	4d29      	ldr	r5, [pc, #164]	; (402c64 <usart_serial_putchar+0xb4>)
  402bbe:	4621      	mov	r1, r4
  402bc0:	4630      	mov	r0, r6
  402bc2:	47a8      	blx	r5
  402bc4:	2800      	cmp	r0, #0
  402bc6:	d1fa      	bne.n	402bbe <usart_serial_putchar+0xe>
		return 1;
  402bc8:	2001      	movs	r0, #1
  402bca:	bd70      	pop	{r4, r5, r6, pc}
	}
# endif
# ifdef UART1
	if (UART1 == (Uart*)p_usart) {
  402bcc:	4b26      	ldr	r3, [pc, #152]	; (402c68 <usart_serial_putchar+0xb8>)
  402bce:	4298      	cmp	r0, r3
  402bd0:	d108      	bne.n	402be4 <usart_serial_putchar+0x34>
		while (uart_write((Uart*)p_usart, c)!=0);
  402bd2:	461e      	mov	r6, r3
  402bd4:	4d23      	ldr	r5, [pc, #140]	; (402c64 <usart_serial_putchar+0xb4>)
  402bd6:	4621      	mov	r1, r4
  402bd8:	4630      	mov	r0, r6
  402bda:	47a8      	blx	r5
  402bdc:	2800      	cmp	r0, #0
  402bde:	d1fa      	bne.n	402bd6 <usart_serial_putchar+0x26>
		return 1;
  402be0:	2001      	movs	r0, #1
  402be2:	bd70      	pop	{r4, r5, r6, pc}
	}
# endif
# ifdef UART2
	if (UART2 == (Uart*)p_usart) {
  402be4:	4b21      	ldr	r3, [pc, #132]	; (402c6c <usart_serial_putchar+0xbc>)
  402be6:	4298      	cmp	r0, r3
  402be8:	d108      	bne.n	402bfc <usart_serial_putchar+0x4c>
		while (uart_write((Uart*)p_usart, c)!=0);
  402bea:	461e      	mov	r6, r3
  402bec:	4d1d      	ldr	r5, [pc, #116]	; (402c64 <usart_serial_putchar+0xb4>)
  402bee:	4621      	mov	r1, r4
  402bf0:	4630      	mov	r0, r6
  402bf2:	47a8      	blx	r5
  402bf4:	2800      	cmp	r0, #0
  402bf6:	d1fa      	bne.n	402bee <usart_serial_putchar+0x3e>
		return 1;
  402bf8:	2001      	movs	r0, #1
  402bfa:	bd70      	pop	{r4, r5, r6, pc}
	}
# endif
# ifdef UART3
	if (UART3 == (Uart*)p_usart) {
  402bfc:	4b1c      	ldr	r3, [pc, #112]	; (402c70 <usart_serial_putchar+0xc0>)
  402bfe:	4298      	cmp	r0, r3
  402c00:	d108      	bne.n	402c14 <usart_serial_putchar+0x64>
		while (uart_write((Uart*)p_usart, c)!=0);
  402c02:	461e      	mov	r6, r3
  402c04:	4d17      	ldr	r5, [pc, #92]	; (402c64 <usart_serial_putchar+0xb4>)
  402c06:	4621      	mov	r1, r4
  402c08:	4630      	mov	r0, r6
  402c0a:	47a8      	blx	r5
  402c0c:	2800      	cmp	r0, #0
  402c0e:	d1fa      	bne.n	402c06 <usart_serial_putchar+0x56>
		return 1;
  402c10:	2001      	movs	r0, #1
  402c12:	bd70      	pop	{r4, r5, r6, pc}
		while (usart_write(p_usart, c)!=0);
		return 1;
	}
#else
# ifdef USART0
	if (USART0 == p_usart) {
  402c14:	4b17      	ldr	r3, [pc, #92]	; (402c74 <usart_serial_putchar+0xc4>)
  402c16:	4298      	cmp	r0, r3
  402c18:	d108      	bne.n	402c2c <usart_serial_putchar+0x7c>
		while (usart_write(p_usart, c)!=0);
  402c1a:	461e      	mov	r6, r3
  402c1c:	4d16      	ldr	r5, [pc, #88]	; (402c78 <usart_serial_putchar+0xc8>)
  402c1e:	4621      	mov	r1, r4
  402c20:	4630      	mov	r0, r6
  402c22:	47a8      	blx	r5
  402c24:	2800      	cmp	r0, #0
  402c26:	d1fa      	bne.n	402c1e <usart_serial_putchar+0x6e>
		return 1;
  402c28:	2001      	movs	r0, #1
  402c2a:	bd70      	pop	{r4, r5, r6, pc}
	}
# endif
# ifdef USART1
	if (USART1 == p_usart) {
  402c2c:	4b13      	ldr	r3, [pc, #76]	; (402c7c <usart_serial_putchar+0xcc>)
  402c2e:	4298      	cmp	r0, r3
  402c30:	d108      	bne.n	402c44 <usart_serial_putchar+0x94>
		while (usart_write(p_usart, c)!=0);
  402c32:	461e      	mov	r6, r3
  402c34:	4d10      	ldr	r5, [pc, #64]	; (402c78 <usart_serial_putchar+0xc8>)
  402c36:	4621      	mov	r1, r4
  402c38:	4630      	mov	r0, r6
  402c3a:	47a8      	blx	r5
  402c3c:	2800      	cmp	r0, #0
  402c3e:	d1fa      	bne.n	402c36 <usart_serial_putchar+0x86>
		return 1;
  402c40:	2001      	movs	r0, #1
  402c42:	bd70      	pop	{r4, r5, r6, pc}
	}
# endif
# ifdef USART2
	if (USART2 == p_usart) {
  402c44:	4b0e      	ldr	r3, [pc, #56]	; (402c80 <usart_serial_putchar+0xd0>)
  402c46:	4298      	cmp	r0, r3
  402c48:	d108      	bne.n	402c5c <usart_serial_putchar+0xac>
		while (usart_write(p_usart, c)!=0);
  402c4a:	461e      	mov	r6, r3
  402c4c:	4d0a      	ldr	r5, [pc, #40]	; (402c78 <usart_serial_putchar+0xc8>)
  402c4e:	4621      	mov	r1, r4
  402c50:	4630      	mov	r0, r6
  402c52:	47a8      	blx	r5
  402c54:	2800      	cmp	r0, #0
  402c56:	d1fa      	bne.n	402c4e <usart_serial_putchar+0x9e>
		return 1;
  402c58:	2001      	movs	r0, #1
  402c5a:	bd70      	pop	{r4, r5, r6, pc}
		return 1;
	}
# endif
#endif /* ifdef USART */

	return 0;
  402c5c:	2000      	movs	r0, #0
}
  402c5e:	bd70      	pop	{r4, r5, r6, pc}
  402c60:	400e0800 	.word	0x400e0800
  402c64:	004006e5 	.word	0x004006e5
  402c68:	400e0a00 	.word	0x400e0a00
  402c6c:	400e1a00 	.word	0x400e1a00
  402c70:	400e1c00 	.word	0x400e1c00
  402c74:	40024000 	.word	0x40024000
  402c78:	004007f9 	.word	0x004007f9
  402c7c:	40028000 	.word	0x40028000
  402c80:	4002c000 	.word	0x4002c000

00402c84 <vApplicationStackOverflowHook>:
/**
 * \brief Called if stack overflow during execution
 */
extern void vApplicationStackOverflowHook(xTaskHandle *pxTask,
		signed char *pcTaskName)
{
  402c84:	b508      	push	{r3, lr}
	printf("stack overflow %x %s\r\n", pxTask, (portCHAR *)pcTaskName);
  402c86:	460a      	mov	r2, r1
  402c88:	4601      	mov	r1, r0
  402c8a:	4802      	ldr	r0, [pc, #8]	; (402c94 <vApplicationStackOverflowHook+0x10>)
  402c8c:	4b02      	ldr	r3, [pc, #8]	; (402c98 <vApplicationStackOverflowHook+0x14>)
  402c8e:	4798      	blx	r3
  402c90:	e7fe      	b.n	402c90 <vApplicationStackOverflowHook+0xc>
  402c92:	bf00      	nop
  402c94:	00409924 	.word	0x00409924
  402c98:	00403071 	.word	0x00403071

00402c9c <vApplicationTickHook>:

/**
 * \brief This function is called by FreeRTOS each tick
 */
extern void vApplicationTickHook(void)
{
  402c9c:	4770      	bx	lr
  402c9e:	bf00      	nop

00402ca0 <vApplicationMallocFailedHook>:

portFORCE_INLINE static void vPortRaiseBASEPRI( void )
{
uint32_t ulNewBASEPRI;

	__asm volatile
  402ca0:	f04f 0380 	mov.w	r3, #128	; 0x80
  402ca4:	b672      	cpsid	i
  402ca6:	f383 8811 	msr	BASEPRI, r3
  402caa:	f3bf 8f6f 	isb	sy
  402cae:	f3bf 8f4f 	dsb	sy
  402cb2:	b662      	cpsie	i
  402cb4:	e7fe      	b.n	402cb4 <vApplicationMallocFailedHook+0x14>
  402cb6:	bf00      	nop

00402cb8 <led_init>:
void led_init(
                Pio *p_pio,
                const u_int32_t pio_id,
                const u_int32_t pin_mask,
                int estado)
{
  402cb8:	b530      	push	{r4, r5, lr}
  402cba:	b083      	sub	sp, #12
  402cbc:	4604      	mov	r4, r0
  402cbe:	4615      	mov	r5, r2
    pmc_enable_periph_clk(pio_id);
  402cc0:	4608      	mov	r0, r1
  402cc2:	4b05      	ldr	r3, [pc, #20]	; (402cd8 <led_init+0x20>)
  402cc4:	4798      	blx	r3
    pio_set_output(p_pio, pin_mask, 1, 0, 0 );
  402cc6:	2300      	movs	r3, #0
  402cc8:	9300      	str	r3, [sp, #0]
  402cca:	2201      	movs	r2, #1
  402ccc:	4629      	mov	r1, r5
  402cce:	4620      	mov	r0, r4
  402cd0:	4c02      	ldr	r4, [pc, #8]	; (402cdc <led_init+0x24>)
  402cd2:	47a0      	blx	r4
};
  402cd4:	b003      	add	sp, #12
  402cd6:	bd30      	pop	{r4, r5, pc}
  402cd8:	00400691 	.word	0x00400691
  402cdc:	00400479 	.word	0x00400479

00402ce0 <but_init>:

void but_init(
		Pio *p_but_pio,
		const u_int32_t pio_id,
		const u_int32_t but_pin_mask)
{
  402ce0:	b538      	push	{r3, r4, r5, lr}
  402ce2:	4604      	mov	r4, r0
  402ce4:	4615      	mov	r5, r2
	/* config. pino botao em modo de entrada */
	pmc_enable_periph_clk(pio_id);
  402ce6:	4608      	mov	r0, r1
  402ce8:	4b03      	ldr	r3, [pc, #12]	; (402cf8 <but_init+0x18>)
  402cea:	4798      	blx	r3
	pio_set_input(p_but_pio, but_pin_mask, PIO_PULLUP | PIO_DEBOUNCE);
  402cec:	2209      	movs	r2, #9
  402cee:	4629      	mov	r1, r5
  402cf0:	4620      	mov	r0, r4
  402cf2:	4b02      	ldr	r3, [pc, #8]	; (402cfc <but_init+0x1c>)
  402cf4:	4798      	blx	r3
  402cf6:	bd38      	pop	{r3, r4, r5, pc}
  402cf8:	00400691 	.word	0x00400691
  402cfc:	00400441 	.word	0x00400441

00402d00 <main>:
 *  \brief FreeRTOS Real Time Kernel example entry point.
 *
 *  \return Unused (ANSI-C compatibility).
 */
int main(void)
{
  402d00:	e92d 4ff0 	stmdb	sp!, {r4, r5, r6, r7, r8, r9, sl, fp, lr}
  402d04:	b08d      	sub	sp, #52	; 0x34
	/* Initialize the SAM system */
	sysclk_init();
  402d06:	4b96      	ldr	r3, [pc, #600]	; (402f60 <main+0x260>)
  402d08:	4798      	blx	r3
	board_init();
  402d0a:	4b96      	ldr	r3, [pc, #600]	; (402f64 <main+0x264>)
  402d0c:	4798      	blx	r3
	led_init(LED1_PIO, LED1_PIO_ID, LED1_PIN_MASK, 1);
  402d0e:	2301      	movs	r3, #1
  402d10:	461a      	mov	r2, r3
  402d12:	210a      	movs	r1, #10
  402d14:	4894      	ldr	r0, [pc, #592]	; (402f68 <main+0x268>)
  402d16:	4c95      	ldr	r4, [pc, #596]	; (402f6c <main+0x26c>)
  402d18:	47a0      	blx	r4
	led_init(LED2_PIO, LED2_PIO_ID, LED2_PIN_MASK, 1);
  402d1a:	f8df 82e8 	ldr.w	r8, [pc, #744]	; 403004 <main+0x304>
  402d1e:	2301      	movs	r3, #1
  402d20:	f04f 4280 	mov.w	r2, #1073741824	; 0x40000000
  402d24:	210c      	movs	r1, #12
  402d26:	4640      	mov	r0, r8
  402d28:	47a0      	blx	r4
	led_init(LED3_PIO, LED3_PIO_ID, LED3_PIN_MASK, 1);
  402d2a:	2301      	movs	r3, #1
  402d2c:	2204      	movs	r2, #4
  402d2e:	210b      	movs	r1, #11
  402d30:	488f      	ldr	r0, [pc, #572]	; (402f70 <main+0x270>)
  402d32:	47a0      	blx	r4
	led_init(LED_PIO, LED_PIO_ID, LED_PIN_MASK, 1);
  402d34:	2301      	movs	r3, #1
  402d36:	f44f 7280 	mov.w	r2, #256	; 0x100
  402d3a:	210c      	movs	r1, #12
  402d3c:	4640      	mov	r0, r8
  402d3e:	47a0      	blx	r4
	but_init(BUT_PIO, BUT_PIO_ID, BUT_PIN_MASK);
  402d40:	f44f 6200 	mov.w	r2, #2048	; 0x800
  402d44:	210a      	movs	r1, #10
  402d46:	4888      	ldr	r0, [pc, #544]	; (402f68 <main+0x268>)
  402d48:	4b8a      	ldr	r3, [pc, #552]	; (402f74 <main+0x274>)
  402d4a:	4798      	blx	r3
	led0Mutex = xSemaphoreCreateMutex();
  402d4c:	2001      	movs	r0, #1
  402d4e:	4c8a      	ldr	r4, [pc, #552]	; (402f78 <main+0x278>)
  402d50:	47a0      	blx	r4
  402d52:	f8df 92b4 	ldr.w	r9, [pc, #692]	; 403008 <main+0x308>
  402d56:	f8c9 0000 	str.w	r0, [r9]
	led1Mutex = xSemaphoreCreateMutex();
  402d5a:	2001      	movs	r0, #1
  402d5c:	47a0      	blx	r4
  402d5e:	f8df b2ac 	ldr.w	fp, [pc, #684]	; 40300c <main+0x30c>
  402d62:	f8cb 0000 	str.w	r0, [fp]
	led2Mutex = xSemaphoreCreateMutex();
  402d66:	2001      	movs	r0, #1
  402d68:	47a0      	blx	r4
  402d6a:	f8df a2a4 	ldr.w	sl, [pc, #676]	; 403010 <main+0x310>
  402d6e:	f8ca 0000 	str.w	r0, [sl]
	led3Mutex = xSemaphoreCreateMutex();
  402d72:	2001      	movs	r0, #1
  402d74:	47a0      	blx	r4
  402d76:	4b81      	ldr	r3, [pc, #516]	; (402f7c <main+0x27c>)
  402d78:	9005      	str	r0, [sp, #20]
  402d7a:	6018      	str	r0, [r3, #0]
	my_led_t *led1 = malloc(sizeof(my_led_t));
  402d7c:	2014      	movs	r0, #20
  402d7e:	4f80      	ldr	r7, [pc, #512]	; (402f80 <main+0x280>)
  402d80:	47b8      	blx	r7
  402d82:	4606      	mov	r6, r0
	my_led_t *led2 = malloc(sizeof(my_led_t));
  402d84:	2014      	movs	r0, #20
  402d86:	47b8      	blx	r7
  402d88:	4605      	mov	r5, r0
	my_led_t *led3 = malloc(sizeof(my_led_t));
  402d8a:	2014      	movs	r0, #20
  402d8c:	47b8      	blx	r7
  402d8e:	4604      	mov	r4, r0
	my_led_t *led0 = malloc(sizeof(my_led_t));
  402d90:	2014      	movs	r0, #20
  402d92:	47b8      	blx	r7
  402d94:	4607      	mov	r7, r0
	led1->pio = LED1_PIO;
  402d96:	4b74      	ldr	r3, [pc, #464]	; (402f68 <main+0x268>)
  402d98:	6033      	str	r3, [r6, #0]
	led1->pio_id = LED1_PIO_ID;
  402d9a:	230a      	movs	r3, #10
  402d9c:	6073      	str	r3, [r6, #4]
	led1->pin_mask = LED1_PIN_MASK;
  402d9e:	2301      	movs	r3, #1
  402da0:	60b3      	str	r3, [r6, #8]
	led1->stime = 666;
  402da2:	f240 239a 	movw	r3, #666	; 0x29a
  402da6:	60f3      	str	r3, [r6, #12]
	led1->sem = led1Mutex;
  402da8:	f8db 3000 	ldr.w	r3, [fp]
  402dac:	6133      	str	r3, [r6, #16]
	led2->pio = LED2_PIO;
  402dae:	f8c5 8000 	str.w	r8, [r5]
	led2->pio_id = LED2_PIO_ID;
  402db2:	230c      	movs	r3, #12
  402db4:	606b      	str	r3, [r5, #4]
	led2->pin_mask = LED2_PIN_MASK;
  402db6:	f04f 4280 	mov.w	r2, #1073741824	; 0x40000000
  402dba:	60aa      	str	r2, [r5, #8]
	led2->stime = 420;
  402dbc:	f44f 72d2 	mov.w	r2, #420	; 0x1a4
  402dc0:	60ea      	str	r2, [r5, #12]
	led2->sem = led2Mutex;
  402dc2:	f8da 2000 	ldr.w	r2, [sl]
  402dc6:	612a      	str	r2, [r5, #16]
	led3->pio = LED3_PIO;
  402dc8:	4969      	ldr	r1, [pc, #420]	; (402f70 <main+0x270>)
  402dca:	6021      	str	r1, [r4, #0]
	led3->pio_id = LED3_PIO_ID;
  402dcc:	220b      	movs	r2, #11
  402dce:	6062      	str	r2, [r4, #4]
	led3->pin_mask = LED3_PIN_MASK;
  402dd0:	2204      	movs	r2, #4
  402dd2:	60a2      	str	r2, [r4, #8]
	led3->stime = 1337;
  402dd4:	f240 5239 	movw	r2, #1337	; 0x539
  402dd8:	60e2      	str	r2, [r4, #12]
	led3->sem = led3Mutex;
  402dda:	9a05      	ldr	r2, [sp, #20]
  402ddc:	6122      	str	r2, [r4, #16]
	led0->pio = LED_PIO;
  402dde:	f8c0 8000 	str.w	r8, [r0]
	led0->pio_id = LED_PIO_ID;
  402de2:	6043      	str	r3, [r0, #4]
	led0->pin_mask = LED_PIN_MASK;
  402de4:	f44f 7380 	mov.w	r3, #256	; 0x100
  402de8:	6083      	str	r3, [r0, #8]
	led0->stime = 1000;
  402dea:	f44f 737a 	mov.w	r3, #1000	; 0x3e8
  402dee:	60c3      	str	r3, [r0, #12]
	led0->sem = led0Mutex;
  402df0:	f8d9 3000 	ldr.w	r3, [r9]
  402df4:	6103      	str	r3, [r0, #16]
 * \param opt         Options needed to set up RS232 communication (see \ref usart_options_t).
 *
 */
static inline void stdio_serial_init(volatile void *usart, const usart_serial_options_t *opt)
{
	stdio_base = (void *)usart;
  402df6:	f8df 921c 	ldr.w	r9, [pc, #540]	; 403014 <main+0x314>
  402dfa:	4b62      	ldr	r3, [pc, #392]	; (402f84 <main+0x284>)
  402dfc:	f8c3 9000 	str.w	r9, [r3]
	ptr_put = (int (*)(void volatile*,char))&usart_serial_putchar;
  402e00:	4a61      	ldr	r2, [pc, #388]	; (402f88 <main+0x288>)
  402e02:	4b62      	ldr	r3, [pc, #392]	; (402f8c <main+0x28c>)
  402e04:	601a      	str	r2, [r3, #0]
	ptr_get = (void (*)(void volatile*,char*))&usart_serial_getchar;
  402e06:	4a62      	ldr	r2, [pc, #392]	; (402f90 <main+0x290>)
  402e08:	4b62      	ldr	r3, [pc, #392]	; (402f94 <main+0x294>)
  402e0a:	601a      	str	r2, [r3, #0]
	uart_settings.ul_baudrate = opt->baudrate;
	uart_settings.ul_mode = opt->paritytype;
#endif

	sam_usart_opt_t usart_settings;
	usart_settings.baudrate = opt->baudrate;
  402e0c:	f44f 33e1 	mov.w	r3, #115200	; 0x1c200
  402e10:	9306      	str	r3, [sp, #24]
	usart_settings.char_length = opt->charlength;
  402e12:	23c0      	movs	r3, #192	; 0xc0
  402e14:	9307      	str	r3, [sp, #28]
	usart_settings.parity_type = opt->paritytype;
  402e16:	f44f 6300 	mov.w	r3, #2048	; 0x800
  402e1a:	9308      	str	r3, [sp, #32]
	usart_settings.stop_bits= opt->stopbits;
  402e1c:	f04f 0800 	mov.w	r8, #0
  402e20:	f8cd 8024 	str.w	r8, [sp, #36]	; 0x24
	usart_settings.channel_mode= US_MR_CHMODE_NORMAL;
  402e24:	f8cd 8028 	str.w	r8, [sp, #40]	; 0x28
 *
 * \param ul_id Id (number) of the peripheral clock.
 */
static inline void sysclk_enable_peripheral_clock(uint32_t ul_id)
{
	pmc_enable_periph_clk(ul_id);
  402e28:	200e      	movs	r0, #14
  402e2a:	4b5b      	ldr	r3, [pc, #364]	; (402f98 <main+0x298>)
  402e2c:	4798      	blx	r3
		flexcom_set_opmode(FLEXCOM1, FLEXCOM_USART);
#else
		sysclk_enable_peripheral_clock(ID_USART1);
#endif
		/* Configure USART */
		usart_init_rs232(p_usart, &usart_settings,
  402e2e:	4a5b      	ldr	r2, [pc, #364]	; (402f9c <main+0x29c>)
  402e30:	a906      	add	r1, sp, #24
  402e32:	4648      	mov	r0, r9
  402e34:	4b5a      	ldr	r3, [pc, #360]	; (402fa0 <main+0x2a0>)
  402e36:	4798      	blx	r3
		/* Configure USART */
		usart_init_rs232(p_usart, &usart_settings,
				sysclk_get_peripheral_bus_hz(p_usart));
#endif
		/* Enable the receiver and transmitter. */
		usart_enable_tx(p_usart);
  402e38:	4648      	mov	r0, r9
  402e3a:	4b5a      	ldr	r3, [pc, #360]	; (402fa4 <main+0x2a4>)
  402e3c:	4798      	blx	r3
		usart_enable_rx(p_usart);
  402e3e:	4648      	mov	r0, r9
  402e40:	4b59      	ldr	r3, [pc, #356]	; (402fa8 <main+0x2a8>)
  402e42:	4798      	blx	r3
	fdevopen((int (*)(char, FILE*))(_write),(int (*)(FILE*))(_read));
#  endif
#  if UC3 || SAM
	// For AVR32 and SAM GCC
	// Specify that stdout and stdin should not be buffered.
	setbuf(stdout, NULL);
  402e44:	f8df a1d0 	ldr.w	sl, [pc, #464]	; 403018 <main+0x318>
  402e48:	f8da 3000 	ldr.w	r3, [sl]
  402e4c:	4641      	mov	r1, r8
  402e4e:	6898      	ldr	r0, [r3, #8]
  402e50:	f8df 91c8 	ldr.w	r9, [pc, #456]	; 40301c <main+0x31c>
  402e54:	47c8      	blx	r9
	setbuf(stdin, NULL);
  402e56:	f8da 3000 	ldr.w	r3, [sl]
  402e5a:	4641      	mov	r1, r8
  402e5c:	6858      	ldr	r0, [r3, #4]
  402e5e:	47c8      	blx	r9
	/* Configure console UART. */
	stdio_serial_init(CONF_UART, &uart_serial_options);

	/* Specify that stdout should not be buffered. */
#if defined(__GNUC__)
	setbuf(stdout, NULL);
  402e60:	f8da 3000 	ldr.w	r3, [sl]
  402e64:	4641      	mov	r1, r8
  402e66:	6898      	ldr	r0, [r3, #8]
  402e68:	47c8      	blx	r9

	/* Initialize the console uart */
	configure_console();

	/* Output demo infomation. */
	printf("-- Freertos Example --\n\r");
  402e6a:	4850      	ldr	r0, [pc, #320]	; (402fac <main+0x2ac>)
  402e6c:	f8df 9180 	ldr.w	r9, [pc, #384]	; 402ff0 <main+0x2f0>
  402e70:	47c8      	blx	r9
	printf("-- %s\n\r", BOARD_NAME);
  402e72:	494f      	ldr	r1, [pc, #316]	; (402fb0 <main+0x2b0>)
  402e74:	484f      	ldr	r0, [pc, #316]	; (402fb4 <main+0x2b4>)
  402e76:	47c8      	blx	r9
	printf("-- Compiled: %s %s --\n\r", __DATE__, __TIME__);
  402e78:	4a4f      	ldr	r2, [pc, #316]	; (402fb8 <main+0x2b8>)
  402e7a:	4950      	ldr	r1, [pc, #320]	; (402fbc <main+0x2bc>)
  402e7c:	4850      	ldr	r0, [pc, #320]	; (402fc0 <main+0x2c0>)
  402e7e:	47c8      	blx	r9


	/* Create task to monitor processor activity */
	if (xTaskCreate(task_monitor, "Monitor", TASK_MONITOR_STACK_SIZE, NULL,
  402e80:	f8cd 800c 	str.w	r8, [sp, #12]
  402e84:	f8cd 8008 	str.w	r8, [sp, #8]
  402e88:	f8cd 8004 	str.w	r8, [sp, #4]
  402e8c:	f8cd 8000 	str.w	r8, [sp]
  402e90:	4643      	mov	r3, r8
  402e92:	f44f 7200 	mov.w	r2, #512	; 0x200
  402e96:	494b      	ldr	r1, [pc, #300]	; (402fc4 <main+0x2c4>)
  402e98:	484b      	ldr	r0, [pc, #300]	; (402fc8 <main+0x2c8>)
  402e9a:	f8df 814c 	ldr.w	r8, [pc, #332]	; 402fe8 <main+0x2e8>
  402e9e:	47c0      	blx	r8
  402ea0:	2801      	cmp	r0, #1
  402ea2:	d001      	beq.n	402ea8 <main+0x1a8>
			TASK_MONITOR_STACK_PRIORITY, NULL) != pdPASS) {
		printf("Failed to create Monitor task\r\n");
  402ea4:	4849      	ldr	r0, [pc, #292]	; (402fcc <main+0x2cc>)
  402ea6:	47c8      	blx	r9
	}

	if (xTaskCreate(task_but, "But", TASK_MONITOR_STACK_SIZE, NULL,
  402ea8:	2300      	movs	r3, #0
  402eaa:	9303      	str	r3, [sp, #12]
  402eac:	9302      	str	r3, [sp, #8]
  402eae:	9301      	str	r3, [sp, #4]
  402eb0:	9300      	str	r3, [sp, #0]
  402eb2:	f44f 7200 	mov.w	r2, #512	; 0x200
  402eb6:	4946      	ldr	r1, [pc, #280]	; (402fd0 <main+0x2d0>)
  402eb8:	4846      	ldr	r0, [pc, #280]	; (402fd4 <main+0x2d4>)
  402eba:	f8df 812c 	ldr.w	r8, [pc, #300]	; 402fe8 <main+0x2e8>
  402ebe:	47c0      	blx	r8
  402ec0:	2801      	cmp	r0, #1
  402ec2:	d002      	beq.n	402eca <main+0x1ca>
			TASK_MONITOR_STACK_PRIORITY, NULL) != pdPASS) {
		puts("ops");
  402ec4:	4844      	ldr	r0, [pc, #272]	; (402fd8 <main+0x2d8>)
  402ec6:	4b45      	ldr	r3, [pc, #276]	; (402fdc <main+0x2dc>)
  402ec8:	4798      	blx	r3
	}
	/* Create task to make led blink */
	if (xTaskCreate(task_led, "Led0", TASK_LED_STACK_SIZE, led0,
  402eca:	2300      	movs	r3, #0
  402ecc:	9303      	str	r3, [sp, #12]
  402ece:	9302      	str	r3, [sp, #8]
  402ed0:	9301      	str	r3, [sp, #4]
  402ed2:	9300      	str	r3, [sp, #0]
  402ed4:	463b      	mov	r3, r7
  402ed6:	f44f 7280 	mov.w	r2, #256	; 0x100
  402eda:	4941      	ldr	r1, [pc, #260]	; (402fe0 <main+0x2e0>)
  402edc:	4841      	ldr	r0, [pc, #260]	; (402fe4 <main+0x2e4>)
  402ede:	4f42      	ldr	r7, [pc, #264]	; (402fe8 <main+0x2e8>)
  402ee0:	47b8      	blx	r7
  402ee2:	2801      	cmp	r0, #1
  402ee4:	d002      	beq.n	402eec <main+0x1ec>
			TASK_LED_STACK_PRIORITY, NULL) != pdPASS) {
		printf("Failed to create test led task\r\n");
  402ee6:	4841      	ldr	r0, [pc, #260]	; (402fec <main+0x2ec>)
  402ee8:	4b41      	ldr	r3, [pc, #260]	; (402ff0 <main+0x2f0>)
  402eea:	4798      	blx	r3
	}

	/* Create task to make led blink */
	if (xTaskCreate(task_led, "Led1", TASK_LED_STACK_SIZE, led1,
  402eec:	2300      	movs	r3, #0
  402eee:	9303      	str	r3, [sp, #12]
  402ef0:	9302      	str	r3, [sp, #8]
  402ef2:	9301      	str	r3, [sp, #4]
  402ef4:	9300      	str	r3, [sp, #0]
  402ef6:	4633      	mov	r3, r6
  402ef8:	f44f 7280 	mov.w	r2, #256	; 0x100
  402efc:	493d      	ldr	r1, [pc, #244]	; (402ff4 <main+0x2f4>)
  402efe:	4839      	ldr	r0, [pc, #228]	; (402fe4 <main+0x2e4>)
  402f00:	4e39      	ldr	r6, [pc, #228]	; (402fe8 <main+0x2e8>)
  402f02:	47b0      	blx	r6
  402f04:	2801      	cmp	r0, #1
  402f06:	d002      	beq.n	402f0e <main+0x20e>
			TASK_LED_STACK_PRIORITY, NULL) != pdPASS) {
		printf("Failed to create test led task\r\n");
  402f08:	4838      	ldr	r0, [pc, #224]	; (402fec <main+0x2ec>)
  402f0a:	4b39      	ldr	r3, [pc, #228]	; (402ff0 <main+0x2f0>)
  402f0c:	4798      	blx	r3
	}
	/* Create task to make led blink */
	if (xTaskCreate(task_led, "Led2", TASK_LED_STACK_SIZE, led2,
  402f0e:	2300      	movs	r3, #0
  402f10:	9303      	str	r3, [sp, #12]
  402f12:	9302      	str	r3, [sp, #8]
  402f14:	9301      	str	r3, [sp, #4]
  402f16:	9300      	str	r3, [sp, #0]
  402f18:	462b      	mov	r3, r5
  402f1a:	f44f 7280 	mov.w	r2, #256	; 0x100
  402f1e:	4936      	ldr	r1, [pc, #216]	; (402ff8 <main+0x2f8>)
  402f20:	4830      	ldr	r0, [pc, #192]	; (402fe4 <main+0x2e4>)
  402f22:	4d31      	ldr	r5, [pc, #196]	; (402fe8 <main+0x2e8>)
  402f24:	47a8      	blx	r5
  402f26:	2801      	cmp	r0, #1
  402f28:	d002      	beq.n	402f30 <main+0x230>
			TASK_LED_STACK_PRIORITY, NULL) != pdPASS) {
		printf("Failed to create test led task\r\n");
  402f2a:	4830      	ldr	r0, [pc, #192]	; (402fec <main+0x2ec>)
  402f2c:	4b30      	ldr	r3, [pc, #192]	; (402ff0 <main+0x2f0>)
  402f2e:	4798      	blx	r3
	}
	/* Create task to make led blink */
	if (xTaskCreate(task_led, "Led3", TASK_LED_STACK_SIZE, led3,
  402f30:	2300      	movs	r3, #0
  402f32:	9303      	str	r3, [sp, #12]
  402f34:	9302      	str	r3, [sp, #8]
  402f36:	9301      	str	r3, [sp, #4]
  402f38:	9300      	str	r3, [sp, #0]
  402f3a:	4623      	mov	r3, r4
  402f3c:	f44f 7280 	mov.w	r2, #256	; 0x100
  402f40:	492e      	ldr	r1, [pc, #184]	; (402ffc <main+0x2fc>)
  402f42:	4828      	ldr	r0, [pc, #160]	; (402fe4 <main+0x2e4>)
  402f44:	4c28      	ldr	r4, [pc, #160]	; (402fe8 <main+0x2e8>)
  402f46:	47a0      	blx	r4
  402f48:	2801      	cmp	r0, #1
  402f4a:	d002      	beq.n	402f52 <main+0x252>
			TASK_LED_STACK_PRIORITY, NULL) != pdPASS) {
		printf("Failed to create test led task\r\n");
  402f4c:	4827      	ldr	r0, [pc, #156]	; (402fec <main+0x2ec>)
  402f4e:	4b28      	ldr	r3, [pc, #160]	; (402ff0 <main+0x2f0>)
  402f50:	4798      	blx	r3
	}


	/* Start the scheduler. */
	vTaskStartScheduler();
  402f52:	4b2b      	ldr	r3, [pc, #172]	; (403000 <main+0x300>)
  402f54:	4798      	blx	r3

	/* Will only get here if there was insufficient memory to create the idle task. */
	return 0;
}
  402f56:	2000      	movs	r0, #0
  402f58:	b00d      	add	sp, #52	; 0x34
  402f5a:	e8bd 8ff0 	ldmia.w	sp!, {r4, r5, r6, r7, r8, r9, sl, fp, pc}
  402f5e:	bf00      	nop
  402f60:	0040019d 	.word	0x0040019d
  402f64:	00400299 	.word	0x00400299
  402f68:	400e0e00 	.word	0x400e0e00
  402f6c:	00402cb9 	.word	0x00402cb9
  402f70:	400e1000 	.word	0x400e1000
  402f74:	00402ce1 	.word	0x00402ce1
  402f78:	0040139d 	.word	0x0040139d
  402f7c:	20400a80 	.word	0x20400a80
  402f80:	00403099 	.word	0x00403099
  402f84:	20400bd0 	.word	0x20400bd0
  402f88:	00402bb1 	.word	0x00402bb1
  402f8c:	20400bcc 	.word	0x20400bcc
  402f90:	00402ad9 	.word	0x00402ad9
  402f94:	20400bc8 	.word	0x20400bc8
  402f98:	00400691 	.word	0x00400691
  402f9c:	08f0d180 	.word	0x08f0d180
  402fa0:	00400795 	.word	0x00400795
  402fa4:	004007e9 	.word	0x004007e9
  402fa8:	004007f1 	.word	0x004007f1
  402fac:	0040993c 	.word	0x0040993c
  402fb0:	00409958 	.word	0x00409958
  402fb4:	00409964 	.word	0x00409964
  402fb8:	0040996c 	.word	0x0040996c
  402fbc:	00409978 	.word	0x00409978
  402fc0:	00409984 	.word	0x00409984
  402fc4:	0040999c 	.word	0x0040999c
  402fc8:	00402a99 	.word	0x00402a99
  402fcc:	004099a4 	.word	0x004099a4
  402fd0:	004099c4 	.word	0x004099c4
  402fd4:	004029e1 	.word	0x004029e1
  402fd8:	004099c8 	.word	0x004099c8
  402fdc:	00403869 	.word	0x00403869
  402fe0:	004099cc 	.word	0x004099cc
  402fe4:	00402981 	.word	0x00402981
  402fe8:	0040186d 	.word	0x0040186d
  402fec:	004099d4 	.word	0x004099d4
  402ff0:	00403071 	.word	0x00403071
  402ff4:	004099f8 	.word	0x004099f8
  402ff8:	00409a00 	.word	0x00409a00
  402ffc:	00409a08 	.word	0x00409a08
  403000:	00401a95 	.word	0x00401a95
  403004:	400e1200 	.word	0x400e1200
  403008:	20400b90 	.word	0x20400b90
  40300c:	20400b84 	.word	0x20400b84
  403010:	20400b88 	.word	0x20400b88
  403014:	40028000 	.word	0x40028000
  403018:	20400438 	.word	0x20400438
  40301c:	0040389d 	.word	0x0040389d

00403020 <__libc_init_array>:
  403020:	b570      	push	{r4, r5, r6, lr}
  403022:	4e0f      	ldr	r6, [pc, #60]	; (403060 <__libc_init_array+0x40>)
  403024:	4d0f      	ldr	r5, [pc, #60]	; (403064 <__libc_init_array+0x44>)
  403026:	1b76      	subs	r6, r6, r5
  403028:	10b6      	asrs	r6, r6, #2
  40302a:	bf18      	it	ne
  40302c:	2400      	movne	r4, #0
  40302e:	d005      	beq.n	40303c <__libc_init_array+0x1c>
  403030:	3401      	adds	r4, #1
  403032:	f855 3b04 	ldr.w	r3, [r5], #4
  403036:	4798      	blx	r3
  403038:	42a6      	cmp	r6, r4
  40303a:	d1f9      	bne.n	403030 <__libc_init_array+0x10>
  40303c:	4e0a      	ldr	r6, [pc, #40]	; (403068 <__libc_init_array+0x48>)
  40303e:	4d0b      	ldr	r5, [pc, #44]	; (40306c <__libc_init_array+0x4c>)
  403040:	1b76      	subs	r6, r6, r5
  403042:	f006 fdbb 	bl	409bbc <_init>
  403046:	10b6      	asrs	r6, r6, #2
  403048:	bf18      	it	ne
  40304a:	2400      	movne	r4, #0
  40304c:	d006      	beq.n	40305c <__libc_init_array+0x3c>
  40304e:	3401      	adds	r4, #1
  403050:	f855 3b04 	ldr.w	r3, [r5], #4
  403054:	4798      	blx	r3
  403056:	42a6      	cmp	r6, r4
  403058:	d1f9      	bne.n	40304e <__libc_init_array+0x2e>
  40305a:	bd70      	pop	{r4, r5, r6, pc}
  40305c:	bd70      	pop	{r4, r5, r6, pc}
  40305e:	bf00      	nop
  403060:	00409bc8 	.word	0x00409bc8
  403064:	00409bc8 	.word	0x00409bc8
  403068:	00409bd0 	.word	0x00409bd0
  40306c:	00409bc8 	.word	0x00409bc8

00403070 <iprintf>:
  403070:	b40f      	push	{r0, r1, r2, r3}
  403072:	b500      	push	{lr}
  403074:	4907      	ldr	r1, [pc, #28]	; (403094 <iprintf+0x24>)
  403076:	b083      	sub	sp, #12
  403078:	ab04      	add	r3, sp, #16
  40307a:	6808      	ldr	r0, [r1, #0]
  40307c:	f853 2b04 	ldr.w	r2, [r3], #4
  403080:	6881      	ldr	r1, [r0, #8]
  403082:	9301      	str	r3, [sp, #4]
  403084:	f002 f954 	bl	405330 <_vfiprintf_r>
  403088:	b003      	add	sp, #12
  40308a:	f85d eb04 	ldr.w	lr, [sp], #4
  40308e:	b004      	add	sp, #16
  403090:	4770      	bx	lr
  403092:	bf00      	nop
  403094:	20400438 	.word	0x20400438

00403098 <malloc>:
  403098:	4b02      	ldr	r3, [pc, #8]	; (4030a4 <malloc+0xc>)
  40309a:	4601      	mov	r1, r0
  40309c:	6818      	ldr	r0, [r3, #0]
  40309e:	f000 b80b 	b.w	4030b8 <_malloc_r>
  4030a2:	bf00      	nop
  4030a4:	20400438 	.word	0x20400438

004030a8 <free>:
  4030a8:	4b02      	ldr	r3, [pc, #8]	; (4030b4 <free+0xc>)
  4030aa:	4601      	mov	r1, r0
  4030ac:	6818      	ldr	r0, [r3, #0]
  4030ae:	f004 baa9 	b.w	407604 <_free_r>
  4030b2:	bf00      	nop
  4030b4:	20400438 	.word	0x20400438

004030b8 <_malloc_r>:
  4030b8:	e92d 4ff0 	stmdb	sp!, {r4, r5, r6, r7, r8, r9, sl, fp, lr}
  4030bc:	f101 050b 	add.w	r5, r1, #11
  4030c0:	2d16      	cmp	r5, #22
  4030c2:	b083      	sub	sp, #12
  4030c4:	4606      	mov	r6, r0
  4030c6:	f240 809f 	bls.w	403208 <_malloc_r+0x150>
  4030ca:	f035 0507 	bics.w	r5, r5, #7
  4030ce:	f100 80bf 	bmi.w	403250 <_malloc_r+0x198>
  4030d2:	42a9      	cmp	r1, r5
  4030d4:	f200 80bc 	bhi.w	403250 <_malloc_r+0x198>
  4030d8:	f000 fb8e 	bl	4037f8 <__malloc_lock>
  4030dc:	f5b5 7ffc 	cmp.w	r5, #504	; 0x1f8
  4030e0:	f0c0 829c 	bcc.w	40361c <_malloc_r+0x564>
  4030e4:	0a6b      	lsrs	r3, r5, #9
  4030e6:	f000 80ba 	beq.w	40325e <_malloc_r+0x1a6>
  4030ea:	2b04      	cmp	r3, #4
  4030ec:	f200 8183 	bhi.w	4033f6 <_malloc_r+0x33e>
  4030f0:	09a8      	lsrs	r0, r5, #6
  4030f2:	f100 0e39 	add.w	lr, r0, #57	; 0x39
  4030f6:	ea4f 034e 	mov.w	r3, lr, lsl #1
  4030fa:	3038      	adds	r0, #56	; 0x38
  4030fc:	4fc4      	ldr	r7, [pc, #784]	; (403410 <_malloc_r+0x358>)
  4030fe:	eb07 0383 	add.w	r3, r7, r3, lsl #2
  403102:	f1a3 0108 	sub.w	r1, r3, #8
  403106:	685c      	ldr	r4, [r3, #4]
  403108:	42a1      	cmp	r1, r4
  40310a:	d107      	bne.n	40311c <_malloc_r+0x64>
  40310c:	e0ac      	b.n	403268 <_malloc_r+0x1b0>
  40310e:	2a00      	cmp	r2, #0
  403110:	f280 80ac 	bge.w	40326c <_malloc_r+0x1b4>
  403114:	68e4      	ldr	r4, [r4, #12]
  403116:	42a1      	cmp	r1, r4
  403118:	f000 80a6 	beq.w	403268 <_malloc_r+0x1b0>
  40311c:	6863      	ldr	r3, [r4, #4]
  40311e:	f023 0303 	bic.w	r3, r3, #3
  403122:	1b5a      	subs	r2, r3, r5
  403124:	2a0f      	cmp	r2, #15
  403126:	ddf2      	ble.n	40310e <_malloc_r+0x56>
  403128:	49b9      	ldr	r1, [pc, #740]	; (403410 <_malloc_r+0x358>)
  40312a:	693c      	ldr	r4, [r7, #16]
  40312c:	f101 0e08 	add.w	lr, r1, #8
  403130:	4574      	cmp	r4, lr
  403132:	f000 81b3 	beq.w	40349c <_malloc_r+0x3e4>
  403136:	6863      	ldr	r3, [r4, #4]
  403138:	f023 0303 	bic.w	r3, r3, #3
  40313c:	1b5a      	subs	r2, r3, r5
  40313e:	2a0f      	cmp	r2, #15
  403140:	f300 8199 	bgt.w	403476 <_malloc_r+0x3be>
  403144:	2a00      	cmp	r2, #0
  403146:	f8c1 e014 	str.w	lr, [r1, #20]
  40314a:	f8c1 e010 	str.w	lr, [r1, #16]
  40314e:	f280 809e 	bge.w	40328e <_malloc_r+0x1d6>
  403152:	f5b3 7f00 	cmp.w	r3, #512	; 0x200
  403156:	f080 8167 	bcs.w	403428 <_malloc_r+0x370>
  40315a:	08db      	lsrs	r3, r3, #3
  40315c:	f103 0c01 	add.w	ip, r3, #1
  403160:	2201      	movs	r2, #1
  403162:	109b      	asrs	r3, r3, #2
  403164:	fa02 f303 	lsl.w	r3, r2, r3
  403168:	684a      	ldr	r2, [r1, #4]
  40316a:	f851 803c 	ldr.w	r8, [r1, ip, lsl #3]
  40316e:	f8c4 8008 	str.w	r8, [r4, #8]
  403172:	eb01 09cc 	add.w	r9, r1, ip, lsl #3
  403176:	431a      	orrs	r2, r3
  403178:	f1a9 0308 	sub.w	r3, r9, #8
  40317c:	60e3      	str	r3, [r4, #12]
  40317e:	604a      	str	r2, [r1, #4]
  403180:	f841 403c 	str.w	r4, [r1, ip, lsl #3]
  403184:	f8c8 400c 	str.w	r4, [r8, #12]
  403188:	1083      	asrs	r3, r0, #2
  40318a:	2401      	movs	r4, #1
  40318c:	409c      	lsls	r4, r3
  40318e:	4294      	cmp	r4, r2
  403190:	f200 808a 	bhi.w	4032a8 <_malloc_r+0x1f0>
  403194:	4214      	tst	r4, r2
  403196:	d106      	bne.n	4031a6 <_malloc_r+0xee>
  403198:	f020 0003 	bic.w	r0, r0, #3
  40319c:	0064      	lsls	r4, r4, #1
  40319e:	4214      	tst	r4, r2
  4031a0:	f100 0004 	add.w	r0, r0, #4
  4031a4:	d0fa      	beq.n	40319c <_malloc_r+0xe4>
  4031a6:	eb07 09c0 	add.w	r9, r7, r0, lsl #3
  4031aa:	46cc      	mov	ip, r9
  4031ac:	4680      	mov	r8, r0
  4031ae:	f8dc 100c 	ldr.w	r1, [ip, #12]
  4031b2:	458c      	cmp	ip, r1
  4031b4:	d107      	bne.n	4031c6 <_malloc_r+0x10e>
  4031b6:	e173      	b.n	4034a0 <_malloc_r+0x3e8>
  4031b8:	2a00      	cmp	r2, #0
  4031ba:	f280 8181 	bge.w	4034c0 <_malloc_r+0x408>
  4031be:	68c9      	ldr	r1, [r1, #12]
  4031c0:	458c      	cmp	ip, r1
  4031c2:	f000 816d 	beq.w	4034a0 <_malloc_r+0x3e8>
  4031c6:	684b      	ldr	r3, [r1, #4]
  4031c8:	f023 0303 	bic.w	r3, r3, #3
  4031cc:	1b5a      	subs	r2, r3, r5
  4031ce:	2a0f      	cmp	r2, #15
  4031d0:	ddf2      	ble.n	4031b8 <_malloc_r+0x100>
  4031d2:	460c      	mov	r4, r1
  4031d4:	f8d1 c00c 	ldr.w	ip, [r1, #12]
  4031d8:	f854 8f08 	ldr.w	r8, [r4, #8]!
  4031dc:	194b      	adds	r3, r1, r5
  4031de:	f045 0501 	orr.w	r5, r5, #1
  4031e2:	604d      	str	r5, [r1, #4]
  4031e4:	f042 0101 	orr.w	r1, r2, #1
  4031e8:	f8c8 c00c 	str.w	ip, [r8, #12]
  4031ec:	4630      	mov	r0, r6
  4031ee:	f8cc 8008 	str.w	r8, [ip, #8]
  4031f2:	617b      	str	r3, [r7, #20]
  4031f4:	613b      	str	r3, [r7, #16]
  4031f6:	f8c3 e00c 	str.w	lr, [r3, #12]
  4031fa:	f8c3 e008 	str.w	lr, [r3, #8]
  4031fe:	6059      	str	r1, [r3, #4]
  403200:	509a      	str	r2, [r3, r2]
  403202:	f000 fafb 	bl	4037fc <__malloc_unlock>
  403206:	e01f      	b.n	403248 <_malloc_r+0x190>
  403208:	2910      	cmp	r1, #16
  40320a:	d821      	bhi.n	403250 <_malloc_r+0x198>
  40320c:	f000 faf4 	bl	4037f8 <__malloc_lock>
  403210:	2510      	movs	r5, #16
  403212:	2306      	movs	r3, #6
  403214:	2002      	movs	r0, #2
  403216:	4f7e      	ldr	r7, [pc, #504]	; (403410 <_malloc_r+0x358>)
  403218:	eb07 0383 	add.w	r3, r7, r3, lsl #2
  40321c:	f1a3 0208 	sub.w	r2, r3, #8
  403220:	685c      	ldr	r4, [r3, #4]
  403222:	4294      	cmp	r4, r2
  403224:	f000 8145 	beq.w	4034b2 <_malloc_r+0x3fa>
  403228:	6863      	ldr	r3, [r4, #4]
  40322a:	68e1      	ldr	r1, [r4, #12]
  40322c:	68a5      	ldr	r5, [r4, #8]
  40322e:	f023 0303 	bic.w	r3, r3, #3
  403232:	4423      	add	r3, r4
  403234:	4630      	mov	r0, r6
  403236:	685a      	ldr	r2, [r3, #4]
  403238:	60e9      	str	r1, [r5, #12]
  40323a:	f042 0201 	orr.w	r2, r2, #1
  40323e:	608d      	str	r5, [r1, #8]
  403240:	605a      	str	r2, [r3, #4]
  403242:	f000 fadb 	bl	4037fc <__malloc_unlock>
  403246:	3408      	adds	r4, #8
  403248:	4620      	mov	r0, r4
  40324a:	b003      	add	sp, #12
  40324c:	e8bd 8ff0 	ldmia.w	sp!, {r4, r5, r6, r7, r8, r9, sl, fp, pc}
  403250:	2400      	movs	r4, #0
  403252:	230c      	movs	r3, #12
  403254:	4620      	mov	r0, r4
  403256:	6033      	str	r3, [r6, #0]
  403258:	b003      	add	sp, #12
  40325a:	e8bd 8ff0 	ldmia.w	sp!, {r4, r5, r6, r7, r8, r9, sl, fp, pc}
  40325e:	2380      	movs	r3, #128	; 0x80
  403260:	f04f 0e40 	mov.w	lr, #64	; 0x40
  403264:	203f      	movs	r0, #63	; 0x3f
  403266:	e749      	b.n	4030fc <_malloc_r+0x44>
  403268:	4670      	mov	r0, lr
  40326a:	e75d      	b.n	403128 <_malloc_r+0x70>
  40326c:	4423      	add	r3, r4
  40326e:	68e1      	ldr	r1, [r4, #12]
  403270:	685a      	ldr	r2, [r3, #4]
  403272:	68a5      	ldr	r5, [r4, #8]
  403274:	f042 0201 	orr.w	r2, r2, #1
  403278:	60e9      	str	r1, [r5, #12]
  40327a:	4630      	mov	r0, r6
  40327c:	608d      	str	r5, [r1, #8]
  40327e:	605a      	str	r2, [r3, #4]
  403280:	f000 fabc 	bl	4037fc <__malloc_unlock>
  403284:	3408      	adds	r4, #8
  403286:	4620      	mov	r0, r4
  403288:	b003      	add	sp, #12
  40328a:	e8bd 8ff0 	ldmia.w	sp!, {r4, r5, r6, r7, r8, r9, sl, fp, pc}
  40328e:	4423      	add	r3, r4
  403290:	4630      	mov	r0, r6
  403292:	685a      	ldr	r2, [r3, #4]
  403294:	f042 0201 	orr.w	r2, r2, #1
  403298:	605a      	str	r2, [r3, #4]
  40329a:	f000 faaf 	bl	4037fc <__malloc_unlock>
  40329e:	3408      	adds	r4, #8
  4032a0:	4620      	mov	r0, r4
  4032a2:	b003      	add	sp, #12
  4032a4:	e8bd 8ff0 	ldmia.w	sp!, {r4, r5, r6, r7, r8, r9, sl, fp, pc}
  4032a8:	68bc      	ldr	r4, [r7, #8]
  4032aa:	6863      	ldr	r3, [r4, #4]
  4032ac:	f023 0803 	bic.w	r8, r3, #3
  4032b0:	45a8      	cmp	r8, r5
  4032b2:	d304      	bcc.n	4032be <_malloc_r+0x206>
  4032b4:	ebc5 0308 	rsb	r3, r5, r8
  4032b8:	2b0f      	cmp	r3, #15
  4032ba:	f300 808c 	bgt.w	4033d6 <_malloc_r+0x31e>
  4032be:	4b55      	ldr	r3, [pc, #340]	; (403414 <_malloc_r+0x35c>)
  4032c0:	f8df 9160 	ldr.w	r9, [pc, #352]	; 403424 <_malloc_r+0x36c>
  4032c4:	681a      	ldr	r2, [r3, #0]
  4032c6:	f8d9 3000 	ldr.w	r3, [r9]
  4032ca:	3301      	adds	r3, #1
  4032cc:	442a      	add	r2, r5
  4032ce:	eb04 0a08 	add.w	sl, r4, r8
  4032d2:	f000 8160 	beq.w	403596 <_malloc_r+0x4de>
  4032d6:	f502 5280 	add.w	r2, r2, #4096	; 0x1000
  4032da:	320f      	adds	r2, #15
  4032dc:	f422 627f 	bic.w	r2, r2, #4080	; 0xff0
  4032e0:	f022 020f 	bic.w	r2, r2, #15
  4032e4:	4611      	mov	r1, r2
  4032e6:	4630      	mov	r0, r6
  4032e8:	9201      	str	r2, [sp, #4]
  4032ea:	f000 fac5 	bl	403878 <_sbrk_r>
  4032ee:	f1b0 3fff 	cmp.w	r0, #4294967295
  4032f2:	4683      	mov	fp, r0
  4032f4:	9a01      	ldr	r2, [sp, #4]
  4032f6:	f000 8158 	beq.w	4035aa <_malloc_r+0x4f2>
  4032fa:	4582      	cmp	sl, r0
  4032fc:	f200 80fc 	bhi.w	4034f8 <_malloc_r+0x440>
  403300:	4b45      	ldr	r3, [pc, #276]	; (403418 <_malloc_r+0x360>)
  403302:	6819      	ldr	r1, [r3, #0]
  403304:	45da      	cmp	sl, fp
  403306:	4411      	add	r1, r2
  403308:	6019      	str	r1, [r3, #0]
  40330a:	f000 8153 	beq.w	4035b4 <_malloc_r+0x4fc>
  40330e:	f8d9 0000 	ldr.w	r0, [r9]
  403312:	f8df e110 	ldr.w	lr, [pc, #272]	; 403424 <_malloc_r+0x36c>
  403316:	3001      	adds	r0, #1
  403318:	bf1b      	ittet	ne
  40331a:	ebca 0a0b 	rsbne	sl, sl, fp
  40331e:	4451      	addne	r1, sl
  403320:	f8ce b000 	streq.w	fp, [lr]
  403324:	6019      	strne	r1, [r3, #0]
  403326:	f01b 0107 	ands.w	r1, fp, #7
  40332a:	f000 8117 	beq.w	40355c <_malloc_r+0x4a4>
  40332e:	f1c1 0008 	rsb	r0, r1, #8
  403332:	f5c1 5180 	rsb	r1, r1, #4096	; 0x1000
  403336:	4483      	add	fp, r0
  403338:	3108      	adds	r1, #8
  40333a:	445a      	add	r2, fp
  40333c:	f3c2 020b 	ubfx	r2, r2, #0, #12
  403340:	ebc2 0901 	rsb	r9, r2, r1
  403344:	4649      	mov	r1, r9
  403346:	4630      	mov	r0, r6
  403348:	9301      	str	r3, [sp, #4]
  40334a:	f000 fa95 	bl	403878 <_sbrk_r>
  40334e:	1c43      	adds	r3, r0, #1
  403350:	9b01      	ldr	r3, [sp, #4]
  403352:	f000 813f 	beq.w	4035d4 <_malloc_r+0x51c>
  403356:	ebcb 0200 	rsb	r2, fp, r0
  40335a:	444a      	add	r2, r9
  40335c:	f042 0201 	orr.w	r2, r2, #1
  403360:	6819      	ldr	r1, [r3, #0]
  403362:	f8c7 b008 	str.w	fp, [r7, #8]
  403366:	4449      	add	r1, r9
  403368:	42bc      	cmp	r4, r7
  40336a:	f8cb 2004 	str.w	r2, [fp, #4]
  40336e:	6019      	str	r1, [r3, #0]
  403370:	f8df 90a4 	ldr.w	r9, [pc, #164]	; 403418 <_malloc_r+0x360>
  403374:	d016      	beq.n	4033a4 <_malloc_r+0x2ec>
  403376:	f1b8 0f0f 	cmp.w	r8, #15
  40337a:	f240 80fd 	bls.w	403578 <_malloc_r+0x4c0>
  40337e:	6862      	ldr	r2, [r4, #4]
  403380:	f1a8 030c 	sub.w	r3, r8, #12
  403384:	f023 0307 	bic.w	r3, r3, #7
  403388:	18e0      	adds	r0, r4, r3
  40338a:	f002 0201 	and.w	r2, r2, #1
  40338e:	f04f 0e05 	mov.w	lr, #5
  403392:	431a      	orrs	r2, r3
  403394:	2b0f      	cmp	r3, #15
  403396:	6062      	str	r2, [r4, #4]
  403398:	f8c0 e004 	str.w	lr, [r0, #4]
  40339c:	f8c0 e008 	str.w	lr, [r0, #8]
  4033a0:	f200 811c 	bhi.w	4035dc <_malloc_r+0x524>
  4033a4:	4b1d      	ldr	r3, [pc, #116]	; (40341c <_malloc_r+0x364>)
  4033a6:	68bc      	ldr	r4, [r7, #8]
  4033a8:	681a      	ldr	r2, [r3, #0]
  4033aa:	4291      	cmp	r1, r2
  4033ac:	bf88      	it	hi
  4033ae:	6019      	strhi	r1, [r3, #0]
  4033b0:	4b1b      	ldr	r3, [pc, #108]	; (403420 <_malloc_r+0x368>)
  4033b2:	681a      	ldr	r2, [r3, #0]
  4033b4:	4291      	cmp	r1, r2
  4033b6:	6862      	ldr	r2, [r4, #4]
  4033b8:	bf88      	it	hi
  4033ba:	6019      	strhi	r1, [r3, #0]
  4033bc:	f022 0203 	bic.w	r2, r2, #3
  4033c0:	4295      	cmp	r5, r2
  4033c2:	eba2 0305 	sub.w	r3, r2, r5
  4033c6:	d801      	bhi.n	4033cc <_malloc_r+0x314>
  4033c8:	2b0f      	cmp	r3, #15
  4033ca:	dc04      	bgt.n	4033d6 <_malloc_r+0x31e>
  4033cc:	4630      	mov	r0, r6
  4033ce:	f000 fa15 	bl	4037fc <__malloc_unlock>
  4033d2:	2400      	movs	r4, #0
  4033d4:	e738      	b.n	403248 <_malloc_r+0x190>
  4033d6:	1962      	adds	r2, r4, r5
  4033d8:	f043 0301 	orr.w	r3, r3, #1
  4033dc:	f045 0501 	orr.w	r5, r5, #1
  4033e0:	6065      	str	r5, [r4, #4]
  4033e2:	4630      	mov	r0, r6
  4033e4:	60ba      	str	r2, [r7, #8]
  4033e6:	6053      	str	r3, [r2, #4]
  4033e8:	f000 fa08 	bl	4037fc <__malloc_unlock>
  4033ec:	3408      	adds	r4, #8
  4033ee:	4620      	mov	r0, r4
  4033f0:	b003      	add	sp, #12
  4033f2:	e8bd 8ff0 	ldmia.w	sp!, {r4, r5, r6, r7, r8, r9, sl, fp, pc}
  4033f6:	2b14      	cmp	r3, #20
  4033f8:	d971      	bls.n	4034de <_malloc_r+0x426>
  4033fa:	2b54      	cmp	r3, #84	; 0x54
  4033fc:	f200 80a4 	bhi.w	403548 <_malloc_r+0x490>
  403400:	0b28      	lsrs	r0, r5, #12
  403402:	f100 0e6f 	add.w	lr, r0, #111	; 0x6f
  403406:	ea4f 034e 	mov.w	r3, lr, lsl #1
  40340a:	306e      	adds	r0, #110	; 0x6e
  40340c:	e676      	b.n	4030fc <_malloc_r+0x44>
  40340e:	bf00      	nop
  403410:	2040043c 	.word	0x2040043c
  403414:	20400b9c 	.word	0x20400b9c
  403418:	20400ba0 	.word	0x20400ba0
  40341c:	20400b98 	.word	0x20400b98
  403420:	20400b94 	.word	0x20400b94
  403424:	20400848 	.word	0x20400848
  403428:	0a5a      	lsrs	r2, r3, #9
  40342a:	2a04      	cmp	r2, #4
  40342c:	d95e      	bls.n	4034ec <_malloc_r+0x434>
  40342e:	2a14      	cmp	r2, #20
  403430:	f200 80b3 	bhi.w	40359a <_malloc_r+0x4e2>
  403434:	f102 015c 	add.w	r1, r2, #92	; 0x5c
  403438:	0049      	lsls	r1, r1, #1
  40343a:	325b      	adds	r2, #91	; 0x5b
  40343c:	eb07 0c81 	add.w	ip, r7, r1, lsl #2
  403440:	f857 1021 	ldr.w	r1, [r7, r1, lsl #2]
  403444:	f8df 81dc 	ldr.w	r8, [pc, #476]	; 403624 <_malloc_r+0x56c>
  403448:	f1ac 0c08 	sub.w	ip, ip, #8
  40344c:	458c      	cmp	ip, r1
  40344e:	f000 8088 	beq.w	403562 <_malloc_r+0x4aa>
  403452:	684a      	ldr	r2, [r1, #4]
  403454:	f022 0203 	bic.w	r2, r2, #3
  403458:	4293      	cmp	r3, r2
  40345a:	d202      	bcs.n	403462 <_malloc_r+0x3aa>
  40345c:	6889      	ldr	r1, [r1, #8]
  40345e:	458c      	cmp	ip, r1
  403460:	d1f7      	bne.n	403452 <_malloc_r+0x39a>
  403462:	f8d1 c00c 	ldr.w	ip, [r1, #12]
  403466:	687a      	ldr	r2, [r7, #4]
  403468:	f8c4 c00c 	str.w	ip, [r4, #12]
  40346c:	60a1      	str	r1, [r4, #8]
  40346e:	f8cc 4008 	str.w	r4, [ip, #8]
  403472:	60cc      	str	r4, [r1, #12]
  403474:	e688      	b.n	403188 <_malloc_r+0xd0>
  403476:	1963      	adds	r3, r4, r5
  403478:	f042 0701 	orr.w	r7, r2, #1
  40347c:	f045 0501 	orr.w	r5, r5, #1
  403480:	6065      	str	r5, [r4, #4]
  403482:	4630      	mov	r0, r6
  403484:	614b      	str	r3, [r1, #20]
  403486:	610b      	str	r3, [r1, #16]
  403488:	f8c3 e00c 	str.w	lr, [r3, #12]
  40348c:	f8c3 e008 	str.w	lr, [r3, #8]
  403490:	605f      	str	r7, [r3, #4]
  403492:	509a      	str	r2, [r3, r2]
  403494:	3408      	adds	r4, #8
  403496:	f000 f9b1 	bl	4037fc <__malloc_unlock>
  40349a:	e6d5      	b.n	403248 <_malloc_r+0x190>
  40349c:	684a      	ldr	r2, [r1, #4]
  40349e:	e673      	b.n	403188 <_malloc_r+0xd0>
  4034a0:	f108 0801 	add.w	r8, r8, #1
  4034a4:	f018 0f03 	tst.w	r8, #3
  4034a8:	f10c 0c08 	add.w	ip, ip, #8
  4034ac:	f47f ae7f 	bne.w	4031ae <_malloc_r+0xf6>
  4034b0:	e030      	b.n	403514 <_malloc_r+0x45c>
  4034b2:	68dc      	ldr	r4, [r3, #12]
  4034b4:	42a3      	cmp	r3, r4
  4034b6:	bf08      	it	eq
  4034b8:	3002      	addeq	r0, #2
  4034ba:	f43f ae35 	beq.w	403128 <_malloc_r+0x70>
  4034be:	e6b3      	b.n	403228 <_malloc_r+0x170>
  4034c0:	440b      	add	r3, r1
  4034c2:	460c      	mov	r4, r1
  4034c4:	685a      	ldr	r2, [r3, #4]
  4034c6:	68c9      	ldr	r1, [r1, #12]
  4034c8:	f854 5f08 	ldr.w	r5, [r4, #8]!
  4034cc:	f042 0201 	orr.w	r2, r2, #1
  4034d0:	605a      	str	r2, [r3, #4]
  4034d2:	4630      	mov	r0, r6
  4034d4:	60e9      	str	r1, [r5, #12]
  4034d6:	608d      	str	r5, [r1, #8]
  4034d8:	f000 f990 	bl	4037fc <__malloc_unlock>
  4034dc:	e6b4      	b.n	403248 <_malloc_r+0x190>
  4034de:	f103 0e5c 	add.w	lr, r3, #92	; 0x5c
  4034e2:	f103 005b 	add.w	r0, r3, #91	; 0x5b
  4034e6:	ea4f 034e 	mov.w	r3, lr, lsl #1
  4034ea:	e607      	b.n	4030fc <_malloc_r+0x44>
  4034ec:	099a      	lsrs	r2, r3, #6
  4034ee:	f102 0139 	add.w	r1, r2, #57	; 0x39
  4034f2:	0049      	lsls	r1, r1, #1
  4034f4:	3238      	adds	r2, #56	; 0x38
  4034f6:	e7a1      	b.n	40343c <_malloc_r+0x384>
  4034f8:	42bc      	cmp	r4, r7
  4034fa:	4b4a      	ldr	r3, [pc, #296]	; (403624 <_malloc_r+0x56c>)
  4034fc:	f43f af00 	beq.w	403300 <_malloc_r+0x248>
  403500:	689c      	ldr	r4, [r3, #8]
  403502:	6862      	ldr	r2, [r4, #4]
  403504:	f022 0203 	bic.w	r2, r2, #3
  403508:	e75a      	b.n	4033c0 <_malloc_r+0x308>
  40350a:	f859 3908 	ldr.w	r3, [r9], #-8
  40350e:	4599      	cmp	r9, r3
  403510:	f040 8082 	bne.w	403618 <_malloc_r+0x560>
  403514:	f010 0f03 	tst.w	r0, #3
  403518:	f100 30ff 	add.w	r0, r0, #4294967295
  40351c:	d1f5      	bne.n	40350a <_malloc_r+0x452>
  40351e:	687b      	ldr	r3, [r7, #4]
  403520:	ea23 0304 	bic.w	r3, r3, r4
  403524:	607b      	str	r3, [r7, #4]
  403526:	0064      	lsls	r4, r4, #1
  403528:	429c      	cmp	r4, r3
  40352a:	f63f aebd 	bhi.w	4032a8 <_malloc_r+0x1f0>
  40352e:	2c00      	cmp	r4, #0
  403530:	f43f aeba 	beq.w	4032a8 <_malloc_r+0x1f0>
  403534:	421c      	tst	r4, r3
  403536:	4640      	mov	r0, r8
  403538:	f47f ae35 	bne.w	4031a6 <_malloc_r+0xee>
  40353c:	0064      	lsls	r4, r4, #1
  40353e:	421c      	tst	r4, r3
  403540:	f100 0004 	add.w	r0, r0, #4
  403544:	d0fa      	beq.n	40353c <_malloc_r+0x484>
  403546:	e62e      	b.n	4031a6 <_malloc_r+0xee>
  403548:	f5b3 7faa 	cmp.w	r3, #340	; 0x154
  40354c:	d818      	bhi.n	403580 <_malloc_r+0x4c8>
  40354e:	0be8      	lsrs	r0, r5, #15
  403550:	f100 0e78 	add.w	lr, r0, #120	; 0x78
  403554:	ea4f 034e 	mov.w	r3, lr, lsl #1
  403558:	3077      	adds	r0, #119	; 0x77
  40355a:	e5cf      	b.n	4030fc <_malloc_r+0x44>
  40355c:	f44f 5180 	mov.w	r1, #4096	; 0x1000
  403560:	e6eb      	b.n	40333a <_malloc_r+0x282>
  403562:	2101      	movs	r1, #1
  403564:	f8d8 3004 	ldr.w	r3, [r8, #4]
  403568:	1092      	asrs	r2, r2, #2
  40356a:	fa01 f202 	lsl.w	r2, r1, r2
  40356e:	431a      	orrs	r2, r3
  403570:	f8c8 2004 	str.w	r2, [r8, #4]
  403574:	4661      	mov	r1, ip
  403576:	e777      	b.n	403468 <_malloc_r+0x3b0>
  403578:	2301      	movs	r3, #1
  40357a:	f8cb 3004 	str.w	r3, [fp, #4]
  40357e:	e725      	b.n	4033cc <_malloc_r+0x314>
  403580:	f240 5254 	movw	r2, #1364	; 0x554
  403584:	4293      	cmp	r3, r2
  403586:	d820      	bhi.n	4035ca <_malloc_r+0x512>
  403588:	0ca8      	lsrs	r0, r5, #18
  40358a:	f100 0e7d 	add.w	lr, r0, #125	; 0x7d
  40358e:	ea4f 034e 	mov.w	r3, lr, lsl #1
  403592:	307c      	adds	r0, #124	; 0x7c
  403594:	e5b2      	b.n	4030fc <_malloc_r+0x44>
  403596:	3210      	adds	r2, #16
  403598:	e6a4      	b.n	4032e4 <_malloc_r+0x22c>
  40359a:	2a54      	cmp	r2, #84	; 0x54
  40359c:	d826      	bhi.n	4035ec <_malloc_r+0x534>
  40359e:	0b1a      	lsrs	r2, r3, #12
  4035a0:	f102 016f 	add.w	r1, r2, #111	; 0x6f
  4035a4:	0049      	lsls	r1, r1, #1
  4035a6:	326e      	adds	r2, #110	; 0x6e
  4035a8:	e748      	b.n	40343c <_malloc_r+0x384>
  4035aa:	68bc      	ldr	r4, [r7, #8]
  4035ac:	6862      	ldr	r2, [r4, #4]
  4035ae:	f022 0203 	bic.w	r2, r2, #3
  4035b2:	e705      	b.n	4033c0 <_malloc_r+0x308>
  4035b4:	f3ca 000b 	ubfx	r0, sl, #0, #12
  4035b8:	2800      	cmp	r0, #0
  4035ba:	f47f aea8 	bne.w	40330e <_malloc_r+0x256>
  4035be:	4442      	add	r2, r8
  4035c0:	68bb      	ldr	r3, [r7, #8]
  4035c2:	f042 0201 	orr.w	r2, r2, #1
  4035c6:	605a      	str	r2, [r3, #4]
  4035c8:	e6ec      	b.n	4033a4 <_malloc_r+0x2ec>
  4035ca:	23fe      	movs	r3, #254	; 0xfe
  4035cc:	f04f 0e7f 	mov.w	lr, #127	; 0x7f
  4035d0:	207e      	movs	r0, #126	; 0x7e
  4035d2:	e593      	b.n	4030fc <_malloc_r+0x44>
  4035d4:	2201      	movs	r2, #1
  4035d6:	f04f 0900 	mov.w	r9, #0
  4035da:	e6c1      	b.n	403360 <_malloc_r+0x2a8>
  4035dc:	f104 0108 	add.w	r1, r4, #8
  4035e0:	4630      	mov	r0, r6
  4035e2:	f004 f80f 	bl	407604 <_free_r>
  4035e6:	f8d9 1000 	ldr.w	r1, [r9]
  4035ea:	e6db      	b.n	4033a4 <_malloc_r+0x2ec>
  4035ec:	f5b2 7faa 	cmp.w	r2, #340	; 0x154
  4035f0:	d805      	bhi.n	4035fe <_malloc_r+0x546>
  4035f2:	0bda      	lsrs	r2, r3, #15
  4035f4:	f102 0178 	add.w	r1, r2, #120	; 0x78
  4035f8:	0049      	lsls	r1, r1, #1
  4035fa:	3277      	adds	r2, #119	; 0x77
  4035fc:	e71e      	b.n	40343c <_malloc_r+0x384>
  4035fe:	f240 5154 	movw	r1, #1364	; 0x554
  403602:	428a      	cmp	r2, r1
  403604:	d805      	bhi.n	403612 <_malloc_r+0x55a>
  403606:	0c9a      	lsrs	r2, r3, #18
  403608:	f102 017d 	add.w	r1, r2, #125	; 0x7d
  40360c:	0049      	lsls	r1, r1, #1
  40360e:	327c      	adds	r2, #124	; 0x7c
  403610:	e714      	b.n	40343c <_malloc_r+0x384>
  403612:	21fe      	movs	r1, #254	; 0xfe
  403614:	227e      	movs	r2, #126	; 0x7e
  403616:	e711      	b.n	40343c <_malloc_r+0x384>
  403618:	687b      	ldr	r3, [r7, #4]
  40361a:	e784      	b.n	403526 <_malloc_r+0x46e>
  40361c:	08e8      	lsrs	r0, r5, #3
  40361e:	1c43      	adds	r3, r0, #1
  403620:	005b      	lsls	r3, r3, #1
  403622:	e5f8      	b.n	403216 <_malloc_r+0x15e>
  403624:	2040043c 	.word	0x2040043c

00403628 <memcpy>:
  403628:	4684      	mov	ip, r0
  40362a:	ea41 0300 	orr.w	r3, r1, r0
  40362e:	f013 0303 	ands.w	r3, r3, #3
  403632:	d16d      	bne.n	403710 <memcpy+0xe8>
  403634:	3a40      	subs	r2, #64	; 0x40
  403636:	d341      	bcc.n	4036bc <memcpy+0x94>
  403638:	f851 3b04 	ldr.w	r3, [r1], #4
  40363c:	f840 3b04 	str.w	r3, [r0], #4
  403640:	f851 3b04 	ldr.w	r3, [r1], #4
  403644:	f840 3b04 	str.w	r3, [r0], #4
  403648:	f851 3b04 	ldr.w	r3, [r1], #4
  40364c:	f840 3b04 	str.w	r3, [r0], #4
  403650:	f851 3b04 	ldr.w	r3, [r1], #4
  403654:	f840 3b04 	str.w	r3, [r0], #4
  403658:	f851 3b04 	ldr.w	r3, [r1], #4
  40365c:	f840 3b04 	str.w	r3, [r0], #4
  403660:	f851 3b04 	ldr.w	r3, [r1], #4
  403664:	f840 3b04 	str.w	r3, [r0], #4
  403668:	f851 3b04 	ldr.w	r3, [r1], #4
  40366c:	f840 3b04 	str.w	r3, [r0], #4
  403670:	f851 3b04 	ldr.w	r3, [r1], #4
  403674:	f840 3b04 	str.w	r3, [r0], #4
  403678:	f851 3b04 	ldr.w	r3, [r1], #4
  40367c:	f840 3b04 	str.w	r3, [r0], #4
  403680:	f851 3b04 	ldr.w	r3, [r1], #4
  403684:	f840 3b04 	str.w	r3, [r0], #4
  403688:	f851 3b04 	ldr.w	r3, [r1], #4
  40368c:	f840 3b04 	str.w	r3, [r0], #4
  403690:	f851 3b04 	ldr.w	r3, [r1], #4
  403694:	f840 3b04 	str.w	r3, [r0], #4
  403698:	f851 3b04 	ldr.w	r3, [r1], #4
  40369c:	f840 3b04 	str.w	r3, [r0], #4
  4036a0:	f851 3b04 	ldr.w	r3, [r1], #4
  4036a4:	f840 3b04 	str.w	r3, [r0], #4
  4036a8:	f851 3b04 	ldr.w	r3, [r1], #4
  4036ac:	f840 3b04 	str.w	r3, [r0], #4
  4036b0:	f851 3b04 	ldr.w	r3, [r1], #4
  4036b4:	f840 3b04 	str.w	r3, [r0], #4
  4036b8:	3a40      	subs	r2, #64	; 0x40
  4036ba:	d2bd      	bcs.n	403638 <memcpy+0x10>
  4036bc:	3230      	adds	r2, #48	; 0x30
  4036be:	d311      	bcc.n	4036e4 <memcpy+0xbc>
  4036c0:	f851 3b04 	ldr.w	r3, [r1], #4
  4036c4:	f840 3b04 	str.w	r3, [r0], #4
  4036c8:	f851 3b04 	ldr.w	r3, [r1], #4
  4036cc:	f840 3b04 	str.w	r3, [r0], #4
  4036d0:	f851 3b04 	ldr.w	r3, [r1], #4
  4036d4:	f840 3b04 	str.w	r3, [r0], #4
  4036d8:	f851 3b04 	ldr.w	r3, [r1], #4
  4036dc:	f840 3b04 	str.w	r3, [r0], #4
  4036e0:	3a10      	subs	r2, #16
  4036e2:	d2ed      	bcs.n	4036c0 <memcpy+0x98>
  4036e4:	320c      	adds	r2, #12
  4036e6:	d305      	bcc.n	4036f4 <memcpy+0xcc>
  4036e8:	f851 3b04 	ldr.w	r3, [r1], #4
  4036ec:	f840 3b04 	str.w	r3, [r0], #4
  4036f0:	3a04      	subs	r2, #4
  4036f2:	d2f9      	bcs.n	4036e8 <memcpy+0xc0>
  4036f4:	3204      	adds	r2, #4
  4036f6:	d008      	beq.n	40370a <memcpy+0xe2>
  4036f8:	07d2      	lsls	r2, r2, #31
  4036fa:	bf1c      	itt	ne
  4036fc:	f811 3b01 	ldrbne.w	r3, [r1], #1
  403700:	f800 3b01 	strbne.w	r3, [r0], #1
  403704:	d301      	bcc.n	40370a <memcpy+0xe2>
  403706:	880b      	ldrh	r3, [r1, #0]
  403708:	8003      	strh	r3, [r0, #0]
  40370a:	4660      	mov	r0, ip
  40370c:	4770      	bx	lr
  40370e:	bf00      	nop
  403710:	2a08      	cmp	r2, #8
  403712:	d313      	bcc.n	40373c <memcpy+0x114>
  403714:	078b      	lsls	r3, r1, #30
  403716:	d08d      	beq.n	403634 <memcpy+0xc>
  403718:	f010 0303 	ands.w	r3, r0, #3
  40371c:	d08a      	beq.n	403634 <memcpy+0xc>
  40371e:	f1c3 0304 	rsb	r3, r3, #4
  403722:	1ad2      	subs	r2, r2, r3
  403724:	07db      	lsls	r3, r3, #31
  403726:	bf1c      	itt	ne
  403728:	f811 3b01 	ldrbne.w	r3, [r1], #1
  40372c:	f800 3b01 	strbne.w	r3, [r0], #1
  403730:	d380      	bcc.n	403634 <memcpy+0xc>
  403732:	f831 3b02 	ldrh.w	r3, [r1], #2
  403736:	f820 3b02 	strh.w	r3, [r0], #2
  40373a:	e77b      	b.n	403634 <memcpy+0xc>
  40373c:	3a04      	subs	r2, #4
  40373e:	d3d9      	bcc.n	4036f4 <memcpy+0xcc>
  403740:	3a01      	subs	r2, #1
  403742:	f811 3b01 	ldrb.w	r3, [r1], #1
  403746:	f800 3b01 	strb.w	r3, [r0], #1
  40374a:	d2f9      	bcs.n	403740 <memcpy+0x118>
  40374c:	780b      	ldrb	r3, [r1, #0]
  40374e:	7003      	strb	r3, [r0, #0]
  403750:	784b      	ldrb	r3, [r1, #1]
  403752:	7043      	strb	r3, [r0, #1]
  403754:	788b      	ldrb	r3, [r1, #2]
  403756:	7083      	strb	r3, [r0, #2]
  403758:	4660      	mov	r0, ip
  40375a:	4770      	bx	lr

0040375c <memset>:
  40375c:	b470      	push	{r4, r5, r6}
  40375e:	0784      	lsls	r4, r0, #30
  403760:	d046      	beq.n	4037f0 <memset+0x94>
  403762:	1e54      	subs	r4, r2, #1
  403764:	2a00      	cmp	r2, #0
  403766:	d041      	beq.n	4037ec <memset+0x90>
  403768:	b2cd      	uxtb	r5, r1
  40376a:	4603      	mov	r3, r0
  40376c:	e002      	b.n	403774 <memset+0x18>
  40376e:	1e62      	subs	r2, r4, #1
  403770:	b3e4      	cbz	r4, 4037ec <memset+0x90>
  403772:	4614      	mov	r4, r2
  403774:	f803 5b01 	strb.w	r5, [r3], #1
  403778:	079a      	lsls	r2, r3, #30
  40377a:	d1f8      	bne.n	40376e <memset+0x12>
  40377c:	2c03      	cmp	r4, #3
  40377e:	d92e      	bls.n	4037de <memset+0x82>
  403780:	b2cd      	uxtb	r5, r1
  403782:	ea45 2505 	orr.w	r5, r5, r5, lsl #8
  403786:	2c0f      	cmp	r4, #15
  403788:	ea45 4505 	orr.w	r5, r5, r5, lsl #16
  40378c:	d919      	bls.n	4037c2 <memset+0x66>
  40378e:	f103 0210 	add.w	r2, r3, #16
  403792:	4626      	mov	r6, r4
  403794:	3e10      	subs	r6, #16
  403796:	2e0f      	cmp	r6, #15
  403798:	f842 5c10 	str.w	r5, [r2, #-16]
  40379c:	f842 5c0c 	str.w	r5, [r2, #-12]
  4037a0:	f842 5c08 	str.w	r5, [r2, #-8]
  4037a4:	f842 5c04 	str.w	r5, [r2, #-4]
  4037a8:	f102 0210 	add.w	r2, r2, #16
  4037ac:	d8f2      	bhi.n	403794 <memset+0x38>
  4037ae:	f1a4 0210 	sub.w	r2, r4, #16
  4037b2:	f022 020f 	bic.w	r2, r2, #15
  4037b6:	f004 040f 	and.w	r4, r4, #15
  4037ba:	3210      	adds	r2, #16
  4037bc:	2c03      	cmp	r4, #3
  4037be:	4413      	add	r3, r2
  4037c0:	d90d      	bls.n	4037de <memset+0x82>
  4037c2:	461e      	mov	r6, r3
  4037c4:	4622      	mov	r2, r4
  4037c6:	3a04      	subs	r2, #4
  4037c8:	2a03      	cmp	r2, #3
  4037ca:	f846 5b04 	str.w	r5, [r6], #4
  4037ce:	d8fa      	bhi.n	4037c6 <memset+0x6a>
  4037d0:	1f22      	subs	r2, r4, #4
  4037d2:	f022 0203 	bic.w	r2, r2, #3
  4037d6:	3204      	adds	r2, #4
  4037d8:	4413      	add	r3, r2
  4037da:	f004 0403 	and.w	r4, r4, #3
  4037de:	b12c      	cbz	r4, 4037ec <memset+0x90>
  4037e0:	b2c9      	uxtb	r1, r1
  4037e2:	441c      	add	r4, r3
  4037e4:	f803 1b01 	strb.w	r1, [r3], #1
  4037e8:	42a3      	cmp	r3, r4
  4037ea:	d1fb      	bne.n	4037e4 <memset+0x88>
  4037ec:	bc70      	pop	{r4, r5, r6}
  4037ee:	4770      	bx	lr
  4037f0:	4614      	mov	r4, r2
  4037f2:	4603      	mov	r3, r0
  4037f4:	e7c2      	b.n	40377c <memset+0x20>
  4037f6:	bf00      	nop

004037f8 <__malloc_lock>:
  4037f8:	4770      	bx	lr
  4037fa:	bf00      	nop

004037fc <__malloc_unlock>:
  4037fc:	4770      	bx	lr
  4037fe:	bf00      	nop

00403800 <_puts_r>:
  403800:	b5f0      	push	{r4, r5, r6, r7, lr}
  403802:	4605      	mov	r5, r0
  403804:	b089      	sub	sp, #36	; 0x24
  403806:	4608      	mov	r0, r1
  403808:	460c      	mov	r4, r1
  40380a:	f000 f999 	bl	403b40 <strlen>
  40380e:	6bab      	ldr	r3, [r5, #56]	; 0x38
  403810:	4f14      	ldr	r7, [pc, #80]	; (403864 <_puts_r+0x64>)
  403812:	9404      	str	r4, [sp, #16]
  403814:	2601      	movs	r6, #1
  403816:	1c44      	adds	r4, r0, #1
  403818:	a904      	add	r1, sp, #16
  40381a:	2202      	movs	r2, #2
  40381c:	9403      	str	r4, [sp, #12]
  40381e:	9005      	str	r0, [sp, #20]
  403820:	68ac      	ldr	r4, [r5, #8]
  403822:	9706      	str	r7, [sp, #24]
  403824:	9607      	str	r6, [sp, #28]
  403826:	9101      	str	r1, [sp, #4]
  403828:	9202      	str	r2, [sp, #8]
  40382a:	b1b3      	cbz	r3, 40385a <_puts_r+0x5a>
  40382c:	f9b4 300c 	ldrsh.w	r3, [r4, #12]
  403830:	049a      	lsls	r2, r3, #18
  403832:	d406      	bmi.n	403842 <_puts_r+0x42>
  403834:	6e62      	ldr	r2, [r4, #100]	; 0x64
  403836:	f443 5300 	orr.w	r3, r3, #8192	; 0x2000
  40383a:	f422 5200 	bic.w	r2, r2, #8192	; 0x2000
  40383e:	81a3      	strh	r3, [r4, #12]
  403840:	6662      	str	r2, [r4, #100]	; 0x64
  403842:	4621      	mov	r1, r4
  403844:	4628      	mov	r0, r5
  403846:	aa01      	add	r2, sp, #4
  403848:	f003 ffc4 	bl	4077d4 <__sfvwrite_r>
  40384c:	2800      	cmp	r0, #0
  40384e:	bf14      	ite	ne
  403850:	f04f 30ff 	movne.w	r0, #4294967295
  403854:	200a      	moveq	r0, #10
  403856:	b009      	add	sp, #36	; 0x24
  403858:	bdf0      	pop	{r4, r5, r6, r7, pc}
  40385a:	4628      	mov	r0, r5
  40385c:	f003 fe08 	bl	407470 <__sinit>
  403860:	e7e4      	b.n	40382c <_puts_r+0x2c>
  403862:	bf00      	nop
  403864:	00409a18 	.word	0x00409a18

00403868 <puts>:
  403868:	4b02      	ldr	r3, [pc, #8]	; (403874 <puts+0xc>)
  40386a:	4601      	mov	r1, r0
  40386c:	6818      	ldr	r0, [r3, #0]
  40386e:	f7ff bfc7 	b.w	403800 <_puts_r>
  403872:	bf00      	nop
  403874:	20400438 	.word	0x20400438

00403878 <_sbrk_r>:
  403878:	b538      	push	{r3, r4, r5, lr}
  40387a:	4c07      	ldr	r4, [pc, #28]	; (403898 <_sbrk_r+0x20>)
  40387c:	2300      	movs	r3, #0
  40387e:	4605      	mov	r5, r0
  403880:	4608      	mov	r0, r1
  403882:	6023      	str	r3, [r4, #0]
  403884:	f7fd f902 	bl	400a8c <_sbrk>
  403888:	1c43      	adds	r3, r0, #1
  40388a:	d000      	beq.n	40388e <_sbrk_r+0x16>
  40388c:	bd38      	pop	{r3, r4, r5, pc}
  40388e:	6823      	ldr	r3, [r4, #0]
  403890:	2b00      	cmp	r3, #0
  403892:	d0fb      	beq.n	40388c <_sbrk_r+0x14>
  403894:	602b      	str	r3, [r5, #0]
  403896:	bd38      	pop	{r3, r4, r5, pc}
  403898:	20400c14 	.word	0x20400c14

0040389c <setbuf>:
  40389c:	2900      	cmp	r1, #0
  40389e:	bf0c      	ite	eq
  4038a0:	2202      	moveq	r2, #2
  4038a2:	2200      	movne	r2, #0
  4038a4:	f44f 6380 	mov.w	r3, #1024	; 0x400
  4038a8:	f000 b800 	b.w	4038ac <setvbuf>

004038ac <setvbuf>:
  4038ac:	e92d 43f0 	stmdb	sp!, {r4, r5, r6, r7, r8, r9, lr}
  4038b0:	4c51      	ldr	r4, [pc, #324]	; (4039f8 <setvbuf+0x14c>)
  4038b2:	6825      	ldr	r5, [r4, #0]
  4038b4:	b083      	sub	sp, #12
  4038b6:	4604      	mov	r4, r0
  4038b8:	460f      	mov	r7, r1
  4038ba:	4690      	mov	r8, r2
  4038bc:	461e      	mov	r6, r3
  4038be:	b115      	cbz	r5, 4038c6 <setvbuf+0x1a>
  4038c0:	6bab      	ldr	r3, [r5, #56]	; 0x38
  4038c2:	2b00      	cmp	r3, #0
  4038c4:	d079      	beq.n	4039ba <setvbuf+0x10e>
  4038c6:	f1b8 0f02 	cmp.w	r8, #2
  4038ca:	d004      	beq.n	4038d6 <setvbuf+0x2a>
  4038cc:	f1b8 0f01 	cmp.w	r8, #1
  4038d0:	d87f      	bhi.n	4039d2 <setvbuf+0x126>
  4038d2:	2e00      	cmp	r6, #0
  4038d4:	db7d      	blt.n	4039d2 <setvbuf+0x126>
  4038d6:	4621      	mov	r1, r4
  4038d8:	4628      	mov	r0, r5
  4038da:	f003 fd35 	bl	407348 <_fflush_r>
  4038de:	6b21      	ldr	r1, [r4, #48]	; 0x30
  4038e0:	b141      	cbz	r1, 4038f4 <setvbuf+0x48>
  4038e2:	f104 0340 	add.w	r3, r4, #64	; 0x40
  4038e6:	4299      	cmp	r1, r3
  4038e8:	d002      	beq.n	4038f0 <setvbuf+0x44>
  4038ea:	4628      	mov	r0, r5
  4038ec:	f003 fe8a 	bl	407604 <_free_r>
  4038f0:	2300      	movs	r3, #0
  4038f2:	6323      	str	r3, [r4, #48]	; 0x30
  4038f4:	f9b4 300c 	ldrsh.w	r3, [r4, #12]
  4038f8:	2200      	movs	r2, #0
  4038fa:	61a2      	str	r2, [r4, #24]
  4038fc:	6062      	str	r2, [r4, #4]
  4038fe:	061a      	lsls	r2, r3, #24
  403900:	d454      	bmi.n	4039ac <setvbuf+0x100>
  403902:	f423 634a 	bic.w	r3, r3, #3232	; 0xca0
  403906:	f023 0303 	bic.w	r3, r3, #3
  40390a:	f1b8 0f02 	cmp.w	r8, #2
  40390e:	81a3      	strh	r3, [r4, #12]
  403910:	d039      	beq.n	403986 <setvbuf+0xda>
  403912:	ab01      	add	r3, sp, #4
  403914:	466a      	mov	r2, sp
  403916:	4621      	mov	r1, r4
  403918:	4628      	mov	r0, r5
  40391a:	f004 f915 	bl	407b48 <__swhatbuf_r>
  40391e:	89a3      	ldrh	r3, [r4, #12]
  403920:	4318      	orrs	r0, r3
  403922:	81a0      	strh	r0, [r4, #12]
  403924:	b326      	cbz	r6, 403970 <setvbuf+0xc4>
  403926:	b327      	cbz	r7, 403972 <setvbuf+0xc6>
  403928:	6bab      	ldr	r3, [r5, #56]	; 0x38
  40392a:	2b00      	cmp	r3, #0
  40392c:	d04d      	beq.n	4039ca <setvbuf+0x11e>
  40392e:	9b00      	ldr	r3, [sp, #0]
  403930:	f9b4 000c 	ldrsh.w	r0, [r4, #12]
  403934:	6027      	str	r7, [r4, #0]
  403936:	429e      	cmp	r6, r3
  403938:	bf1c      	itt	ne
  40393a:	f440 6000 	orrne.w	r0, r0, #2048	; 0x800
  40393e:	81a0      	strhne	r0, [r4, #12]
  403940:	f1b8 0f01 	cmp.w	r8, #1
  403944:	bf08      	it	eq
  403946:	f040 0001 	orreq.w	r0, r0, #1
  40394a:	b283      	uxth	r3, r0
  40394c:	bf08      	it	eq
  40394e:	81a0      	strheq	r0, [r4, #12]
  403950:	f003 0008 	and.w	r0, r3, #8
  403954:	b280      	uxth	r0, r0
  403956:	6127      	str	r7, [r4, #16]
  403958:	6166      	str	r6, [r4, #20]
  40395a:	b318      	cbz	r0, 4039a4 <setvbuf+0xf8>
  40395c:	f013 0001 	ands.w	r0, r3, #1
  403960:	d02f      	beq.n	4039c2 <setvbuf+0x116>
  403962:	2000      	movs	r0, #0
  403964:	4276      	negs	r6, r6
  403966:	61a6      	str	r6, [r4, #24]
  403968:	60a0      	str	r0, [r4, #8]
  40396a:	b003      	add	sp, #12
  40396c:	e8bd 83f0 	ldmia.w	sp!, {r4, r5, r6, r7, r8, r9, pc}
  403970:	9e00      	ldr	r6, [sp, #0]
  403972:	4630      	mov	r0, r6
  403974:	f7ff fb90 	bl	403098 <malloc>
  403978:	4607      	mov	r7, r0
  40397a:	b368      	cbz	r0, 4039d8 <setvbuf+0x12c>
  40397c:	89a3      	ldrh	r3, [r4, #12]
  40397e:	f043 0380 	orr.w	r3, r3, #128	; 0x80
  403982:	81a3      	strh	r3, [r4, #12]
  403984:	e7d0      	b.n	403928 <setvbuf+0x7c>
  403986:	2000      	movs	r0, #0
  403988:	f104 0243 	add.w	r2, r4, #67	; 0x43
  40398c:	f043 0302 	orr.w	r3, r3, #2
  403990:	2500      	movs	r5, #0
  403992:	2101      	movs	r1, #1
  403994:	81a3      	strh	r3, [r4, #12]
  403996:	60a5      	str	r5, [r4, #8]
  403998:	6022      	str	r2, [r4, #0]
  40399a:	6122      	str	r2, [r4, #16]
  40399c:	6161      	str	r1, [r4, #20]
  40399e:	b003      	add	sp, #12
  4039a0:	e8bd 83f0 	ldmia.w	sp!, {r4, r5, r6, r7, r8, r9, pc}
  4039a4:	60a0      	str	r0, [r4, #8]
  4039a6:	b003      	add	sp, #12
  4039a8:	e8bd 83f0 	ldmia.w	sp!, {r4, r5, r6, r7, r8, r9, pc}
  4039ac:	6921      	ldr	r1, [r4, #16]
  4039ae:	4628      	mov	r0, r5
  4039b0:	f003 fe28 	bl	407604 <_free_r>
  4039b4:	f9b4 300c 	ldrsh.w	r3, [r4, #12]
  4039b8:	e7a3      	b.n	403902 <setvbuf+0x56>
  4039ba:	4628      	mov	r0, r5
  4039bc:	f003 fd58 	bl	407470 <__sinit>
  4039c0:	e781      	b.n	4038c6 <setvbuf+0x1a>
  4039c2:	60a6      	str	r6, [r4, #8]
  4039c4:	b003      	add	sp, #12
  4039c6:	e8bd 83f0 	ldmia.w	sp!, {r4, r5, r6, r7, r8, r9, pc}
  4039ca:	4628      	mov	r0, r5
  4039cc:	f003 fd50 	bl	407470 <__sinit>
  4039d0:	e7ad      	b.n	40392e <setvbuf+0x82>
  4039d2:	f04f 30ff 	mov.w	r0, #4294967295
  4039d6:	e7e2      	b.n	40399e <setvbuf+0xf2>
  4039d8:	f8dd 9000 	ldr.w	r9, [sp]
  4039dc:	45b1      	cmp	r9, r6
  4039de:	d006      	beq.n	4039ee <setvbuf+0x142>
  4039e0:	4648      	mov	r0, r9
  4039e2:	f7ff fb59 	bl	403098 <malloc>
  4039e6:	4607      	mov	r7, r0
  4039e8:	b108      	cbz	r0, 4039ee <setvbuf+0x142>
  4039ea:	464e      	mov	r6, r9
  4039ec:	e7c6      	b.n	40397c <setvbuf+0xd0>
  4039ee:	f9b4 300c 	ldrsh.w	r3, [r4, #12]
  4039f2:	f04f 30ff 	mov.w	r0, #4294967295
  4039f6:	e7c7      	b.n	403988 <setvbuf+0xdc>
  4039f8:	20400438 	.word	0x20400438

004039fc <sprintf>:
  4039fc:	b40e      	push	{r1, r2, r3}
  4039fe:	b5f0      	push	{r4, r5, r6, r7, lr}
  403a00:	b09c      	sub	sp, #112	; 0x70
  403a02:	ab21      	add	r3, sp, #132	; 0x84
  403a04:	490f      	ldr	r1, [pc, #60]	; (403a44 <sprintf+0x48>)
  403a06:	f853 2b04 	ldr.w	r2, [r3], #4
  403a0a:	9301      	str	r3, [sp, #4]
  403a0c:	4605      	mov	r5, r0
  403a0e:	f06f 4400 	mvn.w	r4, #2147483648	; 0x80000000
  403a12:	6808      	ldr	r0, [r1, #0]
  403a14:	9502      	str	r5, [sp, #8]
  403a16:	f44f 7702 	mov.w	r7, #520	; 0x208
  403a1a:	f64f 76ff 	movw	r6, #65535	; 0xffff
  403a1e:	a902      	add	r1, sp, #8
  403a20:	9506      	str	r5, [sp, #24]
  403a22:	f8ad 7014 	strh.w	r7, [sp, #20]
  403a26:	9404      	str	r4, [sp, #16]
  403a28:	9407      	str	r4, [sp, #28]
  403a2a:	f8ad 6016 	strh.w	r6, [sp, #22]
  403a2e:	f000 f8f5 	bl	403c1c <_svfprintf_r>
  403a32:	9b02      	ldr	r3, [sp, #8]
  403a34:	2200      	movs	r2, #0
  403a36:	701a      	strb	r2, [r3, #0]
  403a38:	b01c      	add	sp, #112	; 0x70
  403a3a:	e8bd 40f0 	ldmia.w	sp!, {r4, r5, r6, r7, lr}
  403a3e:	b003      	add	sp, #12
  403a40:	4770      	bx	lr
  403a42:	bf00      	nop
  403a44:	20400438 	.word	0x20400438

00403a48 <strcpy>:
  403a48:	ea80 0201 	eor.w	r2, r0, r1
  403a4c:	4684      	mov	ip, r0
  403a4e:	f012 0f03 	tst.w	r2, #3
  403a52:	d14f      	bne.n	403af4 <strcpy+0xac>
  403a54:	f011 0f03 	tst.w	r1, #3
  403a58:	d132      	bne.n	403ac0 <strcpy+0x78>
  403a5a:	f84d 4d04 	str.w	r4, [sp, #-4]!
  403a5e:	f011 0f04 	tst.w	r1, #4
  403a62:	f851 3b04 	ldr.w	r3, [r1], #4
  403a66:	d00b      	beq.n	403a80 <strcpy+0x38>
  403a68:	f1a3 3201 	sub.w	r2, r3, #16843009	; 0x1010101
  403a6c:	439a      	bics	r2, r3
  403a6e:	f012 3f80 	tst.w	r2, #2155905152	; 0x80808080
  403a72:	bf04      	itt	eq
  403a74:	f84c 3b04 	streq.w	r3, [ip], #4
  403a78:	f851 3b04 	ldreq.w	r3, [r1], #4
  403a7c:	d116      	bne.n	403aac <strcpy+0x64>
  403a7e:	bf00      	nop
  403a80:	f851 4b04 	ldr.w	r4, [r1], #4
  403a84:	f1a3 3201 	sub.w	r2, r3, #16843009	; 0x1010101
  403a88:	439a      	bics	r2, r3
  403a8a:	f012 3f80 	tst.w	r2, #2155905152	; 0x80808080
  403a8e:	f1a4 3201 	sub.w	r2, r4, #16843009	; 0x1010101
  403a92:	d10b      	bne.n	403aac <strcpy+0x64>
  403a94:	f84c 3b04 	str.w	r3, [ip], #4
  403a98:	43a2      	bics	r2, r4
  403a9a:	f012 3f80 	tst.w	r2, #2155905152	; 0x80808080
  403a9e:	bf04      	itt	eq
  403aa0:	f851 3b04 	ldreq.w	r3, [r1], #4
  403aa4:	f84c 4b04 	streq.w	r4, [ip], #4
  403aa8:	d0ea      	beq.n	403a80 <strcpy+0x38>
  403aaa:	4623      	mov	r3, r4
  403aac:	f80c 3b01 	strb.w	r3, [ip], #1
  403ab0:	f013 0fff 	tst.w	r3, #255	; 0xff
  403ab4:	ea4f 2333 	mov.w	r3, r3, ror #8
  403ab8:	d1f8      	bne.n	403aac <strcpy+0x64>
  403aba:	f85d 4b04 	ldr.w	r4, [sp], #4
  403abe:	4770      	bx	lr
  403ac0:	f011 0f01 	tst.w	r1, #1
  403ac4:	d006      	beq.n	403ad4 <strcpy+0x8c>
  403ac6:	f811 2b01 	ldrb.w	r2, [r1], #1
  403aca:	f80c 2b01 	strb.w	r2, [ip], #1
  403ace:	2a00      	cmp	r2, #0
  403ad0:	bf08      	it	eq
  403ad2:	4770      	bxeq	lr
  403ad4:	f011 0f02 	tst.w	r1, #2
  403ad8:	d0bf      	beq.n	403a5a <strcpy+0x12>
  403ada:	f831 2b02 	ldrh.w	r2, [r1], #2
  403ade:	f012 0fff 	tst.w	r2, #255	; 0xff
  403ae2:	bf16      	itet	ne
  403ae4:	f82c 2b02 	strhne.w	r2, [ip], #2
  403ae8:	f88c 2000 	strbeq.w	r2, [ip]
  403aec:	f412 4f7f 	tstne.w	r2, #65280	; 0xff00
  403af0:	d1b3      	bne.n	403a5a <strcpy+0x12>
  403af2:	4770      	bx	lr
  403af4:	f811 2b01 	ldrb.w	r2, [r1], #1
  403af8:	f80c 2b01 	strb.w	r2, [ip], #1
  403afc:	2a00      	cmp	r2, #0
  403afe:	d1f9      	bne.n	403af4 <strcpy+0xac>
  403b00:	4770      	bx	lr
  403b02:	bf00      	nop
	...

00403b40 <strlen>:
  403b40:	f890 f000 	pld	[r0]
  403b44:	e96d 4502 	strd	r4, r5, [sp, #-8]!
  403b48:	f020 0107 	bic.w	r1, r0, #7
  403b4c:	f06f 0c00 	mvn.w	ip, #0
  403b50:	f010 0407 	ands.w	r4, r0, #7
  403b54:	f891 f020 	pld	[r1, #32]
  403b58:	f040 8049 	bne.w	403bee <strlen+0xae>
  403b5c:	f04f 0400 	mov.w	r4, #0
  403b60:	f06f 0007 	mvn.w	r0, #7
  403b64:	e9d1 2300 	ldrd	r2, r3, [r1]
  403b68:	f891 f040 	pld	[r1, #64]	; 0x40
  403b6c:	f100 0008 	add.w	r0, r0, #8
  403b70:	fa82 f24c 	uadd8	r2, r2, ip
  403b74:	faa4 f28c 	sel	r2, r4, ip
  403b78:	fa83 f34c 	uadd8	r3, r3, ip
  403b7c:	faa2 f38c 	sel	r3, r2, ip
  403b80:	bb4b      	cbnz	r3, 403bd6 <strlen+0x96>
  403b82:	e9d1 2302 	ldrd	r2, r3, [r1, #8]
  403b86:	fa82 f24c 	uadd8	r2, r2, ip
  403b8a:	f100 0008 	add.w	r0, r0, #8
  403b8e:	faa4 f28c 	sel	r2, r4, ip
  403b92:	fa83 f34c 	uadd8	r3, r3, ip
  403b96:	faa2 f38c 	sel	r3, r2, ip
  403b9a:	b9e3      	cbnz	r3, 403bd6 <strlen+0x96>
  403b9c:	e9d1 2304 	ldrd	r2, r3, [r1, #16]
  403ba0:	fa82 f24c 	uadd8	r2, r2, ip
  403ba4:	f100 0008 	add.w	r0, r0, #8
  403ba8:	faa4 f28c 	sel	r2, r4, ip
  403bac:	fa83 f34c 	uadd8	r3, r3, ip
  403bb0:	faa2 f38c 	sel	r3, r2, ip
  403bb4:	b97b      	cbnz	r3, 403bd6 <strlen+0x96>
  403bb6:	e9d1 2306 	ldrd	r2, r3, [r1, #24]
  403bba:	f101 0120 	add.w	r1, r1, #32
  403bbe:	fa82 f24c 	uadd8	r2, r2, ip
  403bc2:	f100 0008 	add.w	r0, r0, #8
  403bc6:	faa4 f28c 	sel	r2, r4, ip
  403bca:	fa83 f34c 	uadd8	r3, r3, ip
  403bce:	faa2 f38c 	sel	r3, r2, ip
  403bd2:	2b00      	cmp	r3, #0
  403bd4:	d0c6      	beq.n	403b64 <strlen+0x24>
  403bd6:	2a00      	cmp	r2, #0
  403bd8:	bf04      	itt	eq
  403bda:	3004      	addeq	r0, #4
  403bdc:	461a      	moveq	r2, r3
  403bde:	ba12      	rev	r2, r2
  403be0:	fab2 f282 	clz	r2, r2
  403be4:	e8fd 4502 	ldrd	r4, r5, [sp], #8
  403be8:	eb00 00d2 	add.w	r0, r0, r2, lsr #3
  403bec:	4770      	bx	lr
  403bee:	e9d1 2300 	ldrd	r2, r3, [r1]
  403bf2:	f004 0503 	and.w	r5, r4, #3
  403bf6:	f1c4 0000 	rsb	r0, r4, #0
  403bfa:	ea4f 05c5 	mov.w	r5, r5, lsl #3
  403bfe:	f014 0f04 	tst.w	r4, #4
  403c02:	f891 f040 	pld	[r1, #64]	; 0x40
  403c06:	fa0c f505 	lsl.w	r5, ip, r5
  403c0a:	ea62 0205 	orn	r2, r2, r5
  403c0e:	bf1c      	itt	ne
  403c10:	ea63 0305 	ornne	r3, r3, r5
  403c14:	4662      	movne	r2, ip
  403c16:	f04f 0400 	mov.w	r4, #0
  403c1a:	e7a9      	b.n	403b70 <strlen+0x30>

00403c1c <_svfprintf_r>:
  403c1c:	e92d 4ff0 	stmdb	sp!, {r4, r5, r6, r7, r8, r9, sl, fp, lr}
  403c20:	b0c1      	sub	sp, #260	; 0x104
  403c22:	460c      	mov	r4, r1
  403c24:	9109      	str	r1, [sp, #36]	; 0x24
  403c26:	4615      	mov	r5, r2
  403c28:	930e      	str	r3, [sp, #56]	; 0x38
  403c2a:	900a      	str	r0, [sp, #40]	; 0x28
  403c2c:	f003 ff88 	bl	407b40 <_localeconv_r>
  403c30:	6803      	ldr	r3, [r0, #0]
  403c32:	9317      	str	r3, [sp, #92]	; 0x5c
  403c34:	4618      	mov	r0, r3
  403c36:	f7ff ff83 	bl	403b40 <strlen>
  403c3a:	89a3      	ldrh	r3, [r4, #12]
  403c3c:	9016      	str	r0, [sp, #88]	; 0x58
  403c3e:	061e      	lsls	r6, r3, #24
  403c40:	d503      	bpl.n	403c4a <_svfprintf_r+0x2e>
  403c42:	6923      	ldr	r3, [r4, #16]
  403c44:	2b00      	cmp	r3, #0
  403c46:	f001 8119 	beq.w	404e7c <_svfprintf_r+0x1260>
  403c4a:	2300      	movs	r3, #0
  403c4c:	461a      	mov	r2, r3
  403c4e:	9312      	str	r3, [sp, #72]	; 0x48
  403c50:	9325      	str	r3, [sp, #148]	; 0x94
  403c52:	9324      	str	r3, [sp, #144]	; 0x90
  403c54:	9319      	str	r3, [sp, #100]	; 0x64
  403c56:	930b      	str	r3, [sp, #44]	; 0x2c
  403c58:	f8df a464 	ldr.w	sl, [pc, #1124]	; 4040c0 <_svfprintf_r+0x4a4>
  403c5c:	9214      	str	r2, [sp, #80]	; 0x50
  403c5e:	ab30      	add	r3, sp, #192	; 0xc0
  403c60:	9323      	str	r3, [sp, #140]	; 0x8c
  403c62:	4699      	mov	r9, r3
  403c64:	9215      	str	r2, [sp, #84]	; 0x54
  403c66:	46a8      	mov	r8, r5
  403c68:	f898 3000 	ldrb.w	r3, [r8]
  403c6c:	4644      	mov	r4, r8
  403c6e:	b1eb      	cbz	r3, 403cac <_svfprintf_r+0x90>
  403c70:	2b25      	cmp	r3, #37	; 0x25
  403c72:	d102      	bne.n	403c7a <_svfprintf_r+0x5e>
  403c74:	e01a      	b.n	403cac <_svfprintf_r+0x90>
  403c76:	2b25      	cmp	r3, #37	; 0x25
  403c78:	d003      	beq.n	403c82 <_svfprintf_r+0x66>
  403c7a:	f814 3f01 	ldrb.w	r3, [r4, #1]!
  403c7e:	2b00      	cmp	r3, #0
  403c80:	d1f9      	bne.n	403c76 <_svfprintf_r+0x5a>
  403c82:	ebc8 0504 	rsb	r5, r8, r4
  403c86:	b18d      	cbz	r5, 403cac <_svfprintf_r+0x90>
  403c88:	9b24      	ldr	r3, [sp, #144]	; 0x90
  403c8a:	9a25      	ldr	r2, [sp, #148]	; 0x94
  403c8c:	f8c9 8000 	str.w	r8, [r9]
  403c90:	3301      	adds	r3, #1
  403c92:	442a      	add	r2, r5
  403c94:	2b07      	cmp	r3, #7
  403c96:	f8c9 5004 	str.w	r5, [r9, #4]
  403c9a:	9225      	str	r2, [sp, #148]	; 0x94
  403c9c:	9324      	str	r3, [sp, #144]	; 0x90
  403c9e:	f300 80a6 	bgt.w	403dee <_svfprintf_r+0x1d2>
  403ca2:	f109 0908 	add.w	r9, r9, #8
  403ca6:	9b0b      	ldr	r3, [sp, #44]	; 0x2c
  403ca8:	442b      	add	r3, r5
  403caa:	930b      	str	r3, [sp, #44]	; 0x2c
  403cac:	7823      	ldrb	r3, [r4, #0]
  403cae:	2b00      	cmp	r3, #0
  403cb0:	f000 80a6 	beq.w	403e00 <_svfprintf_r+0x1e4>
  403cb4:	2300      	movs	r3, #0
  403cb6:	461a      	mov	r2, r3
  403cb8:	f88d 306f 	strb.w	r3, [sp, #111]	; 0x6f
  403cbc:	4619      	mov	r1, r3
  403cbe:	930c      	str	r3, [sp, #48]	; 0x30
  403cc0:	9307      	str	r3, [sp, #28]
  403cc2:	f04f 3bff 	mov.w	fp, #4294967295
  403cc6:	7863      	ldrb	r3, [r4, #1]
  403cc8:	f104 0801 	add.w	r8, r4, #1
  403ccc:	465d      	mov	r5, fp
  403cce:	f108 0801 	add.w	r8, r8, #1
  403cd2:	f1a3 0020 	sub.w	r0, r3, #32
  403cd6:	2858      	cmp	r0, #88	; 0x58
  403cd8:	f200 8425 	bhi.w	404526 <_svfprintf_r+0x90a>
  403cdc:	e8df f010 	tbh	[pc, r0, lsl #1]
  403ce0:	04230388 	.word	0x04230388
  403ce4:	03900423 	.word	0x03900423
  403ce8:	04230423 	.word	0x04230423
  403cec:	04230423 	.word	0x04230423
  403cf0:	04230423 	.word	0x04230423
  403cf4:	03a50397 	.word	0x03a50397
  403cf8:	005d0423 	.word	0x005d0423
  403cfc:	042300e2 	.word	0x042300e2
  403d00:	010500fe 	.word	0x010500fe
  403d04:	01050105 	.word	0x01050105
  403d08:	01050105 	.word	0x01050105
  403d0c:	01050105 	.word	0x01050105
  403d10:	01050105 	.word	0x01050105
  403d14:	04230423 	.word	0x04230423
  403d18:	04230423 	.word	0x04230423
  403d1c:	04230423 	.word	0x04230423
  403d20:	04230423 	.word	0x04230423
  403d24:	04230423 	.word	0x04230423
  403d28:	02810115 	.word	0x02810115
  403d2c:	02810423 	.word	0x02810423
  403d30:	04230423 	.word	0x04230423
  403d34:	04230423 	.word	0x04230423
  403d38:	042302c6 	.word	0x042302c6
  403d3c:	02cd0423 	.word	0x02cd0423
  403d40:	04230423 	.word	0x04230423
  403d44:	04230423 	.word	0x04230423
  403d48:	02f70423 	.word	0x02f70423
  403d4c:	04230423 	.word	0x04230423
  403d50:	04230325 	.word	0x04230325
  403d54:	04230423 	.word	0x04230423
  403d58:	04230423 	.word	0x04230423
  403d5c:	04230423 	.word	0x04230423
  403d60:	04230423 	.word	0x04230423
  403d64:	03660423 	.word	0x03660423
  403d68:	02810379 	.word	0x02810379
  403d6c:	02810281 	.word	0x02810281
  403d70:	03790381 	.word	0x03790381
  403d74:	04230423 	.word	0x04230423
  403d78:	042303d1 	.word	0x042303d1
  403d7c:	00a303db 	.word	0x00a303db
  403d80:	03ee0064 	.word	0x03ee0064
  403d84:	03f50423 	.word	0x03f50423
  403d88:	03aa0423 	.word	0x03aa0423
  403d8c:	04230423 	.word	0x04230423
  403d90:	03bc      	.short	0x03bc
  403d92:	980c      	ldr	r0, [sp, #48]	; 0x30
  403d94:	930e      	str	r3, [sp, #56]	; 0x38
  403d96:	4240      	negs	r0, r0
  403d98:	900c      	str	r0, [sp, #48]	; 0x30
  403d9a:	9b07      	ldr	r3, [sp, #28]
  403d9c:	f043 0304 	orr.w	r3, r3, #4
  403da0:	9307      	str	r3, [sp, #28]
  403da2:	f898 3000 	ldrb.w	r3, [r8]
  403da6:	e792      	b.n	403cce <_svfprintf_r+0xb2>
  403da8:	980e      	ldr	r0, [sp, #56]	; 0x38
  403daa:	46ab      	mov	fp, r5
  403dac:	2100      	movs	r1, #0
  403dae:	6804      	ldr	r4, [r0, #0]
  403db0:	f88d 106f 	strb.w	r1, [sp, #111]	; 0x6f
  403db4:	1d07      	adds	r7, r0, #4
  403db6:	9807      	ldr	r0, [sp, #28]
  403db8:	2330      	movs	r3, #48	; 0x30
  403dba:	2278      	movs	r2, #120	; 0x78
  403dbc:	458b      	cmp	fp, r1
  403dbe:	f88d 3070 	strb.w	r3, [sp, #112]	; 0x70
  403dc2:	f04f 0500 	mov.w	r5, #0
  403dc6:	f88d 2071 	strb.w	r2, [sp, #113]	; 0x71
  403dca:	f040 0302 	orr.w	r3, r0, #2
  403dce:	f2c0 83c7 	blt.w	404560 <_svfprintf_r+0x944>
  403dd2:	f020 0380 	bic.w	r3, r0, #128	; 0x80
  403dd6:	f043 0302 	orr.w	r3, r3, #2
  403dda:	9307      	str	r3, [sp, #28]
  403ddc:	ea54 0305 	orrs.w	r3, r4, r5
  403de0:	970e      	str	r7, [sp, #56]	; 0x38
  403de2:	f000 8393 	beq.w	40450c <_svfprintf_r+0x8f0>
  403de6:	460f      	mov	r7, r1
  403de8:	9211      	str	r2, [sp, #68]	; 0x44
  403dea:	48b3      	ldr	r0, [pc, #716]	; (4040b8 <_svfprintf_r+0x49c>)
  403dec:	e2ce      	b.n	40438c <_svfprintf_r+0x770>
  403dee:	aa23      	add	r2, sp, #140	; 0x8c
  403df0:	9909      	ldr	r1, [sp, #36]	; 0x24
  403df2:	980a      	ldr	r0, [sp, #40]	; 0x28
  403df4:	f004 fd12 	bl	40881c <__ssprint_r>
  403df8:	b948      	cbnz	r0, 403e0e <_svfprintf_r+0x1f2>
  403dfa:	f10d 09c0 	add.w	r9, sp, #192	; 0xc0
  403dfe:	e752      	b.n	403ca6 <_svfprintf_r+0x8a>
  403e00:	9b25      	ldr	r3, [sp, #148]	; 0x94
  403e02:	b123      	cbz	r3, 403e0e <_svfprintf_r+0x1f2>
  403e04:	980a      	ldr	r0, [sp, #40]	; 0x28
  403e06:	9909      	ldr	r1, [sp, #36]	; 0x24
  403e08:	aa23      	add	r2, sp, #140	; 0x8c
  403e0a:	f004 fd07 	bl	40881c <__ssprint_r>
  403e0e:	9b09      	ldr	r3, [sp, #36]	; 0x24
  403e10:	899b      	ldrh	r3, [r3, #12]
  403e12:	f013 0f40 	tst.w	r3, #64	; 0x40
  403e16:	9b0b      	ldr	r3, [sp, #44]	; 0x2c
  403e18:	bf18      	it	ne
  403e1a:	f04f 33ff 	movne.w	r3, #4294967295
  403e1e:	4618      	mov	r0, r3
  403e20:	b041      	add	sp, #260	; 0x104
  403e22:	e8bd 8ff0 	ldmia.w	sp!, {r4, r5, r6, r7, r8, r9, sl, fp, pc}
  403e26:	9311      	str	r3, [sp, #68]	; 0x44
  403e28:	46ab      	mov	fp, r5
  403e2a:	2a00      	cmp	r2, #0
  403e2c:	f041 8223 	bne.w	405276 <_svfprintf_r+0x165a>
  403e30:	9a07      	ldr	r2, [sp, #28]
  403e32:	f012 0320 	ands.w	r3, r2, #32
  403e36:	f000 822e 	beq.w	404296 <_svfprintf_r+0x67a>
  403e3a:	9f0e      	ldr	r7, [sp, #56]	; 0x38
  403e3c:	3707      	adds	r7, #7
  403e3e:	f027 0307 	bic.w	r3, r7, #7
  403e42:	2700      	movs	r7, #0
  403e44:	f103 0108 	add.w	r1, r3, #8
  403e48:	45bb      	cmp	fp, r7
  403e4a:	910e      	str	r1, [sp, #56]	; 0x38
  403e4c:	e9d3 4500 	ldrd	r4, r5, [r3]
  403e50:	f88d 706f 	strb.w	r7, [sp, #111]	; 0x6f
  403e54:	f2c0 8752 	blt.w	404cfc <_svfprintf_r+0x10e0>
  403e58:	f022 0380 	bic.w	r3, r2, #128	; 0x80
  403e5c:	9307      	str	r3, [sp, #28]
  403e5e:	ea54 0305 	orrs.w	r3, r4, r5
  403e62:	f000 8375 	beq.w	404550 <_svfprintf_r+0x934>
  403e66:	ae30      	add	r6, sp, #192	; 0xc0
  403e68:	08e2      	lsrs	r2, r4, #3
  403e6a:	ea42 7245 	orr.w	r2, r2, r5, lsl #29
  403e6e:	08e9      	lsrs	r1, r5, #3
  403e70:	f004 0307 	and.w	r3, r4, #7
  403e74:	460d      	mov	r5, r1
  403e76:	4614      	mov	r4, r2
  403e78:	3330      	adds	r3, #48	; 0x30
  403e7a:	ea54 0205 	orrs.w	r2, r4, r5
  403e7e:	f806 3d01 	strb.w	r3, [r6, #-1]!
  403e82:	d1f1      	bne.n	403e68 <_svfprintf_r+0x24c>
  403e84:	9a07      	ldr	r2, [sp, #28]
  403e86:	07d1      	lsls	r1, r2, #31
  403e88:	f140 8084 	bpl.w	403f94 <_svfprintf_r+0x378>
  403e8c:	2b30      	cmp	r3, #48	; 0x30
  403e8e:	f000 8081 	beq.w	403f94 <_svfprintf_r+0x378>
  403e92:	2230      	movs	r2, #48	; 0x30
  403e94:	1e73      	subs	r3, r6, #1
  403e96:	f806 2c01 	strb.w	r2, [r6, #-1]
  403e9a:	aa30      	add	r2, sp, #192	; 0xc0
  403e9c:	1ad2      	subs	r2, r2, r3
  403e9e:	920d      	str	r2, [sp, #52]	; 0x34
  403ea0:	461e      	mov	r6, r3
  403ea2:	e07a      	b.n	403f9a <_svfprintf_r+0x37e>
  403ea4:	f898 3000 	ldrb.w	r3, [r8]
  403ea8:	2b2a      	cmp	r3, #42	; 0x2a
  403eaa:	f108 0401 	add.w	r4, r8, #1
  403eae:	f001 81b1 	beq.w	405214 <_svfprintf_r+0x15f8>
  403eb2:	f1a3 0030 	sub.w	r0, r3, #48	; 0x30
  403eb6:	2809      	cmp	r0, #9
  403eb8:	bf98      	it	ls
  403eba:	2500      	movls	r5, #0
  403ebc:	f201 8164 	bhi.w	405188 <_svfprintf_r+0x156c>
  403ec0:	f814 3b01 	ldrb.w	r3, [r4], #1
  403ec4:	eb05 0585 	add.w	r5, r5, r5, lsl #2
  403ec8:	eb00 0545 	add.w	r5, r0, r5, lsl #1
  403ecc:	f1a3 0030 	sub.w	r0, r3, #48	; 0x30
  403ed0:	2809      	cmp	r0, #9
  403ed2:	d9f5      	bls.n	403ec0 <_svfprintf_r+0x2a4>
  403ed4:	ea45 75e5 	orr.w	r5, r5, r5, asr #31
  403ed8:	46a0      	mov	r8, r4
  403eda:	e6fa      	b.n	403cd2 <_svfprintf_r+0xb6>
  403edc:	9b07      	ldr	r3, [sp, #28]
  403ede:	f043 0380 	orr.w	r3, r3, #128	; 0x80
  403ee2:	9307      	str	r3, [sp, #28]
  403ee4:	f898 3000 	ldrb.w	r3, [r8]
  403ee8:	e6f1      	b.n	403cce <_svfprintf_r+0xb2>
  403eea:	f1a3 0030 	sub.w	r0, r3, #48	; 0x30
  403eee:	2300      	movs	r3, #0
  403ef0:	461c      	mov	r4, r3
  403ef2:	f818 3b01 	ldrb.w	r3, [r8], #1
  403ef6:	eb04 0484 	add.w	r4, r4, r4, lsl #2
  403efa:	eb00 0444 	add.w	r4, r0, r4, lsl #1
  403efe:	f1a3 0030 	sub.w	r0, r3, #48	; 0x30
  403f02:	2809      	cmp	r0, #9
  403f04:	d9f5      	bls.n	403ef2 <_svfprintf_r+0x2d6>
  403f06:	940c      	str	r4, [sp, #48]	; 0x30
  403f08:	e6e3      	b.n	403cd2 <_svfprintf_r+0xb6>
  403f0a:	9311      	str	r3, [sp, #68]	; 0x44
  403f0c:	46ab      	mov	fp, r5
  403f0e:	2a00      	cmp	r2, #0
  403f10:	f041 81c9 	bne.w	4052a6 <_svfprintf_r+0x168a>
  403f14:	9b07      	ldr	r3, [sp, #28]
  403f16:	f043 0310 	orr.w	r3, r3, #16
  403f1a:	9307      	str	r3, [sp, #28]
  403f1c:	9b07      	ldr	r3, [sp, #28]
  403f1e:	0698      	lsls	r0, r3, #26
  403f20:	f140 8530 	bpl.w	404984 <_svfprintf_r+0xd68>
  403f24:	9f0e      	ldr	r7, [sp, #56]	; 0x38
  403f26:	3707      	adds	r7, #7
  403f28:	f027 0707 	bic.w	r7, r7, #7
  403f2c:	e9d7 2300 	ldrd	r2, r3, [r7]
  403f30:	f107 0108 	add.w	r1, r7, #8
  403f34:	910e      	str	r1, [sp, #56]	; 0x38
  403f36:	4614      	mov	r4, r2
  403f38:	461d      	mov	r5, r3
  403f3a:	2a00      	cmp	r2, #0
  403f3c:	f173 0300 	sbcs.w	r3, r3, #0
  403f40:	f2c0 855b 	blt.w	4049fa <_svfprintf_r+0xdde>
  403f44:	f1bb 0f00 	cmp.w	fp, #0
  403f48:	f89d 706f 	ldrb.w	r7, [sp, #111]	; 0x6f
  403f4c:	f2c0 8538 	blt.w	4049c0 <_svfprintf_r+0xda4>
  403f50:	9b07      	ldr	r3, [sp, #28]
  403f52:	f023 0380 	bic.w	r3, r3, #128	; 0x80
  403f56:	9307      	str	r3, [sp, #28]
  403f58:	ea54 0305 	orrs.w	r3, r4, r5
  403f5c:	f000 81db 	beq.w	404316 <_svfprintf_r+0x6fa>
  403f60:	2d00      	cmp	r5, #0
  403f62:	bf08      	it	eq
  403f64:	2c0a      	cmpeq	r4, #10
  403f66:	f0c0 81db 	bcc.w	404320 <_svfprintf_r+0x704>
  403f6a:	ae30      	add	r6, sp, #192	; 0xc0
  403f6c:	4620      	mov	r0, r4
  403f6e:	4629      	mov	r1, r5
  403f70:	220a      	movs	r2, #10
  403f72:	2300      	movs	r3, #0
  403f74:	f005 fb2e 	bl	4095d4 <__aeabi_uldivmod>
  403f78:	3230      	adds	r2, #48	; 0x30
  403f7a:	f806 2d01 	strb.w	r2, [r6, #-1]!
  403f7e:	4620      	mov	r0, r4
  403f80:	4629      	mov	r1, r5
  403f82:	2300      	movs	r3, #0
  403f84:	220a      	movs	r2, #10
  403f86:	f005 fb25 	bl	4095d4 <__aeabi_uldivmod>
  403f8a:	4604      	mov	r4, r0
  403f8c:	460d      	mov	r5, r1
  403f8e:	ea54 0305 	orrs.w	r3, r4, r5
  403f92:	d1eb      	bne.n	403f6c <_svfprintf_r+0x350>
  403f94:	ab30      	add	r3, sp, #192	; 0xc0
  403f96:	1b9b      	subs	r3, r3, r6
  403f98:	930d      	str	r3, [sp, #52]	; 0x34
  403f9a:	9b0d      	ldr	r3, [sp, #52]	; 0x34
  403f9c:	455b      	cmp	r3, fp
  403f9e:	bfb8      	it	lt
  403fa0:	465b      	movlt	r3, fp
  403fa2:	9308      	str	r3, [sp, #32]
  403fa4:	2300      	movs	r3, #0
  403fa6:	9313      	str	r3, [sp, #76]	; 0x4c
  403fa8:	b117      	cbz	r7, 403fb0 <_svfprintf_r+0x394>
  403faa:	9b08      	ldr	r3, [sp, #32]
  403fac:	3301      	adds	r3, #1
  403fae:	9308      	str	r3, [sp, #32]
  403fb0:	9b07      	ldr	r3, [sp, #28]
  403fb2:	f013 0302 	ands.w	r3, r3, #2
  403fb6:	930f      	str	r3, [sp, #60]	; 0x3c
  403fb8:	d002      	beq.n	403fc0 <_svfprintf_r+0x3a4>
  403fba:	9b08      	ldr	r3, [sp, #32]
  403fbc:	3302      	adds	r3, #2
  403fbe:	9308      	str	r3, [sp, #32]
  403fc0:	9b07      	ldr	r3, [sp, #28]
  403fc2:	f013 0384 	ands.w	r3, r3, #132	; 0x84
  403fc6:	9310      	str	r3, [sp, #64]	; 0x40
  403fc8:	f040 82d7 	bne.w	40457a <_svfprintf_r+0x95e>
  403fcc:	9b0c      	ldr	r3, [sp, #48]	; 0x30
  403fce:	9a08      	ldr	r2, [sp, #32]
  403fd0:	1a9d      	subs	r5, r3, r2
  403fd2:	2d00      	cmp	r5, #0
  403fd4:	f340 82d1 	ble.w	40457a <_svfprintf_r+0x95e>
  403fd8:	2d10      	cmp	r5, #16
  403fda:	9925      	ldr	r1, [sp, #148]	; 0x94
  403fdc:	9a24      	ldr	r2, [sp, #144]	; 0x90
  403fde:	4f37      	ldr	r7, [pc, #220]	; (4040bc <_svfprintf_r+0x4a0>)
  403fe0:	dd27      	ble.n	404032 <_svfprintf_r+0x416>
  403fe2:	9618      	str	r6, [sp, #96]	; 0x60
  403fe4:	4648      	mov	r0, r9
  403fe6:	2410      	movs	r4, #16
  403fe8:	46b9      	mov	r9, r7
  403fea:	9e09      	ldr	r6, [sp, #36]	; 0x24
  403fec:	462f      	mov	r7, r5
  403fee:	9d0a      	ldr	r5, [sp, #40]	; 0x28
  403ff0:	e004      	b.n	403ffc <_svfprintf_r+0x3e0>
  403ff2:	3f10      	subs	r7, #16
  403ff4:	2f10      	cmp	r7, #16
  403ff6:	f100 0008 	add.w	r0, r0, #8
  403ffa:	dd16      	ble.n	40402a <_svfprintf_r+0x40e>
  403ffc:	3201      	adds	r2, #1
  403ffe:	4b2f      	ldr	r3, [pc, #188]	; (4040bc <_svfprintf_r+0x4a0>)
  404000:	9224      	str	r2, [sp, #144]	; 0x90
  404002:	3110      	adds	r1, #16
  404004:	2a07      	cmp	r2, #7
  404006:	9125      	str	r1, [sp, #148]	; 0x94
  404008:	e880 0018 	stmia.w	r0, {r3, r4}
  40400c:	ddf1      	ble.n	403ff2 <_svfprintf_r+0x3d6>
  40400e:	aa23      	add	r2, sp, #140	; 0x8c
  404010:	4631      	mov	r1, r6
  404012:	4628      	mov	r0, r5
  404014:	f004 fc02 	bl	40881c <__ssprint_r>
  404018:	2800      	cmp	r0, #0
  40401a:	f47f aef8 	bne.w	403e0e <_svfprintf_r+0x1f2>
  40401e:	3f10      	subs	r7, #16
  404020:	2f10      	cmp	r7, #16
  404022:	9925      	ldr	r1, [sp, #148]	; 0x94
  404024:	9a24      	ldr	r2, [sp, #144]	; 0x90
  404026:	a830      	add	r0, sp, #192	; 0xc0
  404028:	dce8      	bgt.n	403ffc <_svfprintf_r+0x3e0>
  40402a:	9e18      	ldr	r6, [sp, #96]	; 0x60
  40402c:	463d      	mov	r5, r7
  40402e:	464f      	mov	r7, r9
  404030:	4681      	mov	r9, r0
  404032:	3201      	adds	r2, #1
  404034:	186c      	adds	r4, r5, r1
  404036:	2a07      	cmp	r2, #7
  404038:	9425      	str	r4, [sp, #148]	; 0x94
  40403a:	9224      	str	r2, [sp, #144]	; 0x90
  40403c:	f8c9 7000 	str.w	r7, [r9]
  404040:	f8c9 5004 	str.w	r5, [r9, #4]
  404044:	f300 8428 	bgt.w	404898 <_svfprintf_r+0xc7c>
  404048:	f89d 706f 	ldrb.w	r7, [sp, #111]	; 0x6f
  40404c:	f109 0908 	add.w	r9, r9, #8
  404050:	b177      	cbz	r7, 404070 <_svfprintf_r+0x454>
  404052:	9b24      	ldr	r3, [sp, #144]	; 0x90
  404054:	3301      	adds	r3, #1
  404056:	3401      	adds	r4, #1
  404058:	f10d 016f 	add.w	r1, sp, #111	; 0x6f
  40405c:	2201      	movs	r2, #1
  40405e:	2b07      	cmp	r3, #7
  404060:	9425      	str	r4, [sp, #148]	; 0x94
  404062:	9324      	str	r3, [sp, #144]	; 0x90
  404064:	e889 0006 	stmia.w	r9, {r1, r2}
  404068:	f300 83a0 	bgt.w	4047ac <_svfprintf_r+0xb90>
  40406c:	f109 0908 	add.w	r9, r9, #8
  404070:	9b0f      	ldr	r3, [sp, #60]	; 0x3c
  404072:	b16b      	cbz	r3, 404090 <_svfprintf_r+0x474>
  404074:	9b24      	ldr	r3, [sp, #144]	; 0x90
  404076:	3301      	adds	r3, #1
  404078:	3402      	adds	r4, #2
  40407a:	a91c      	add	r1, sp, #112	; 0x70
  40407c:	2202      	movs	r2, #2
  40407e:	2b07      	cmp	r3, #7
  404080:	9425      	str	r4, [sp, #148]	; 0x94
  404082:	9324      	str	r3, [sp, #144]	; 0x90
  404084:	e889 0006 	stmia.w	r9, {r1, r2}
  404088:	f300 839c 	bgt.w	4047c4 <_svfprintf_r+0xba8>
  40408c:	f109 0908 	add.w	r9, r9, #8
  404090:	9b10      	ldr	r3, [sp, #64]	; 0x40
  404092:	2b80      	cmp	r3, #128	; 0x80
  404094:	f000 82d5 	beq.w	404642 <_svfprintf_r+0xa26>
  404098:	9b0d      	ldr	r3, [sp, #52]	; 0x34
  40409a:	ebc3 070b 	rsb	r7, r3, fp
  40409e:	2f00      	cmp	r7, #0
  4040a0:	dd39      	ble.n	404116 <_svfprintf_r+0x4fa>
  4040a2:	4a07      	ldr	r2, [pc, #28]	; (4040c0 <_svfprintf_r+0x4a4>)
  4040a4:	9b24      	ldr	r3, [sp, #144]	; 0x90
  4040a6:	920f      	str	r2, [sp, #60]	; 0x3c
  4040a8:	2f10      	cmp	r7, #16
  4040aa:	dd28      	ble.n	4040fe <_svfprintf_r+0x4e2>
  4040ac:	4622      	mov	r2, r4
  4040ae:	f04f 0b10 	mov.w	fp, #16
  4040b2:	9d0a      	ldr	r5, [sp, #40]	; 0x28
  4040b4:	9c09      	ldr	r4, [sp, #36]	; 0x24
  4040b6:	e00a      	b.n	4040ce <_svfprintf_r+0x4b2>
  4040b8:	00409a50 	.word	0x00409a50
  4040bc:	00409a70 	.word	0x00409a70
  4040c0:	00409a1c 	.word	0x00409a1c
  4040c4:	3f10      	subs	r7, #16
  4040c6:	2f10      	cmp	r7, #16
  4040c8:	f109 0908 	add.w	r9, r9, #8
  4040cc:	dd16      	ble.n	4040fc <_svfprintf_r+0x4e0>
  4040ce:	3301      	adds	r3, #1
  4040d0:	3210      	adds	r2, #16
  4040d2:	2b07      	cmp	r3, #7
  4040d4:	9225      	str	r2, [sp, #148]	; 0x94
  4040d6:	9324      	str	r3, [sp, #144]	; 0x90
  4040d8:	e889 0c00 	stmia.w	r9, {sl, fp}
  4040dc:	ddf2      	ble.n	4040c4 <_svfprintf_r+0x4a8>
  4040de:	aa23      	add	r2, sp, #140	; 0x8c
  4040e0:	4621      	mov	r1, r4
  4040e2:	4628      	mov	r0, r5
  4040e4:	f004 fb9a 	bl	40881c <__ssprint_r>
  4040e8:	2800      	cmp	r0, #0
  4040ea:	f47f ae90 	bne.w	403e0e <_svfprintf_r+0x1f2>
  4040ee:	3f10      	subs	r7, #16
  4040f0:	2f10      	cmp	r7, #16
  4040f2:	9a25      	ldr	r2, [sp, #148]	; 0x94
  4040f4:	9b24      	ldr	r3, [sp, #144]	; 0x90
  4040f6:	f10d 09c0 	add.w	r9, sp, #192	; 0xc0
  4040fa:	dce8      	bgt.n	4040ce <_svfprintf_r+0x4b2>
  4040fc:	4614      	mov	r4, r2
  4040fe:	3301      	adds	r3, #1
  404100:	9a0f      	ldr	r2, [sp, #60]	; 0x3c
  404102:	9324      	str	r3, [sp, #144]	; 0x90
  404104:	443c      	add	r4, r7
  404106:	2b07      	cmp	r3, #7
  404108:	9425      	str	r4, [sp, #148]	; 0x94
  40410a:	e889 0084 	stmia.w	r9, {r2, r7}
  40410e:	f300 8341 	bgt.w	404794 <_svfprintf_r+0xb78>
  404112:	f109 0908 	add.w	r9, r9, #8
  404116:	9b07      	ldr	r3, [sp, #28]
  404118:	05da      	lsls	r2, r3, #23
  40411a:	f100 8230 	bmi.w	40457e <_svfprintf_r+0x962>
  40411e:	9b24      	ldr	r3, [sp, #144]	; 0x90
  404120:	990d      	ldr	r1, [sp, #52]	; 0x34
  404122:	f8c9 6000 	str.w	r6, [r9]
  404126:	3301      	adds	r3, #1
  404128:	440c      	add	r4, r1
  40412a:	2b07      	cmp	r3, #7
  40412c:	9425      	str	r4, [sp, #148]	; 0x94
  40412e:	f8c9 1004 	str.w	r1, [r9, #4]
  404132:	9324      	str	r3, [sp, #144]	; 0x90
  404134:	f300 8318 	bgt.w	404768 <_svfprintf_r+0xb4c>
  404138:	f109 0908 	add.w	r9, r9, #8
  40413c:	9b07      	ldr	r3, [sp, #28]
  40413e:	0759      	lsls	r1, r3, #29
  404140:	d53f      	bpl.n	4041c2 <_svfprintf_r+0x5a6>
  404142:	9b0c      	ldr	r3, [sp, #48]	; 0x30
  404144:	9a08      	ldr	r2, [sp, #32]
  404146:	1a9d      	subs	r5, r3, r2
  404148:	2d00      	cmp	r5, #0
  40414a:	dd3a      	ble.n	4041c2 <_svfprintf_r+0x5a6>
  40414c:	2d10      	cmp	r5, #16
  40414e:	9b24      	ldr	r3, [sp, #144]	; 0x90
  404150:	4fbc      	ldr	r7, [pc, #752]	; (404444 <_svfprintf_r+0x828>)
  404152:	dd23      	ble.n	40419c <_svfprintf_r+0x580>
  404154:	4622      	mov	r2, r4
  404156:	2610      	movs	r6, #16
  404158:	f8dd b028 	ldr.w	fp, [sp, #40]	; 0x28
  40415c:	9c09      	ldr	r4, [sp, #36]	; 0x24
  40415e:	e004      	b.n	40416a <_svfprintf_r+0x54e>
  404160:	3d10      	subs	r5, #16
  404162:	2d10      	cmp	r5, #16
  404164:	f109 0908 	add.w	r9, r9, #8
  404168:	dd17      	ble.n	40419a <_svfprintf_r+0x57e>
  40416a:	3301      	adds	r3, #1
  40416c:	49b5      	ldr	r1, [pc, #724]	; (404444 <_svfprintf_r+0x828>)
  40416e:	9324      	str	r3, [sp, #144]	; 0x90
  404170:	3210      	adds	r2, #16
  404172:	2b07      	cmp	r3, #7
  404174:	9225      	str	r2, [sp, #148]	; 0x94
  404176:	e889 0042 	stmia.w	r9, {r1, r6}
  40417a:	ddf1      	ble.n	404160 <_svfprintf_r+0x544>
  40417c:	aa23      	add	r2, sp, #140	; 0x8c
  40417e:	4621      	mov	r1, r4
  404180:	4658      	mov	r0, fp
  404182:	f004 fb4b 	bl	40881c <__ssprint_r>
  404186:	2800      	cmp	r0, #0
  404188:	f47f ae41 	bne.w	403e0e <_svfprintf_r+0x1f2>
  40418c:	3d10      	subs	r5, #16
  40418e:	2d10      	cmp	r5, #16
  404190:	9a25      	ldr	r2, [sp, #148]	; 0x94
  404192:	9b24      	ldr	r3, [sp, #144]	; 0x90
  404194:	f10d 09c0 	add.w	r9, sp, #192	; 0xc0
  404198:	dce7      	bgt.n	40416a <_svfprintf_r+0x54e>
  40419a:	4614      	mov	r4, r2
  40419c:	3301      	adds	r3, #1
  40419e:	442c      	add	r4, r5
  4041a0:	2b07      	cmp	r3, #7
  4041a2:	9425      	str	r4, [sp, #148]	; 0x94
  4041a4:	9324      	str	r3, [sp, #144]	; 0x90
  4041a6:	f8c9 7000 	str.w	r7, [r9]
  4041aa:	f8c9 5004 	str.w	r5, [r9, #4]
  4041ae:	dd08      	ble.n	4041c2 <_svfprintf_r+0x5a6>
  4041b0:	aa23      	add	r2, sp, #140	; 0x8c
  4041b2:	9909      	ldr	r1, [sp, #36]	; 0x24
  4041b4:	980a      	ldr	r0, [sp, #40]	; 0x28
  4041b6:	f004 fb31 	bl	40881c <__ssprint_r>
  4041ba:	2800      	cmp	r0, #0
  4041bc:	f47f ae27 	bne.w	403e0e <_svfprintf_r+0x1f2>
  4041c0:	9c25      	ldr	r4, [sp, #148]	; 0x94
  4041c2:	9b0b      	ldr	r3, [sp, #44]	; 0x2c
  4041c4:	9a0c      	ldr	r2, [sp, #48]	; 0x30
  4041c6:	9908      	ldr	r1, [sp, #32]
  4041c8:	428a      	cmp	r2, r1
  4041ca:	bfac      	ite	ge
  4041cc:	189b      	addge	r3, r3, r2
  4041ce:	185b      	addlt	r3, r3, r1
  4041d0:	930b      	str	r3, [sp, #44]	; 0x2c
  4041d2:	2c00      	cmp	r4, #0
  4041d4:	f040 82d4 	bne.w	404780 <_svfprintf_r+0xb64>
  4041d8:	2300      	movs	r3, #0
  4041da:	9324      	str	r3, [sp, #144]	; 0x90
  4041dc:	f10d 09c0 	add.w	r9, sp, #192	; 0xc0
  4041e0:	e542      	b.n	403c68 <_svfprintf_r+0x4c>
  4041e2:	9311      	str	r3, [sp, #68]	; 0x44
  4041e4:	46ab      	mov	fp, r5
  4041e6:	2a00      	cmp	r2, #0
  4041e8:	f041 8059 	bne.w	40529e <_svfprintf_r+0x1682>
  4041ec:	9f0e      	ldr	r7, [sp, #56]	; 0x38
  4041ee:	3707      	adds	r7, #7
  4041f0:	f027 0307 	bic.w	r3, r7, #7
  4041f4:	f103 0208 	add.w	r2, r3, #8
  4041f8:	920e      	str	r2, [sp, #56]	; 0x38
  4041fa:	681a      	ldr	r2, [r3, #0]
  4041fc:	9214      	str	r2, [sp, #80]	; 0x50
  4041fe:	685b      	ldr	r3, [r3, #4]
  404200:	9315      	str	r3, [sp, #84]	; 0x54
  404202:	9b15      	ldr	r3, [sp, #84]	; 0x54
  404204:	9d14      	ldr	r5, [sp, #80]	; 0x50
  404206:	f023 4400 	bic.w	r4, r3, #2147483648	; 0x80000000
  40420a:	4628      	mov	r0, r5
  40420c:	4621      	mov	r1, r4
  40420e:	f04f 32ff 	mov.w	r2, #4294967295
  404212:	4b8d      	ldr	r3, [pc, #564]	; (404448 <_svfprintf_r+0x82c>)
  404214:	f005 f9a0 	bl	409558 <__aeabi_dcmpun>
  404218:	2800      	cmp	r0, #0
  40421a:	f040 84c1 	bne.w	404ba0 <_svfprintf_r+0xf84>
  40421e:	4628      	mov	r0, r5
  404220:	4621      	mov	r1, r4
  404222:	f04f 32ff 	mov.w	r2, #4294967295
  404226:	4b88      	ldr	r3, [pc, #544]	; (404448 <_svfprintf_r+0x82c>)
  404228:	f005 f978 	bl	40951c <__aeabi_dcmple>
  40422c:	2800      	cmp	r0, #0
  40422e:	f040 84b7 	bne.w	404ba0 <_svfprintf_r+0xf84>
  404232:	9814      	ldr	r0, [sp, #80]	; 0x50
  404234:	9915      	ldr	r1, [sp, #84]	; 0x54
  404236:	2200      	movs	r2, #0
  404238:	2300      	movs	r3, #0
  40423a:	f005 f965 	bl	409508 <__aeabi_dcmplt>
  40423e:	2800      	cmp	r0, #0
  404240:	f040 874b 	bne.w	4050da <_svfprintf_r+0x14be>
  404244:	f89d 706f 	ldrb.w	r7, [sp, #111]	; 0x6f
  404248:	4e80      	ldr	r6, [pc, #512]	; (40444c <_svfprintf_r+0x830>)
  40424a:	4b81      	ldr	r3, [pc, #516]	; (404450 <_svfprintf_r+0x834>)
  40424c:	9907      	ldr	r1, [sp, #28]
  40424e:	f021 0180 	bic.w	r1, r1, #128	; 0x80
  404252:	9107      	str	r1, [sp, #28]
  404254:	9911      	ldr	r1, [sp, #68]	; 0x44
  404256:	2203      	movs	r2, #3
  404258:	f04f 0b00 	mov.w	fp, #0
  40425c:	9208      	str	r2, [sp, #32]
  40425e:	2947      	cmp	r1, #71	; 0x47
  404260:	bfd8      	it	le
  404262:	461e      	movle	r6, r3
  404264:	920d      	str	r2, [sp, #52]	; 0x34
  404266:	f8cd b04c 	str.w	fp, [sp, #76]	; 0x4c
  40426a:	e69d      	b.n	403fa8 <_svfprintf_r+0x38c>
  40426c:	9b07      	ldr	r3, [sp, #28]
  40426e:	f043 0308 	orr.w	r3, r3, #8
  404272:	9307      	str	r3, [sp, #28]
  404274:	f898 3000 	ldrb.w	r3, [r8]
  404278:	e529      	b.n	403cce <_svfprintf_r+0xb2>
  40427a:	9311      	str	r3, [sp, #68]	; 0x44
  40427c:	46ab      	mov	fp, r5
  40427e:	2a00      	cmp	r2, #0
  404280:	f041 8009 	bne.w	405296 <_svfprintf_r+0x167a>
  404284:	9b07      	ldr	r3, [sp, #28]
  404286:	f043 0310 	orr.w	r3, r3, #16
  40428a:	9307      	str	r3, [sp, #28]
  40428c:	9a07      	ldr	r2, [sp, #28]
  40428e:	f012 0320 	ands.w	r3, r2, #32
  404292:	f47f add2 	bne.w	403e3a <_svfprintf_r+0x21e>
  404296:	9907      	ldr	r1, [sp, #28]
  404298:	f011 0210 	ands.w	r2, r1, #16
  40429c:	f000 8507 	beq.w	404cae <_svfprintf_r+0x1092>
  4042a0:	980e      	ldr	r0, [sp, #56]	; 0x38
  4042a2:	f88d 306f 	strb.w	r3, [sp, #111]	; 0x6f
  4042a6:	f1bb 0f00 	cmp.w	fp, #0
  4042aa:	6804      	ldr	r4, [r0, #0]
  4042ac:	f100 0704 	add.w	r7, r0, #4
  4042b0:	f04f 0500 	mov.w	r5, #0
  4042b4:	f2c0 8521 	blt.w	404cfa <_svfprintf_r+0x10de>
  4042b8:	460a      	mov	r2, r1
  4042ba:	f022 0280 	bic.w	r2, r2, #128	; 0x80
  4042be:	9207      	str	r2, [sp, #28]
  4042c0:	ea54 0205 	orrs.w	r2, r4, r5
  4042c4:	970e      	str	r7, [sp, #56]	; 0x38
  4042c6:	f000 8143 	beq.w	404550 <_svfprintf_r+0x934>
  4042ca:	461f      	mov	r7, r3
  4042cc:	e5cb      	b.n	403e66 <_svfprintf_r+0x24a>
  4042ce:	9311      	str	r3, [sp, #68]	; 0x44
  4042d0:	46ab      	mov	fp, r5
  4042d2:	2a00      	cmp	r2, #0
  4042d4:	f040 87d7 	bne.w	405286 <_svfprintf_r+0x166a>
  4042d8:	9b07      	ldr	r3, [sp, #28]
  4042da:	f043 0310 	orr.w	r3, r3, #16
  4042de:	9307      	str	r3, [sp, #28]
  4042e0:	9a07      	ldr	r2, [sp, #28]
  4042e2:	f012 0320 	ands.w	r3, r2, #32
  4042e6:	f000 8332 	beq.w	40494e <_svfprintf_r+0xd32>
  4042ea:	9f0e      	ldr	r7, [sp, #56]	; 0x38
  4042ec:	3707      	adds	r7, #7
  4042ee:	f027 0307 	bic.w	r3, r7, #7
  4042f2:	2700      	movs	r7, #0
  4042f4:	f103 0108 	add.w	r1, r3, #8
  4042f8:	45bb      	cmp	fp, r7
  4042fa:	910e      	str	r1, [sp, #56]	; 0x38
  4042fc:	e9d3 4500 	ldrd	r4, r5, [r3]
  404300:	f88d 706f 	strb.w	r7, [sp, #111]	; 0x6f
  404304:	f2c0 835c 	blt.w	4049c0 <_svfprintf_r+0xda4>
  404308:	f022 0380 	bic.w	r3, r2, #128	; 0x80
  40430c:	9307      	str	r3, [sp, #28]
  40430e:	ea54 0305 	orrs.w	r3, r4, r5
  404312:	f47f ae25 	bne.w	403f60 <_svfprintf_r+0x344>
  404316:	f1bb 0f00 	cmp.w	fp, #0
  40431a:	f000 80fe 	beq.w	40451a <_svfprintf_r+0x8fe>
  40431e:	2400      	movs	r4, #0
  404320:	ae40      	add	r6, sp, #256	; 0x100
  404322:	3430      	adds	r4, #48	; 0x30
  404324:	f806 4d41 	strb.w	r4, [r6, #-65]!
  404328:	e634      	b.n	403f94 <_svfprintf_r+0x378>
  40432a:	9311      	str	r3, [sp, #68]	; 0x44
  40432c:	46ab      	mov	fp, r5
  40432e:	2a00      	cmp	r2, #0
  404330:	f040 87a5 	bne.w	40527e <_svfprintf_r+0x1662>
  404334:	9b07      	ldr	r3, [sp, #28]
  404336:	4847      	ldr	r0, [pc, #284]	; (404454 <_svfprintf_r+0x838>)
  404338:	069d      	lsls	r5, r3, #26
  40433a:	f140 8097 	bpl.w	40446c <_svfprintf_r+0x850>
  40433e:	9f0e      	ldr	r7, [sp, #56]	; 0x38
  404340:	3707      	adds	r7, #7
  404342:	f027 0307 	bic.w	r3, r7, #7
  404346:	e9d3 4500 	ldrd	r4, r5, [r3]
  40434a:	f103 0208 	add.w	r2, r3, #8
  40434e:	920e      	str	r2, [sp, #56]	; 0x38
  404350:	9a07      	ldr	r2, [sp, #28]
  404352:	f012 0701 	ands.w	r7, r2, #1
  404356:	f000 8241 	beq.w	4047dc <_svfprintf_r+0xbc0>
  40435a:	ea54 0305 	orrs.w	r3, r4, r5
  40435e:	f000 84f5 	beq.w	404d4c <_svfprintf_r+0x1130>
  404362:	f89d 2044 	ldrb.w	r2, [sp, #68]	; 0x44
  404366:	f88d 2071 	strb.w	r2, [sp, #113]	; 0x71
  40436a:	2700      	movs	r7, #0
  40436c:	9a07      	ldr	r2, [sp, #28]
  40436e:	f88d 706f 	strb.w	r7, [sp, #111]	; 0x6f
  404372:	2330      	movs	r3, #48	; 0x30
  404374:	45bb      	cmp	fp, r7
  404376:	f88d 3070 	strb.w	r3, [sp, #112]	; 0x70
  40437a:	f042 0302 	orr.w	r3, r2, #2
  40437e:	f2c0 86a9 	blt.w	4050d4 <_svfprintf_r+0x14b8>
  404382:	f022 0380 	bic.w	r3, r2, #128	; 0x80
  404386:	f043 0302 	orr.w	r3, r3, #2
  40438a:	9307      	str	r3, [sp, #28]
  40438c:	ae30      	add	r6, sp, #192	; 0xc0
  40438e:	0923      	lsrs	r3, r4, #4
  404390:	f004 010f 	and.w	r1, r4, #15
  404394:	ea43 7305 	orr.w	r3, r3, r5, lsl #28
  404398:	092a      	lsrs	r2, r5, #4
  40439a:	461c      	mov	r4, r3
  40439c:	4615      	mov	r5, r2
  40439e:	5c43      	ldrb	r3, [r0, r1]
  4043a0:	f806 3d01 	strb.w	r3, [r6, #-1]!
  4043a4:	ea54 0305 	orrs.w	r3, r4, r5
  4043a8:	d1f1      	bne.n	40438e <_svfprintf_r+0x772>
  4043aa:	e5f3      	b.n	403f94 <_svfprintf_r+0x378>
  4043ac:	990e      	ldr	r1, [sp, #56]	; 0x38
  4043ae:	9311      	str	r3, [sp, #68]	; 0x44
  4043b0:	680a      	ldr	r2, [r1, #0]
  4043b2:	f88d 2098 	strb.w	r2, [sp, #152]	; 0x98
  4043b6:	2300      	movs	r3, #0
  4043b8:	460a      	mov	r2, r1
  4043ba:	461f      	mov	r7, r3
  4043bc:	f88d 306f 	strb.w	r3, [sp, #111]	; 0x6f
  4043c0:	3204      	adds	r2, #4
  4043c2:	2301      	movs	r3, #1
  4043c4:	9308      	str	r3, [sp, #32]
  4043c6:	46bb      	mov	fp, r7
  4043c8:	9713      	str	r7, [sp, #76]	; 0x4c
  4043ca:	920e      	str	r2, [sp, #56]	; 0x38
  4043cc:	930d      	str	r3, [sp, #52]	; 0x34
  4043ce:	ae26      	add	r6, sp, #152	; 0x98
  4043d0:	e5ee      	b.n	403fb0 <_svfprintf_r+0x394>
  4043d2:	9311      	str	r3, [sp, #68]	; 0x44
  4043d4:	46ab      	mov	fp, r5
  4043d6:	2a00      	cmp	r2, #0
  4043d8:	f43f ada0 	beq.w	403f1c <_svfprintf_r+0x300>
  4043dc:	f88d 106f 	strb.w	r1, [sp, #111]	; 0x6f
  4043e0:	e59c      	b.n	403f1c <_svfprintf_r+0x300>
  4043e2:	9b07      	ldr	r3, [sp, #28]
  4043e4:	f043 0340 	orr.w	r3, r3, #64	; 0x40
  4043e8:	9307      	str	r3, [sp, #28]
  4043ea:	f898 3000 	ldrb.w	r3, [r8]
  4043ee:	e46e      	b.n	403cce <_svfprintf_r+0xb2>
  4043f0:	f898 3000 	ldrb.w	r3, [r8]
  4043f4:	2900      	cmp	r1, #0
  4043f6:	f47f ac6a 	bne.w	403cce <_svfprintf_r+0xb2>
  4043fa:	2201      	movs	r2, #1
  4043fc:	2120      	movs	r1, #32
  4043fe:	e466      	b.n	403cce <_svfprintf_r+0xb2>
  404400:	9b07      	ldr	r3, [sp, #28]
  404402:	f043 0301 	orr.w	r3, r3, #1
  404406:	9307      	str	r3, [sp, #28]
  404408:	f898 3000 	ldrb.w	r3, [r8]
  40440c:	e45f      	b.n	403cce <_svfprintf_r+0xb2>
  40440e:	9c0e      	ldr	r4, [sp, #56]	; 0x38
  404410:	6823      	ldr	r3, [r4, #0]
  404412:	930c      	str	r3, [sp, #48]	; 0x30
  404414:	4618      	mov	r0, r3
  404416:	2800      	cmp	r0, #0
  404418:	4623      	mov	r3, r4
  40441a:	f103 0304 	add.w	r3, r3, #4
  40441e:	f6ff acb8 	blt.w	403d92 <_svfprintf_r+0x176>
  404422:	930e      	str	r3, [sp, #56]	; 0x38
  404424:	f898 3000 	ldrb.w	r3, [r8]
  404428:	e451      	b.n	403cce <_svfprintf_r+0xb2>
  40442a:	f898 3000 	ldrb.w	r3, [r8]
  40442e:	2201      	movs	r2, #1
  404430:	212b      	movs	r1, #43	; 0x2b
  404432:	e44c      	b.n	403cce <_svfprintf_r+0xb2>
  404434:	9311      	str	r3, [sp, #68]	; 0x44
  404436:	46ab      	mov	fp, r5
  404438:	2a00      	cmp	r2, #0
  40443a:	f43f af51 	beq.w	4042e0 <_svfprintf_r+0x6c4>
  40443e:	f88d 106f 	strb.w	r1, [sp, #111]	; 0x6f
  404442:	e74d      	b.n	4042e0 <_svfprintf_r+0x6c4>
  404444:	00409a70 	.word	0x00409a70
  404448:	7fefffff 	.word	0x7fefffff
  40444c:	00409a30 	.word	0x00409a30
  404450:	00409a2c 	.word	0x00409a2c
  404454:	00409a3c 	.word	0x00409a3c
  404458:	9311      	str	r3, [sp, #68]	; 0x44
  40445a:	46ab      	mov	fp, r5
  40445c:	2a00      	cmp	r2, #0
  40445e:	f040 8703 	bne.w	405268 <_svfprintf_r+0x164c>
  404462:	9b07      	ldr	r3, [sp, #28]
  404464:	4899      	ldr	r0, [pc, #612]	; (4046cc <_svfprintf_r+0xab0>)
  404466:	069d      	lsls	r5, r3, #26
  404468:	f53f af69 	bmi.w	40433e <_svfprintf_r+0x722>
  40446c:	9b07      	ldr	r3, [sp, #28]
  40446e:	06dc      	lsls	r4, r3, #27
  404470:	f140 845e 	bpl.w	404d30 <_svfprintf_r+0x1114>
  404474:	9a0e      	ldr	r2, [sp, #56]	; 0x38
  404476:	4613      	mov	r3, r2
  404478:	3304      	adds	r3, #4
  40447a:	6814      	ldr	r4, [r2, #0]
  40447c:	930e      	str	r3, [sp, #56]	; 0x38
  40447e:	2500      	movs	r5, #0
  404480:	e766      	b.n	404350 <_svfprintf_r+0x734>
  404482:	f898 3000 	ldrb.w	r3, [r8]
  404486:	2b6c      	cmp	r3, #108	; 0x6c
  404488:	f000 84e1 	beq.w	404e4e <_svfprintf_r+0x1232>
  40448c:	9807      	ldr	r0, [sp, #28]
  40448e:	f040 0010 	orr.w	r0, r0, #16
  404492:	9007      	str	r0, [sp, #28]
  404494:	e41b      	b.n	403cce <_svfprintf_r+0xb2>
  404496:	2a00      	cmp	r2, #0
  404498:	f040 86db 	bne.w	405252 <_svfprintf_r+0x1636>
  40449c:	9b07      	ldr	r3, [sp, #28]
  40449e:	069b      	lsls	r3, r3, #26
  4044a0:	f140 842f 	bpl.w	404d02 <_svfprintf_r+0x10e6>
  4044a4:	9a0e      	ldr	r2, [sp, #56]	; 0x38
  4044a6:	990b      	ldr	r1, [sp, #44]	; 0x2c
  4044a8:	6813      	ldr	r3, [r2, #0]
  4044aa:	17cd      	asrs	r5, r1, #31
  4044ac:	4608      	mov	r0, r1
  4044ae:	3204      	adds	r2, #4
  4044b0:	4629      	mov	r1, r5
  4044b2:	920e      	str	r2, [sp, #56]	; 0x38
  4044b4:	e9c3 0100 	strd	r0, r1, [r3]
  4044b8:	f7ff bbd6 	b.w	403c68 <_svfprintf_r+0x4c>
  4044bc:	9b07      	ldr	r3, [sp, #28]
  4044be:	f043 0320 	orr.w	r3, r3, #32
  4044c2:	9307      	str	r3, [sp, #28]
  4044c4:	f898 3000 	ldrb.w	r3, [r8]
  4044c8:	e401      	b.n	403cce <_svfprintf_r+0xb2>
  4044ca:	9a0e      	ldr	r2, [sp, #56]	; 0x38
  4044cc:	9311      	str	r3, [sp, #68]	; 0x44
  4044ce:	6816      	ldr	r6, [r2, #0]
  4044d0:	2400      	movs	r4, #0
  4044d2:	f88d 406f 	strb.w	r4, [sp, #111]	; 0x6f
  4044d6:	1d17      	adds	r7, r2, #4
  4044d8:	2e00      	cmp	r6, #0
  4044da:	f000 85bd 	beq.w	405058 <_svfprintf_r+0x143c>
  4044de:	2d00      	cmp	r5, #0
  4044e0:	f2c0 850f 	blt.w	404f02 <_svfprintf_r+0x12e6>
  4044e4:	462a      	mov	r2, r5
  4044e6:	4621      	mov	r1, r4
  4044e8:	4630      	mov	r0, r6
  4044ea:	f003 fba1 	bl	407c30 <memchr>
  4044ee:	2800      	cmp	r0, #0
  4044f0:	f000 8604 	beq.w	4050fc <_svfprintf_r+0x14e0>
  4044f4:	1b83      	subs	r3, r0, r6
  4044f6:	930d      	str	r3, [sp, #52]	; 0x34
  4044f8:	46a3      	mov	fp, r4
  4044fa:	ea23 73e3 	bic.w	r3, r3, r3, asr #31
  4044fe:	970e      	str	r7, [sp, #56]	; 0x38
  404500:	9308      	str	r3, [sp, #32]
  404502:	f8cd b04c 	str.w	fp, [sp, #76]	; 0x4c
  404506:	f89d 706f 	ldrb.w	r7, [sp, #111]	; 0x6f
  40450a:	e54d      	b.n	403fa8 <_svfprintf_r+0x38c>
  40450c:	486f      	ldr	r0, [pc, #444]	; (4046cc <_svfprintf_r+0xab0>)
  40450e:	9211      	str	r2, [sp, #68]	; 0x44
  404510:	f1bb 0f00 	cmp.w	fp, #0
  404514:	f040 8173 	bne.w	4047fe <_svfprintf_r+0xbe2>
  404518:	465f      	mov	r7, fp
  40451a:	f04f 0b00 	mov.w	fp, #0
  40451e:	f8cd b034 	str.w	fp, [sp, #52]	; 0x34
  404522:	ae30      	add	r6, sp, #192	; 0xc0
  404524:	e539      	b.n	403f9a <_svfprintf_r+0x37e>
  404526:	9311      	str	r3, [sp, #68]	; 0x44
  404528:	2a00      	cmp	r2, #0
  40452a:	f040 86b0 	bne.w	40528e <_svfprintf_r+0x1672>
  40452e:	9a11      	ldr	r2, [sp, #68]	; 0x44
  404530:	2a00      	cmp	r2, #0
  404532:	f43f ac65 	beq.w	403e00 <_svfprintf_r+0x1e4>
  404536:	2300      	movs	r3, #0
  404538:	2101      	movs	r1, #1
  40453a:	461f      	mov	r7, r3
  40453c:	9108      	str	r1, [sp, #32]
  40453e:	f88d 2098 	strb.w	r2, [sp, #152]	; 0x98
  404542:	f88d 306f 	strb.w	r3, [sp, #111]	; 0x6f
  404546:	469b      	mov	fp, r3
  404548:	9313      	str	r3, [sp, #76]	; 0x4c
  40454a:	910d      	str	r1, [sp, #52]	; 0x34
  40454c:	ae26      	add	r6, sp, #152	; 0x98
  40454e:	e52f      	b.n	403fb0 <_svfprintf_r+0x394>
  404550:	f1bb 0f00 	cmp.w	fp, #0
  404554:	f000 85dd 	beq.w	405112 <_svfprintf_r+0x14f6>
  404558:	2700      	movs	r7, #0
  40455a:	2400      	movs	r4, #0
  40455c:	2500      	movs	r5, #0
  40455e:	e482      	b.n	403e66 <_svfprintf_r+0x24a>
  404560:	485a      	ldr	r0, [pc, #360]	; (4046cc <_svfprintf_r+0xab0>)
  404562:	9307      	str	r3, [sp, #28]
  404564:	9211      	str	r2, [sp, #68]	; 0x44
  404566:	ea54 0305 	orrs.w	r3, r4, r5
  40456a:	970e      	str	r7, [sp, #56]	; 0x38
  40456c:	f04f 0700 	mov.w	r7, #0
  404570:	f47f af0c 	bne.w	40438c <_svfprintf_r+0x770>
  404574:	2400      	movs	r4, #0
  404576:	2500      	movs	r5, #0
  404578:	e708      	b.n	40438c <_svfprintf_r+0x770>
  40457a:	9c25      	ldr	r4, [sp, #148]	; 0x94
  40457c:	e568      	b.n	404050 <_svfprintf_r+0x434>
  40457e:	9b11      	ldr	r3, [sp, #68]	; 0x44
  404580:	2b65      	cmp	r3, #101	; 0x65
  404582:	f340 80a9 	ble.w	4046d8 <_svfprintf_r+0xabc>
  404586:	9814      	ldr	r0, [sp, #80]	; 0x50
  404588:	9915      	ldr	r1, [sp, #84]	; 0x54
  40458a:	2200      	movs	r2, #0
  40458c:	2300      	movs	r3, #0
  40458e:	f004 ffb1 	bl	4094f4 <__aeabi_dcmpeq>
  404592:	2800      	cmp	r0, #0
  404594:	f000 8135 	beq.w	404802 <_svfprintf_r+0xbe6>
  404598:	9b24      	ldr	r3, [sp, #144]	; 0x90
  40459a:	4a4d      	ldr	r2, [pc, #308]	; (4046d0 <_svfprintf_r+0xab4>)
  40459c:	f8c9 2000 	str.w	r2, [r9]
  4045a0:	3301      	adds	r3, #1
  4045a2:	3401      	adds	r4, #1
  4045a4:	2201      	movs	r2, #1
  4045a6:	2b07      	cmp	r3, #7
  4045a8:	9425      	str	r4, [sp, #148]	; 0x94
  4045aa:	9324      	str	r3, [sp, #144]	; 0x90
  4045ac:	f8c9 2004 	str.w	r2, [r9, #4]
  4045b0:	f300 83e6 	bgt.w	404d80 <_svfprintf_r+0x1164>
  4045b4:	f109 0908 	add.w	r9, r9, #8
  4045b8:	9b1d      	ldr	r3, [sp, #116]	; 0x74
  4045ba:	9a12      	ldr	r2, [sp, #72]	; 0x48
  4045bc:	4293      	cmp	r3, r2
  4045be:	db03      	blt.n	4045c8 <_svfprintf_r+0x9ac>
  4045c0:	9b07      	ldr	r3, [sp, #28]
  4045c2:	07db      	lsls	r3, r3, #31
  4045c4:	f57f adba 	bpl.w	40413c <_svfprintf_r+0x520>
  4045c8:	9b24      	ldr	r3, [sp, #144]	; 0x90
  4045ca:	9916      	ldr	r1, [sp, #88]	; 0x58
  4045cc:	9a17      	ldr	r2, [sp, #92]	; 0x5c
  4045ce:	f8c9 2000 	str.w	r2, [r9]
  4045d2:	3301      	adds	r3, #1
  4045d4:	440c      	add	r4, r1
  4045d6:	2b07      	cmp	r3, #7
  4045d8:	9425      	str	r4, [sp, #148]	; 0x94
  4045da:	f8c9 1004 	str.w	r1, [r9, #4]
  4045de:	9324      	str	r3, [sp, #144]	; 0x90
  4045e0:	f300 843f 	bgt.w	404e62 <_svfprintf_r+0x1246>
  4045e4:	f109 0908 	add.w	r9, r9, #8
  4045e8:	9b12      	ldr	r3, [sp, #72]	; 0x48
  4045ea:	1e5d      	subs	r5, r3, #1
  4045ec:	2d00      	cmp	r5, #0
  4045ee:	f77f ada5 	ble.w	40413c <_svfprintf_r+0x520>
  4045f2:	4a38      	ldr	r2, [pc, #224]	; (4046d4 <_svfprintf_r+0xab8>)
  4045f4:	9b24      	ldr	r3, [sp, #144]	; 0x90
  4045f6:	920f      	str	r2, [sp, #60]	; 0x3c
  4045f8:	2d10      	cmp	r5, #16
  4045fa:	f340 81e6 	ble.w	4049ca <_svfprintf_r+0xdae>
  4045fe:	2610      	movs	r6, #16
  404600:	9f0a      	ldr	r7, [sp, #40]	; 0x28
  404602:	f8dd b024 	ldr.w	fp, [sp, #36]	; 0x24
  404606:	e005      	b.n	404614 <_svfprintf_r+0x9f8>
  404608:	f109 0908 	add.w	r9, r9, #8
  40460c:	3d10      	subs	r5, #16
  40460e:	2d10      	cmp	r5, #16
  404610:	f340 81db 	ble.w	4049ca <_svfprintf_r+0xdae>
  404614:	3301      	adds	r3, #1
  404616:	3410      	adds	r4, #16
  404618:	2b07      	cmp	r3, #7
  40461a:	9425      	str	r4, [sp, #148]	; 0x94
  40461c:	9324      	str	r3, [sp, #144]	; 0x90
  40461e:	f8c9 a000 	str.w	sl, [r9]
  404622:	f8c9 6004 	str.w	r6, [r9, #4]
  404626:	ddef      	ble.n	404608 <_svfprintf_r+0x9ec>
  404628:	aa23      	add	r2, sp, #140	; 0x8c
  40462a:	4659      	mov	r1, fp
  40462c:	4638      	mov	r0, r7
  40462e:	f004 f8f5 	bl	40881c <__ssprint_r>
  404632:	2800      	cmp	r0, #0
  404634:	f47f abeb 	bne.w	403e0e <_svfprintf_r+0x1f2>
  404638:	9c25      	ldr	r4, [sp, #148]	; 0x94
  40463a:	9b24      	ldr	r3, [sp, #144]	; 0x90
  40463c:	f10d 09c0 	add.w	r9, sp, #192	; 0xc0
  404640:	e7e4      	b.n	40460c <_svfprintf_r+0x9f0>
  404642:	9b0c      	ldr	r3, [sp, #48]	; 0x30
  404644:	9a08      	ldr	r2, [sp, #32]
  404646:	1a9f      	subs	r7, r3, r2
  404648:	2f00      	cmp	r7, #0
  40464a:	f77f ad25 	ble.w	404098 <_svfprintf_r+0x47c>
  40464e:	4a21      	ldr	r2, [pc, #132]	; (4046d4 <_svfprintf_r+0xab8>)
  404650:	9b24      	ldr	r3, [sp, #144]	; 0x90
  404652:	920f      	str	r2, [sp, #60]	; 0x3c
  404654:	2f10      	cmp	r7, #16
  404656:	dd2b      	ble.n	4046b0 <_svfprintf_r+0xa94>
  404658:	464a      	mov	r2, r9
  40465a:	4621      	mov	r1, r4
  40465c:	46b9      	mov	r9, r7
  40465e:	2510      	movs	r5, #16
  404660:	4637      	mov	r7, r6
  404662:	9c0a      	ldr	r4, [sp, #40]	; 0x28
  404664:	9e09      	ldr	r6, [sp, #36]	; 0x24
  404666:	e006      	b.n	404676 <_svfprintf_r+0xa5a>
  404668:	f1a9 0910 	sub.w	r9, r9, #16
  40466c:	f1b9 0f10 	cmp.w	r9, #16
  404670:	f102 0208 	add.w	r2, r2, #8
  404674:	dd18      	ble.n	4046a8 <_svfprintf_r+0xa8c>
  404676:	3301      	adds	r3, #1
  404678:	3110      	adds	r1, #16
  40467a:	2b07      	cmp	r3, #7
  40467c:	9125      	str	r1, [sp, #148]	; 0x94
  40467e:	9324      	str	r3, [sp, #144]	; 0x90
  404680:	f8c2 a000 	str.w	sl, [r2]
  404684:	6055      	str	r5, [r2, #4]
  404686:	ddef      	ble.n	404668 <_svfprintf_r+0xa4c>
  404688:	aa23      	add	r2, sp, #140	; 0x8c
  40468a:	4631      	mov	r1, r6
  40468c:	4620      	mov	r0, r4
  40468e:	f004 f8c5 	bl	40881c <__ssprint_r>
  404692:	2800      	cmp	r0, #0
  404694:	f47f abbb 	bne.w	403e0e <_svfprintf_r+0x1f2>
  404698:	f1a9 0910 	sub.w	r9, r9, #16
  40469c:	f1b9 0f10 	cmp.w	r9, #16
  4046a0:	9925      	ldr	r1, [sp, #148]	; 0x94
  4046a2:	9b24      	ldr	r3, [sp, #144]	; 0x90
  4046a4:	aa30      	add	r2, sp, #192	; 0xc0
  4046a6:	dce6      	bgt.n	404676 <_svfprintf_r+0xa5a>
  4046a8:	463e      	mov	r6, r7
  4046aa:	460c      	mov	r4, r1
  4046ac:	464f      	mov	r7, r9
  4046ae:	4691      	mov	r9, r2
  4046b0:	3301      	adds	r3, #1
  4046b2:	9a0f      	ldr	r2, [sp, #60]	; 0x3c
  4046b4:	9324      	str	r3, [sp, #144]	; 0x90
  4046b6:	443c      	add	r4, r7
  4046b8:	2b07      	cmp	r3, #7
  4046ba:	9425      	str	r4, [sp, #148]	; 0x94
  4046bc:	e889 0084 	stmia.w	r9, {r2, r7}
  4046c0:	f300 8245 	bgt.w	404b4e <_svfprintf_r+0xf32>
  4046c4:	f109 0908 	add.w	r9, r9, #8
  4046c8:	e4e6      	b.n	404098 <_svfprintf_r+0x47c>
  4046ca:	bf00      	nop
  4046cc:	00409a50 	.word	0x00409a50
  4046d0:	00409a6c 	.word	0x00409a6c
  4046d4:	00409a1c 	.word	0x00409a1c
  4046d8:	9b12      	ldr	r3, [sp, #72]	; 0x48
  4046da:	9d24      	ldr	r5, [sp, #144]	; 0x90
  4046dc:	2b01      	cmp	r3, #1
  4046de:	f340 8208 	ble.w	404af2 <_svfprintf_r+0xed6>
  4046e2:	3501      	adds	r5, #1
  4046e4:	3401      	adds	r4, #1
  4046e6:	2301      	movs	r3, #1
  4046e8:	2d07      	cmp	r5, #7
  4046ea:	9425      	str	r4, [sp, #148]	; 0x94
  4046ec:	9524      	str	r5, [sp, #144]	; 0x90
  4046ee:	f8c9 6000 	str.w	r6, [r9]
  4046f2:	f8c9 3004 	str.w	r3, [r9, #4]
  4046f6:	f300 820d 	bgt.w	404b14 <_svfprintf_r+0xef8>
  4046fa:	f109 0908 	add.w	r9, r9, #8
  4046fe:	9a16      	ldr	r2, [sp, #88]	; 0x58
  404700:	9b17      	ldr	r3, [sp, #92]	; 0x5c
  404702:	f8c9 3000 	str.w	r3, [r9]
  404706:	3501      	adds	r5, #1
  404708:	4414      	add	r4, r2
  40470a:	2d07      	cmp	r5, #7
  40470c:	9425      	str	r4, [sp, #148]	; 0x94
  40470e:	9524      	str	r5, [sp, #144]	; 0x90
  404710:	f8c9 2004 	str.w	r2, [r9, #4]
  404714:	f300 820e 	bgt.w	404b34 <_svfprintf_r+0xf18>
  404718:	f109 0908 	add.w	r9, r9, #8
  40471c:	2300      	movs	r3, #0
  40471e:	9814      	ldr	r0, [sp, #80]	; 0x50
  404720:	9915      	ldr	r1, [sp, #84]	; 0x54
  404722:	2200      	movs	r2, #0
  404724:	f004 fee6 	bl	4094f4 <__aeabi_dcmpeq>
  404728:	9b12      	ldr	r3, [sp, #72]	; 0x48
  40472a:	2800      	cmp	r0, #0
  40472c:	f040 80c3 	bne.w	4048b6 <_svfprintf_r+0xc9a>
  404730:	3b01      	subs	r3, #1
  404732:	3501      	adds	r5, #1
  404734:	3601      	adds	r6, #1
  404736:	441c      	add	r4, r3
  404738:	2d07      	cmp	r5, #7
  40473a:	9524      	str	r5, [sp, #144]	; 0x90
  40473c:	9425      	str	r4, [sp, #148]	; 0x94
  40473e:	f8c9 6000 	str.w	r6, [r9]
  404742:	f8c9 3004 	str.w	r3, [r9, #4]
  404746:	f300 80f5 	bgt.w	404934 <_svfprintf_r+0xd18>
  40474a:	f109 0908 	add.w	r9, r9, #8
  40474e:	9a19      	ldr	r2, [sp, #100]	; 0x64
  404750:	f8c9 2004 	str.w	r2, [r9, #4]
  404754:	3501      	adds	r5, #1
  404756:	4414      	add	r4, r2
  404758:	ab1f      	add	r3, sp, #124	; 0x7c
  40475a:	2d07      	cmp	r5, #7
  40475c:	9425      	str	r4, [sp, #148]	; 0x94
  40475e:	9524      	str	r5, [sp, #144]	; 0x90
  404760:	f8c9 3000 	str.w	r3, [r9]
  404764:	f77f ace8 	ble.w	404138 <_svfprintf_r+0x51c>
  404768:	aa23      	add	r2, sp, #140	; 0x8c
  40476a:	9909      	ldr	r1, [sp, #36]	; 0x24
  40476c:	980a      	ldr	r0, [sp, #40]	; 0x28
  40476e:	f004 f855 	bl	40881c <__ssprint_r>
  404772:	2800      	cmp	r0, #0
  404774:	f47f ab4b 	bne.w	403e0e <_svfprintf_r+0x1f2>
  404778:	9c25      	ldr	r4, [sp, #148]	; 0x94
  40477a:	f10d 09c0 	add.w	r9, sp, #192	; 0xc0
  40477e:	e4dd      	b.n	40413c <_svfprintf_r+0x520>
  404780:	aa23      	add	r2, sp, #140	; 0x8c
  404782:	9909      	ldr	r1, [sp, #36]	; 0x24
  404784:	980a      	ldr	r0, [sp, #40]	; 0x28
  404786:	f004 f849 	bl	40881c <__ssprint_r>
  40478a:	2800      	cmp	r0, #0
  40478c:	f43f ad24 	beq.w	4041d8 <_svfprintf_r+0x5bc>
  404790:	f7ff bb3d 	b.w	403e0e <_svfprintf_r+0x1f2>
  404794:	aa23      	add	r2, sp, #140	; 0x8c
  404796:	9909      	ldr	r1, [sp, #36]	; 0x24
  404798:	980a      	ldr	r0, [sp, #40]	; 0x28
  40479a:	f004 f83f 	bl	40881c <__ssprint_r>
  40479e:	2800      	cmp	r0, #0
  4047a0:	f47f ab35 	bne.w	403e0e <_svfprintf_r+0x1f2>
  4047a4:	9c25      	ldr	r4, [sp, #148]	; 0x94
  4047a6:	f10d 09c0 	add.w	r9, sp, #192	; 0xc0
  4047aa:	e4b4      	b.n	404116 <_svfprintf_r+0x4fa>
  4047ac:	aa23      	add	r2, sp, #140	; 0x8c
  4047ae:	9909      	ldr	r1, [sp, #36]	; 0x24
  4047b0:	980a      	ldr	r0, [sp, #40]	; 0x28
  4047b2:	f004 f833 	bl	40881c <__ssprint_r>
  4047b6:	2800      	cmp	r0, #0
  4047b8:	f47f ab29 	bne.w	403e0e <_svfprintf_r+0x1f2>
  4047bc:	9c25      	ldr	r4, [sp, #148]	; 0x94
  4047be:	f10d 09c0 	add.w	r9, sp, #192	; 0xc0
  4047c2:	e455      	b.n	404070 <_svfprintf_r+0x454>
  4047c4:	aa23      	add	r2, sp, #140	; 0x8c
  4047c6:	9909      	ldr	r1, [sp, #36]	; 0x24
  4047c8:	980a      	ldr	r0, [sp, #40]	; 0x28
  4047ca:	f004 f827 	bl	40881c <__ssprint_r>
  4047ce:	2800      	cmp	r0, #0
  4047d0:	f47f ab1d 	bne.w	403e0e <_svfprintf_r+0x1f2>
  4047d4:	9c25      	ldr	r4, [sp, #148]	; 0x94
  4047d6:	f10d 09c0 	add.w	r9, sp, #192	; 0xc0
  4047da:	e459      	b.n	404090 <_svfprintf_r+0x474>
  4047dc:	f1bb 0f00 	cmp.w	fp, #0
  4047e0:	f88d 706f 	strb.w	r7, [sp, #111]	; 0x6f
  4047e4:	f2c0 82d8 	blt.w	404d98 <_svfprintf_r+0x117c>
  4047e8:	f022 0380 	bic.w	r3, r2, #128	; 0x80
  4047ec:	9307      	str	r3, [sp, #28]
  4047ee:	ea54 0305 	orrs.w	r3, r4, r5
  4047f2:	f47f adcb 	bne.w	40438c <_svfprintf_r+0x770>
  4047f6:	f1bb 0f00 	cmp.w	fp, #0
  4047fa:	f43f ae8d 	beq.w	404518 <_svfprintf_r+0x8fc>
  4047fe:	2700      	movs	r7, #0
  404800:	e6b8      	b.n	404574 <_svfprintf_r+0x958>
  404802:	9d1d      	ldr	r5, [sp, #116]	; 0x74
  404804:	2d00      	cmp	r5, #0
  404806:	f340 82ca 	ble.w	404d9e <_svfprintf_r+0x1182>
  40480a:	9b13      	ldr	r3, [sp, #76]	; 0x4c
  40480c:	9a12      	ldr	r2, [sp, #72]	; 0x48
  40480e:	4293      	cmp	r3, r2
  404810:	bfa8      	it	ge
  404812:	4613      	movge	r3, r2
  404814:	2b00      	cmp	r3, #0
  404816:	461d      	mov	r5, r3
  404818:	dd0d      	ble.n	404836 <_svfprintf_r+0xc1a>
  40481a:	9b24      	ldr	r3, [sp, #144]	; 0x90
  40481c:	f8c9 6000 	str.w	r6, [r9]
  404820:	3301      	adds	r3, #1
  404822:	442c      	add	r4, r5
  404824:	2b07      	cmp	r3, #7
  404826:	9425      	str	r4, [sp, #148]	; 0x94
  404828:	f8c9 5004 	str.w	r5, [r9, #4]
  40482c:	9324      	str	r3, [sp, #144]	; 0x90
  40482e:	f300 839c 	bgt.w	404f6a <_svfprintf_r+0x134e>
  404832:	f109 0908 	add.w	r9, r9, #8
  404836:	9b13      	ldr	r3, [sp, #76]	; 0x4c
  404838:	2d00      	cmp	r5, #0
  40483a:	bfa8      	it	ge
  40483c:	1b5b      	subge	r3, r3, r5
  40483e:	2b00      	cmp	r3, #0
  404840:	461d      	mov	r5, r3
  404842:	f340 80f6 	ble.w	404a32 <_svfprintf_r+0xe16>
  404846:	4aba      	ldr	r2, [pc, #744]	; (404b30 <_svfprintf_r+0xf14>)
  404848:	9b24      	ldr	r3, [sp, #144]	; 0x90
  40484a:	920f      	str	r2, [sp, #60]	; 0x3c
  40484c:	2d10      	cmp	r5, #16
  40484e:	f340 828a 	ble.w	404d66 <_svfprintf_r+0x114a>
  404852:	4622      	mov	r2, r4
  404854:	2710      	movs	r7, #16
  404856:	f8dd b028 	ldr.w	fp, [sp, #40]	; 0x28
  40485a:	9c09      	ldr	r4, [sp, #36]	; 0x24
  40485c:	e005      	b.n	40486a <_svfprintf_r+0xc4e>
  40485e:	f109 0908 	add.w	r9, r9, #8
  404862:	3d10      	subs	r5, #16
  404864:	2d10      	cmp	r5, #16
  404866:	f340 827d 	ble.w	404d64 <_svfprintf_r+0x1148>
  40486a:	3301      	adds	r3, #1
  40486c:	3210      	adds	r2, #16
  40486e:	2b07      	cmp	r3, #7
  404870:	9225      	str	r2, [sp, #148]	; 0x94
  404872:	9324      	str	r3, [sp, #144]	; 0x90
  404874:	f8c9 a000 	str.w	sl, [r9]
  404878:	f8c9 7004 	str.w	r7, [r9, #4]
  40487c:	ddef      	ble.n	40485e <_svfprintf_r+0xc42>
  40487e:	aa23      	add	r2, sp, #140	; 0x8c
  404880:	4621      	mov	r1, r4
  404882:	4658      	mov	r0, fp
  404884:	f003 ffca 	bl	40881c <__ssprint_r>
  404888:	2800      	cmp	r0, #0
  40488a:	f47f aac0 	bne.w	403e0e <_svfprintf_r+0x1f2>
  40488e:	9a25      	ldr	r2, [sp, #148]	; 0x94
  404890:	9b24      	ldr	r3, [sp, #144]	; 0x90
  404892:	f10d 09c0 	add.w	r9, sp, #192	; 0xc0
  404896:	e7e4      	b.n	404862 <_svfprintf_r+0xc46>
  404898:	aa23      	add	r2, sp, #140	; 0x8c
  40489a:	9909      	ldr	r1, [sp, #36]	; 0x24
  40489c:	980a      	ldr	r0, [sp, #40]	; 0x28
  40489e:	f003 ffbd 	bl	40881c <__ssprint_r>
  4048a2:	2800      	cmp	r0, #0
  4048a4:	f47f aab3 	bne.w	403e0e <_svfprintf_r+0x1f2>
  4048a8:	f89d 706f 	ldrb.w	r7, [sp, #111]	; 0x6f
  4048ac:	9c25      	ldr	r4, [sp, #148]	; 0x94
  4048ae:	f10d 09c0 	add.w	r9, sp, #192	; 0xc0
  4048b2:	f7ff bbcd 	b.w	404050 <_svfprintf_r+0x434>
  4048b6:	1e5e      	subs	r6, r3, #1
  4048b8:	2e00      	cmp	r6, #0
  4048ba:	f77f af48 	ble.w	40474e <_svfprintf_r+0xb32>
  4048be:	4b9c      	ldr	r3, [pc, #624]	; (404b30 <_svfprintf_r+0xf14>)
  4048c0:	930f      	str	r3, [sp, #60]	; 0x3c
  4048c2:	2e10      	cmp	r6, #16
  4048c4:	dd2c      	ble.n	404920 <_svfprintf_r+0xd04>
  4048c6:	f8cd 8034 	str.w	r8, [sp, #52]	; 0x34
  4048ca:	2710      	movs	r7, #16
  4048cc:	46b0      	mov	r8, r6
  4048ce:	f8dd b028 	ldr.w	fp, [sp, #40]	; 0x28
  4048d2:	9e09      	ldr	r6, [sp, #36]	; 0x24
  4048d4:	e006      	b.n	4048e4 <_svfprintf_r+0xcc8>
  4048d6:	f1a8 0810 	sub.w	r8, r8, #16
  4048da:	f1b8 0f10 	cmp.w	r8, #16
  4048de:	f109 0908 	add.w	r9, r9, #8
  4048e2:	dd1a      	ble.n	40491a <_svfprintf_r+0xcfe>
  4048e4:	3501      	adds	r5, #1
  4048e6:	3410      	adds	r4, #16
  4048e8:	2d07      	cmp	r5, #7
  4048ea:	9425      	str	r4, [sp, #148]	; 0x94
  4048ec:	9524      	str	r5, [sp, #144]	; 0x90
  4048ee:	f8c9 a000 	str.w	sl, [r9]
  4048f2:	f8c9 7004 	str.w	r7, [r9, #4]
  4048f6:	ddee      	ble.n	4048d6 <_svfprintf_r+0xcba>
  4048f8:	aa23      	add	r2, sp, #140	; 0x8c
  4048fa:	4631      	mov	r1, r6
  4048fc:	4658      	mov	r0, fp
  4048fe:	f003 ff8d 	bl	40881c <__ssprint_r>
  404902:	2800      	cmp	r0, #0
  404904:	f47f aa83 	bne.w	403e0e <_svfprintf_r+0x1f2>
  404908:	f1a8 0810 	sub.w	r8, r8, #16
  40490c:	f1b8 0f10 	cmp.w	r8, #16
  404910:	9c25      	ldr	r4, [sp, #148]	; 0x94
  404912:	9d24      	ldr	r5, [sp, #144]	; 0x90
  404914:	f10d 09c0 	add.w	r9, sp, #192	; 0xc0
  404918:	dce4      	bgt.n	4048e4 <_svfprintf_r+0xcc8>
  40491a:	4646      	mov	r6, r8
  40491c:	f8dd 8034 	ldr.w	r8, [sp, #52]	; 0x34
  404920:	9b0f      	ldr	r3, [sp, #60]	; 0x3c
  404922:	3501      	adds	r5, #1
  404924:	4434      	add	r4, r6
  404926:	2d07      	cmp	r5, #7
  404928:	9425      	str	r4, [sp, #148]	; 0x94
  40492a:	9524      	str	r5, [sp, #144]	; 0x90
  40492c:	e889 0048 	stmia.w	r9, {r3, r6}
  404930:	f77f af0b 	ble.w	40474a <_svfprintf_r+0xb2e>
  404934:	aa23      	add	r2, sp, #140	; 0x8c
  404936:	9909      	ldr	r1, [sp, #36]	; 0x24
  404938:	980a      	ldr	r0, [sp, #40]	; 0x28
  40493a:	f003 ff6f 	bl	40881c <__ssprint_r>
  40493e:	2800      	cmp	r0, #0
  404940:	f47f aa65 	bne.w	403e0e <_svfprintf_r+0x1f2>
  404944:	9c25      	ldr	r4, [sp, #148]	; 0x94
  404946:	9d24      	ldr	r5, [sp, #144]	; 0x90
  404948:	f10d 09c0 	add.w	r9, sp, #192	; 0xc0
  40494c:	e6ff      	b.n	40474e <_svfprintf_r+0xb32>
  40494e:	9907      	ldr	r1, [sp, #28]
  404950:	f011 0210 	ands.w	r2, r1, #16
  404954:	f000 8108 	beq.w	404b68 <_svfprintf_r+0xf4c>
  404958:	980e      	ldr	r0, [sp, #56]	; 0x38
  40495a:	f88d 306f 	strb.w	r3, [sp, #111]	; 0x6f
  40495e:	f1bb 0f00 	cmp.w	fp, #0
  404962:	6804      	ldr	r4, [r0, #0]
  404964:	f100 0704 	add.w	r7, r0, #4
  404968:	f04f 0500 	mov.w	r5, #0
  40496c:	db26      	blt.n	4049bc <_svfprintf_r+0xda0>
  40496e:	460a      	mov	r2, r1
  404970:	f022 0280 	bic.w	r2, r2, #128	; 0x80
  404974:	9207      	str	r2, [sp, #28]
  404976:	ea54 0205 	orrs.w	r2, r4, r5
  40497a:	970e      	str	r7, [sp, #56]	; 0x38
  40497c:	461f      	mov	r7, r3
  40497e:	f47f aaef 	bne.w	403f60 <_svfprintf_r+0x344>
  404982:	e4c8      	b.n	404316 <_svfprintf_r+0x6fa>
  404984:	9b07      	ldr	r3, [sp, #28]
  404986:	06d9      	lsls	r1, r3, #27
  404988:	d42a      	bmi.n	4049e0 <_svfprintf_r+0xdc4>
  40498a:	9b07      	ldr	r3, [sp, #28]
  40498c:	065a      	lsls	r2, r3, #25
  40498e:	d527      	bpl.n	4049e0 <_svfprintf_r+0xdc4>
  404990:	990e      	ldr	r1, [sp, #56]	; 0x38
  404992:	f9b1 4000 	ldrsh.w	r4, [r1]
  404996:	3104      	adds	r1, #4
  404998:	17e5      	asrs	r5, r4, #31
  40499a:	4622      	mov	r2, r4
  40499c:	462b      	mov	r3, r5
  40499e:	910e      	str	r1, [sp, #56]	; 0x38
  4049a0:	f7ff bacb 	b.w	403f3a <_svfprintf_r+0x31e>
  4049a4:	990e      	ldr	r1, [sp, #56]	; 0x38
  4049a6:	f88d 306f 	strb.w	r3, [sp, #111]	; 0x6f
  4049aa:	f1bb 0f00 	cmp.w	fp, #0
  4049ae:	680c      	ldr	r4, [r1, #0]
  4049b0:	f101 0704 	add.w	r7, r1, #4
  4049b4:	f04f 0500 	mov.w	r5, #0
  4049b8:	f280 8247 	bge.w	404e4a <_svfprintf_r+0x122e>
  4049bc:	970e      	str	r7, [sp, #56]	; 0x38
  4049be:	461f      	mov	r7, r3
  4049c0:	ea54 0305 	orrs.w	r3, r4, r5
  4049c4:	f47f aacc 	bne.w	403f60 <_svfprintf_r+0x344>
  4049c8:	e4aa      	b.n	404320 <_svfprintf_r+0x704>
  4049ca:	3301      	adds	r3, #1
  4049cc:	9a0f      	ldr	r2, [sp, #60]	; 0x3c
  4049ce:	9324      	str	r3, [sp, #144]	; 0x90
  4049d0:	442c      	add	r4, r5
  4049d2:	2b07      	cmp	r3, #7
  4049d4:	9425      	str	r4, [sp, #148]	; 0x94
  4049d6:	e889 0024 	stmia.w	r9, {r2, r5}
  4049da:	f77f abad 	ble.w	404138 <_svfprintf_r+0x51c>
  4049de:	e6c3      	b.n	404768 <_svfprintf_r+0xb4c>
  4049e0:	9a0e      	ldr	r2, [sp, #56]	; 0x38
  4049e2:	6814      	ldr	r4, [r2, #0]
  4049e4:	4613      	mov	r3, r2
  4049e6:	3304      	adds	r3, #4
  4049e8:	17e5      	asrs	r5, r4, #31
  4049ea:	4622      	mov	r2, r4
  4049ec:	930e      	str	r3, [sp, #56]	; 0x38
  4049ee:	2a00      	cmp	r2, #0
  4049f0:	462b      	mov	r3, r5
  4049f2:	f173 0300 	sbcs.w	r3, r3, #0
  4049f6:	f6bf aaa5 	bge.w	403f44 <_svfprintf_r+0x328>
  4049fa:	4264      	negs	r4, r4
  4049fc:	f04f 072d 	mov.w	r7, #45	; 0x2d
  404a00:	eb65 0545 	sbc.w	r5, r5, r5, lsl #1
  404a04:	f1bb 0f00 	cmp.w	fp, #0
  404a08:	f88d 706f 	strb.w	r7, [sp, #111]	; 0x6f
  404a0c:	f6ff aaa8 	blt.w	403f60 <_svfprintf_r+0x344>
  404a10:	9b07      	ldr	r3, [sp, #28]
  404a12:	f023 0380 	bic.w	r3, r3, #128	; 0x80
  404a16:	9307      	str	r3, [sp, #28]
  404a18:	f7ff baa2 	b.w	403f60 <_svfprintf_r+0x344>
  404a1c:	aa23      	add	r2, sp, #140	; 0x8c
  404a1e:	9909      	ldr	r1, [sp, #36]	; 0x24
  404a20:	980a      	ldr	r0, [sp, #40]	; 0x28
  404a22:	f003 fefb 	bl	40881c <__ssprint_r>
  404a26:	2800      	cmp	r0, #0
  404a28:	f47f a9f1 	bne.w	403e0e <_svfprintf_r+0x1f2>
  404a2c:	9c25      	ldr	r4, [sp, #148]	; 0x94
  404a2e:	f10d 09c0 	add.w	r9, sp, #192	; 0xc0
  404a32:	9a13      	ldr	r2, [sp, #76]	; 0x4c
  404a34:	9b1d      	ldr	r3, [sp, #116]	; 0x74
  404a36:	4432      	add	r2, r6
  404a38:	4617      	mov	r7, r2
  404a3a:	9a12      	ldr	r2, [sp, #72]	; 0x48
  404a3c:	4293      	cmp	r3, r2
  404a3e:	db47      	blt.n	404ad0 <_svfprintf_r+0xeb4>
  404a40:	9a07      	ldr	r2, [sp, #28]
  404a42:	07d5      	lsls	r5, r2, #31
  404a44:	d444      	bmi.n	404ad0 <_svfprintf_r+0xeb4>
  404a46:	9912      	ldr	r1, [sp, #72]	; 0x48
  404a48:	440e      	add	r6, r1
  404a4a:	1bf5      	subs	r5, r6, r7
  404a4c:	1acb      	subs	r3, r1, r3
  404a4e:	429d      	cmp	r5, r3
  404a50:	bfa8      	it	ge
  404a52:	461d      	movge	r5, r3
  404a54:	2d00      	cmp	r5, #0
  404a56:	462e      	mov	r6, r5
  404a58:	dd0d      	ble.n	404a76 <_svfprintf_r+0xe5a>
  404a5a:	9a24      	ldr	r2, [sp, #144]	; 0x90
  404a5c:	f8c9 7000 	str.w	r7, [r9]
  404a60:	3201      	adds	r2, #1
  404a62:	442c      	add	r4, r5
  404a64:	2a07      	cmp	r2, #7
  404a66:	9425      	str	r4, [sp, #148]	; 0x94
  404a68:	f8c9 5004 	str.w	r5, [r9, #4]
  404a6c:	9224      	str	r2, [sp, #144]	; 0x90
  404a6e:	f300 830b 	bgt.w	405088 <_svfprintf_r+0x146c>
  404a72:	f109 0908 	add.w	r9, r9, #8
  404a76:	2e00      	cmp	r6, #0
  404a78:	bfac      	ite	ge
  404a7a:	1b9d      	subge	r5, r3, r6
  404a7c:	461d      	movlt	r5, r3
  404a7e:	2d00      	cmp	r5, #0
  404a80:	f77f ab5c 	ble.w	40413c <_svfprintf_r+0x520>
  404a84:	4a2a      	ldr	r2, [pc, #168]	; (404b30 <_svfprintf_r+0xf14>)
  404a86:	9b24      	ldr	r3, [sp, #144]	; 0x90
  404a88:	920f      	str	r2, [sp, #60]	; 0x3c
  404a8a:	2d10      	cmp	r5, #16
  404a8c:	dd9d      	ble.n	4049ca <_svfprintf_r+0xdae>
  404a8e:	2610      	movs	r6, #16
  404a90:	9f0a      	ldr	r7, [sp, #40]	; 0x28
  404a92:	f8dd b024 	ldr.w	fp, [sp, #36]	; 0x24
  404a96:	e004      	b.n	404aa2 <_svfprintf_r+0xe86>
  404a98:	f109 0908 	add.w	r9, r9, #8
  404a9c:	3d10      	subs	r5, #16
  404a9e:	2d10      	cmp	r5, #16
  404aa0:	dd93      	ble.n	4049ca <_svfprintf_r+0xdae>
  404aa2:	3301      	adds	r3, #1
  404aa4:	3410      	adds	r4, #16
  404aa6:	2b07      	cmp	r3, #7
  404aa8:	9425      	str	r4, [sp, #148]	; 0x94
  404aaa:	9324      	str	r3, [sp, #144]	; 0x90
  404aac:	f8c9 a000 	str.w	sl, [r9]
  404ab0:	f8c9 6004 	str.w	r6, [r9, #4]
  404ab4:	ddf0      	ble.n	404a98 <_svfprintf_r+0xe7c>
  404ab6:	aa23      	add	r2, sp, #140	; 0x8c
  404ab8:	4659      	mov	r1, fp
  404aba:	4638      	mov	r0, r7
  404abc:	f003 feae 	bl	40881c <__ssprint_r>
  404ac0:	2800      	cmp	r0, #0
  404ac2:	f47f a9a4 	bne.w	403e0e <_svfprintf_r+0x1f2>
  404ac6:	9c25      	ldr	r4, [sp, #148]	; 0x94
  404ac8:	9b24      	ldr	r3, [sp, #144]	; 0x90
  404aca:	f10d 09c0 	add.w	r9, sp, #192	; 0xc0
  404ace:	e7e5      	b.n	404a9c <_svfprintf_r+0xe80>
  404ad0:	9a24      	ldr	r2, [sp, #144]	; 0x90
  404ad2:	9816      	ldr	r0, [sp, #88]	; 0x58
  404ad4:	9917      	ldr	r1, [sp, #92]	; 0x5c
  404ad6:	f8c9 1000 	str.w	r1, [r9]
  404ada:	3201      	adds	r2, #1
  404adc:	4404      	add	r4, r0
  404ade:	2a07      	cmp	r2, #7
  404ae0:	9425      	str	r4, [sp, #148]	; 0x94
  404ae2:	f8c9 0004 	str.w	r0, [r9, #4]
  404ae6:	9224      	str	r2, [sp, #144]	; 0x90
  404ae8:	f300 82a9 	bgt.w	40503e <_svfprintf_r+0x1422>
  404aec:	f109 0908 	add.w	r9, r9, #8
  404af0:	e7a9      	b.n	404a46 <_svfprintf_r+0xe2a>
  404af2:	9b07      	ldr	r3, [sp, #28]
  404af4:	07d8      	lsls	r0, r3, #31
  404af6:	f53f adf4 	bmi.w	4046e2 <_svfprintf_r+0xac6>
  404afa:	3501      	adds	r5, #1
  404afc:	3401      	adds	r4, #1
  404afe:	2301      	movs	r3, #1
  404b00:	2d07      	cmp	r5, #7
  404b02:	9425      	str	r4, [sp, #148]	; 0x94
  404b04:	9524      	str	r5, [sp, #144]	; 0x90
  404b06:	f8c9 6000 	str.w	r6, [r9]
  404b0a:	f8c9 3004 	str.w	r3, [r9, #4]
  404b0e:	f77f ae1c 	ble.w	40474a <_svfprintf_r+0xb2e>
  404b12:	e70f      	b.n	404934 <_svfprintf_r+0xd18>
  404b14:	aa23      	add	r2, sp, #140	; 0x8c
  404b16:	9909      	ldr	r1, [sp, #36]	; 0x24
  404b18:	980a      	ldr	r0, [sp, #40]	; 0x28
  404b1a:	f003 fe7f 	bl	40881c <__ssprint_r>
  404b1e:	2800      	cmp	r0, #0
  404b20:	f47f a975 	bne.w	403e0e <_svfprintf_r+0x1f2>
  404b24:	9c25      	ldr	r4, [sp, #148]	; 0x94
  404b26:	9d24      	ldr	r5, [sp, #144]	; 0x90
  404b28:	f10d 09c0 	add.w	r9, sp, #192	; 0xc0
  404b2c:	e5e7      	b.n	4046fe <_svfprintf_r+0xae2>
  404b2e:	bf00      	nop
  404b30:	00409a1c 	.word	0x00409a1c
  404b34:	aa23      	add	r2, sp, #140	; 0x8c
  404b36:	9909      	ldr	r1, [sp, #36]	; 0x24
  404b38:	980a      	ldr	r0, [sp, #40]	; 0x28
  404b3a:	f003 fe6f 	bl	40881c <__ssprint_r>
  404b3e:	2800      	cmp	r0, #0
  404b40:	f47f a965 	bne.w	403e0e <_svfprintf_r+0x1f2>
  404b44:	9c25      	ldr	r4, [sp, #148]	; 0x94
  404b46:	9d24      	ldr	r5, [sp, #144]	; 0x90
  404b48:	f10d 09c0 	add.w	r9, sp, #192	; 0xc0
  404b4c:	e5e6      	b.n	40471c <_svfprintf_r+0xb00>
  404b4e:	aa23      	add	r2, sp, #140	; 0x8c
  404b50:	9909      	ldr	r1, [sp, #36]	; 0x24
  404b52:	980a      	ldr	r0, [sp, #40]	; 0x28
  404b54:	f003 fe62 	bl	40881c <__ssprint_r>
  404b58:	2800      	cmp	r0, #0
  404b5a:	f47f a958 	bne.w	403e0e <_svfprintf_r+0x1f2>
  404b5e:	9c25      	ldr	r4, [sp, #148]	; 0x94
  404b60:	f10d 09c0 	add.w	r9, sp, #192	; 0xc0
  404b64:	f7ff ba98 	b.w	404098 <_svfprintf_r+0x47c>
  404b68:	9907      	ldr	r1, [sp, #28]
  404b6a:	f011 0340 	ands.w	r3, r1, #64	; 0x40
  404b6e:	f43f af19 	beq.w	4049a4 <_svfprintf_r+0xd88>
  404b72:	980e      	ldr	r0, [sp, #56]	; 0x38
  404b74:	f88d 206f 	strb.w	r2, [sp, #111]	; 0x6f
  404b78:	f1bb 0f00 	cmp.w	fp, #0
  404b7c:	8804      	ldrh	r4, [r0, #0]
  404b7e:	f100 0704 	add.w	r7, r0, #4
  404b82:	f04f 0500 	mov.w	r5, #0
  404b86:	f2c0 81b9 	blt.w	404efc <_svfprintf_r+0x12e0>
  404b8a:	f021 0380 	bic.w	r3, r1, #128	; 0x80
  404b8e:	9307      	str	r3, [sp, #28]
  404b90:	ea54 0305 	orrs.w	r3, r4, r5
  404b94:	970e      	str	r7, [sp, #56]	; 0x38
  404b96:	4617      	mov	r7, r2
  404b98:	f47f a9e2 	bne.w	403f60 <_svfprintf_r+0x344>
  404b9c:	f7ff bbbb 	b.w	404316 <_svfprintf_r+0x6fa>
  404ba0:	9c14      	ldr	r4, [sp, #80]	; 0x50
  404ba2:	4622      	mov	r2, r4
  404ba4:	4620      	mov	r0, r4
  404ba6:	9c15      	ldr	r4, [sp, #84]	; 0x54
  404ba8:	4623      	mov	r3, r4
  404baa:	4621      	mov	r1, r4
  404bac:	f004 fcd4 	bl	409558 <__aeabi_dcmpun>
  404bb0:	2800      	cmp	r0, #0
  404bb2:	f040 8317 	bne.w	4051e4 <_svfprintf_r+0x15c8>
  404bb6:	9b11      	ldr	r3, [sp, #68]	; 0x44
  404bb8:	f1bb 3fff 	cmp.w	fp, #4294967295
  404bbc:	f023 0320 	bic.w	r3, r3, #32
  404bc0:	930d      	str	r3, [sp, #52]	; 0x34
  404bc2:	f000 8270 	beq.w	4050a6 <_svfprintf_r+0x148a>
  404bc6:	2b47      	cmp	r3, #71	; 0x47
  404bc8:	f000 8192 	beq.w	404ef0 <_svfprintf_r+0x12d4>
  404bcc:	9b07      	ldr	r3, [sp, #28]
  404bce:	f443 7380 	orr.w	r3, r3, #256	; 0x100
  404bd2:	9310      	str	r3, [sp, #64]	; 0x40
  404bd4:	9b15      	ldr	r3, [sp, #84]	; 0x54
  404bd6:	1e1f      	subs	r7, r3, #0
  404bd8:	9b14      	ldr	r3, [sp, #80]	; 0x50
  404bda:	9308      	str	r3, [sp, #32]
  404bdc:	bfbb      	ittet	lt
  404bde:	463b      	movlt	r3, r7
  404be0:	f103 4700 	addlt.w	r7, r3, #2147483648	; 0x80000000
  404be4:	2300      	movge	r3, #0
  404be6:	232d      	movlt	r3, #45	; 0x2d
  404be8:	930f      	str	r3, [sp, #60]	; 0x3c
  404bea:	9b11      	ldr	r3, [sp, #68]	; 0x44
  404bec:	2b66      	cmp	r3, #102	; 0x66
  404bee:	f000 825d 	beq.w	4050ac <_svfprintf_r+0x1490>
  404bf2:	2b46      	cmp	r3, #70	; 0x46
  404bf4:	f000 8151 	beq.w	404e9a <_svfprintf_r+0x127e>
  404bf8:	9b0d      	ldr	r3, [sp, #52]	; 0x34
  404bfa:	9a08      	ldr	r2, [sp, #32]
  404bfc:	2b45      	cmp	r3, #69	; 0x45
  404bfe:	a821      	add	r0, sp, #132	; 0x84
  404c00:	a91e      	add	r1, sp, #120	; 0x78
  404c02:	bf0c      	ite	eq
  404c04:	f10b 0501 	addeq.w	r5, fp, #1
  404c08:	465d      	movne	r5, fp
  404c0a:	9004      	str	r0, [sp, #16]
  404c0c:	9103      	str	r1, [sp, #12]
  404c0e:	a81d      	add	r0, sp, #116	; 0x74
  404c10:	2102      	movs	r1, #2
  404c12:	463b      	mov	r3, r7
  404c14:	9002      	str	r0, [sp, #8]
  404c16:	9501      	str	r5, [sp, #4]
  404c18:	9100      	str	r1, [sp, #0]
  404c1a:	980a      	ldr	r0, [sp, #40]	; 0x28
  404c1c:	f001 fbc4 	bl	4063a8 <_dtoa_r>
  404c20:	9b11      	ldr	r3, [sp, #68]	; 0x44
  404c22:	2b67      	cmp	r3, #103	; 0x67
  404c24:	4606      	mov	r6, r0
  404c26:	f040 8290 	bne.w	40514a <_svfprintf_r+0x152e>
  404c2a:	9b07      	ldr	r3, [sp, #28]
  404c2c:	07da      	lsls	r2, r3, #31
  404c2e:	f140 82af 	bpl.w	405190 <_svfprintf_r+0x1574>
  404c32:	1974      	adds	r4, r6, r5
  404c34:	9808      	ldr	r0, [sp, #32]
  404c36:	4639      	mov	r1, r7
  404c38:	2200      	movs	r2, #0
  404c3a:	2300      	movs	r3, #0
  404c3c:	f004 fc5a 	bl	4094f4 <__aeabi_dcmpeq>
  404c40:	2800      	cmp	r0, #0
  404c42:	f040 8190 	bne.w	404f66 <_svfprintf_r+0x134a>
  404c46:	9b21      	ldr	r3, [sp, #132]	; 0x84
  404c48:	429c      	cmp	r4, r3
  404c4a:	d906      	bls.n	404c5a <_svfprintf_r+0x103e>
  404c4c:	2130      	movs	r1, #48	; 0x30
  404c4e:	1c5a      	adds	r2, r3, #1
  404c50:	9221      	str	r2, [sp, #132]	; 0x84
  404c52:	7019      	strb	r1, [r3, #0]
  404c54:	9b21      	ldr	r3, [sp, #132]	; 0x84
  404c56:	429c      	cmp	r4, r3
  404c58:	d8f9      	bhi.n	404c4e <_svfprintf_r+0x1032>
  404c5a:	1b9b      	subs	r3, r3, r6
  404c5c:	9312      	str	r3, [sp, #72]	; 0x48
  404c5e:	9b0d      	ldr	r3, [sp, #52]	; 0x34
  404c60:	2b47      	cmp	r3, #71	; 0x47
  404c62:	f000 8179 	beq.w	404f58 <_svfprintf_r+0x133c>
  404c66:	9b11      	ldr	r3, [sp, #68]	; 0x44
  404c68:	2b65      	cmp	r3, #101	; 0x65
  404c6a:	f340 827d 	ble.w	405168 <_svfprintf_r+0x154c>
  404c6e:	9b11      	ldr	r3, [sp, #68]	; 0x44
  404c70:	2b66      	cmp	r3, #102	; 0x66
  404c72:	9b1d      	ldr	r3, [sp, #116]	; 0x74
  404c74:	9313      	str	r3, [sp, #76]	; 0x4c
  404c76:	f000 825b 	beq.w	405130 <_svfprintf_r+0x1514>
  404c7a:	9a13      	ldr	r2, [sp, #76]	; 0x4c
  404c7c:	9912      	ldr	r1, [sp, #72]	; 0x48
  404c7e:	428a      	cmp	r2, r1
  404c80:	f2c0 8230 	blt.w	4050e4 <_svfprintf_r+0x14c8>
  404c84:	9b07      	ldr	r3, [sp, #28]
  404c86:	07d9      	lsls	r1, r3, #31
  404c88:	f100 8284 	bmi.w	405194 <_svfprintf_r+0x1578>
  404c8c:	ea22 73e2 	bic.w	r3, r2, r2, asr #31
  404c90:	920d      	str	r2, [sp, #52]	; 0x34
  404c92:	2267      	movs	r2, #103	; 0x67
  404c94:	9211      	str	r2, [sp, #68]	; 0x44
  404c96:	9a0f      	ldr	r2, [sp, #60]	; 0x3c
  404c98:	2a00      	cmp	r2, #0
  404c9a:	f040 8153 	bne.w	404f44 <_svfprintf_r+0x1328>
  404c9e:	9308      	str	r3, [sp, #32]
  404ca0:	9b10      	ldr	r3, [sp, #64]	; 0x40
  404ca2:	9307      	str	r3, [sp, #28]
  404ca4:	4693      	mov	fp, r2
  404ca6:	f89d 706f 	ldrb.w	r7, [sp, #111]	; 0x6f
  404caa:	f7ff b97d 	b.w	403fa8 <_svfprintf_r+0x38c>
  404cae:	9907      	ldr	r1, [sp, #28]
  404cb0:	f011 0340 	ands.w	r3, r1, #64	; 0x40
  404cb4:	d015      	beq.n	404ce2 <_svfprintf_r+0x10c6>
  404cb6:	980e      	ldr	r0, [sp, #56]	; 0x38
  404cb8:	f88d 206f 	strb.w	r2, [sp, #111]	; 0x6f
  404cbc:	f1bb 0f00 	cmp.w	fp, #0
  404cc0:	8804      	ldrh	r4, [r0, #0]
  404cc2:	f100 0704 	add.w	r7, r0, #4
  404cc6:	f04f 0500 	mov.w	r5, #0
  404cca:	db16      	blt.n	404cfa <_svfprintf_r+0x10de>
  404ccc:	f021 0380 	bic.w	r3, r1, #128	; 0x80
  404cd0:	9307      	str	r3, [sp, #28]
  404cd2:	ea54 0305 	orrs.w	r3, r4, r5
  404cd6:	970e      	str	r7, [sp, #56]	; 0x38
  404cd8:	f43f ac3a 	beq.w	404550 <_svfprintf_r+0x934>
  404cdc:	4617      	mov	r7, r2
  404cde:	f7ff b8c2 	b.w	403e66 <_svfprintf_r+0x24a>
  404ce2:	990e      	ldr	r1, [sp, #56]	; 0x38
  404ce4:	f88d 306f 	strb.w	r3, [sp, #111]	; 0x6f
  404ce8:	f1bb 0f00 	cmp.w	fp, #0
  404cec:	680c      	ldr	r4, [r1, #0]
  404cee:	f101 0704 	add.w	r7, r1, #4
  404cf2:	f04f 0500 	mov.w	r5, #0
  404cf6:	f280 80a5 	bge.w	404e44 <_svfprintf_r+0x1228>
  404cfa:	970e      	str	r7, [sp, #56]	; 0x38
  404cfc:	2700      	movs	r7, #0
  404cfe:	f7ff b8b2 	b.w	403e66 <_svfprintf_r+0x24a>
  404d02:	9b07      	ldr	r3, [sp, #28]
  404d04:	06df      	lsls	r7, r3, #27
  404d06:	d40b      	bmi.n	404d20 <_svfprintf_r+0x1104>
  404d08:	9b07      	ldr	r3, [sp, #28]
  404d0a:	065e      	lsls	r6, r3, #25
  404d0c:	d508      	bpl.n	404d20 <_svfprintf_r+0x1104>
  404d0e:	9a0e      	ldr	r2, [sp, #56]	; 0x38
  404d10:	6813      	ldr	r3, [r2, #0]
  404d12:	3204      	adds	r2, #4
  404d14:	920e      	str	r2, [sp, #56]	; 0x38
  404d16:	f8bd 202c 	ldrh.w	r2, [sp, #44]	; 0x2c
  404d1a:	801a      	strh	r2, [r3, #0]
  404d1c:	f7fe bfa4 	b.w	403c68 <_svfprintf_r+0x4c>
  404d20:	9a0e      	ldr	r2, [sp, #56]	; 0x38
  404d22:	6813      	ldr	r3, [r2, #0]
  404d24:	3204      	adds	r2, #4
  404d26:	920e      	str	r2, [sp, #56]	; 0x38
  404d28:	9a0b      	ldr	r2, [sp, #44]	; 0x2c
  404d2a:	601a      	str	r2, [r3, #0]
  404d2c:	f7fe bf9c 	b.w	403c68 <_svfprintf_r+0x4c>
  404d30:	9a0e      	ldr	r2, [sp, #56]	; 0x38
  404d32:	9b07      	ldr	r3, [sp, #28]
  404d34:	f013 0f40 	tst.w	r3, #64	; 0x40
  404d38:	4613      	mov	r3, r2
  404d3a:	f103 0304 	add.w	r3, r3, #4
  404d3e:	bf0c      	ite	eq
  404d40:	6814      	ldreq	r4, [r2, #0]
  404d42:	8814      	ldrhne	r4, [r2, #0]
  404d44:	930e      	str	r3, [sp, #56]	; 0x38
  404d46:	2500      	movs	r5, #0
  404d48:	f7ff bb02 	b.w	404350 <_svfprintf_r+0x734>
  404d4c:	2700      	movs	r7, #0
  404d4e:	45bb      	cmp	fp, r7
  404d50:	f88d 706f 	strb.w	r7, [sp, #111]	; 0x6f
  404d54:	f6ff ac0e 	blt.w	404574 <_svfprintf_r+0x958>
  404d58:	9b07      	ldr	r3, [sp, #28]
  404d5a:	f023 0380 	bic.w	r3, r3, #128	; 0x80
  404d5e:	9307      	str	r3, [sp, #28]
  404d60:	f7ff bbd6 	b.w	404510 <_svfprintf_r+0x8f4>
  404d64:	4614      	mov	r4, r2
  404d66:	3301      	adds	r3, #1
  404d68:	9a0f      	ldr	r2, [sp, #60]	; 0x3c
  404d6a:	9324      	str	r3, [sp, #144]	; 0x90
  404d6c:	442c      	add	r4, r5
  404d6e:	2b07      	cmp	r3, #7
  404d70:	9425      	str	r4, [sp, #148]	; 0x94
  404d72:	e889 0024 	stmia.w	r9, {r2, r5}
  404d76:	f73f ae51 	bgt.w	404a1c <_svfprintf_r+0xe00>
  404d7a:	f109 0908 	add.w	r9, r9, #8
  404d7e:	e658      	b.n	404a32 <_svfprintf_r+0xe16>
  404d80:	aa23      	add	r2, sp, #140	; 0x8c
  404d82:	9909      	ldr	r1, [sp, #36]	; 0x24
  404d84:	980a      	ldr	r0, [sp, #40]	; 0x28
  404d86:	f003 fd49 	bl	40881c <__ssprint_r>
  404d8a:	2800      	cmp	r0, #0
  404d8c:	f47f a83f 	bne.w	403e0e <_svfprintf_r+0x1f2>
  404d90:	9c25      	ldr	r4, [sp, #148]	; 0x94
  404d92:	f10d 09c0 	add.w	r9, sp, #192	; 0xc0
  404d96:	e40f      	b.n	4045b8 <_svfprintf_r+0x99c>
  404d98:	9f0e      	ldr	r7, [sp, #56]	; 0x38
  404d9a:	f7ff bbe4 	b.w	404566 <_svfprintf_r+0x94a>
  404d9e:	9b24      	ldr	r3, [sp, #144]	; 0x90
  404da0:	4ab5      	ldr	r2, [pc, #724]	; (405078 <_svfprintf_r+0x145c>)
  404da2:	f8c9 2000 	str.w	r2, [r9]
  404da6:	3301      	adds	r3, #1
  404da8:	3401      	adds	r4, #1
  404daa:	2201      	movs	r2, #1
  404dac:	2b07      	cmp	r3, #7
  404dae:	9425      	str	r4, [sp, #148]	; 0x94
  404db0:	9324      	str	r3, [sp, #144]	; 0x90
  404db2:	f8c9 2004 	str.w	r2, [r9, #4]
  404db6:	f300 808e 	bgt.w	404ed6 <_svfprintf_r+0x12ba>
  404dba:	f109 0908 	add.w	r9, r9, #8
  404dbe:	b92d      	cbnz	r5, 404dcc <_svfprintf_r+0x11b0>
  404dc0:	9b12      	ldr	r3, [sp, #72]	; 0x48
  404dc2:	b91b      	cbnz	r3, 404dcc <_svfprintf_r+0x11b0>
  404dc4:	9b07      	ldr	r3, [sp, #28]
  404dc6:	07df      	lsls	r7, r3, #31
  404dc8:	f57f a9b8 	bpl.w	40413c <_svfprintf_r+0x520>
  404dcc:	9b24      	ldr	r3, [sp, #144]	; 0x90
  404dce:	9916      	ldr	r1, [sp, #88]	; 0x58
  404dd0:	9a17      	ldr	r2, [sp, #92]	; 0x5c
  404dd2:	f8c9 2000 	str.w	r2, [r9]
  404dd6:	3301      	adds	r3, #1
  404dd8:	440c      	add	r4, r1
  404dda:	2b07      	cmp	r3, #7
  404ddc:	9425      	str	r4, [sp, #148]	; 0x94
  404dde:	f8c9 1004 	str.w	r1, [r9, #4]
  404de2:	9324      	str	r3, [sp, #144]	; 0x90
  404de4:	f300 81c2 	bgt.w	40516c <_svfprintf_r+0x1550>
  404de8:	f109 0908 	add.w	r9, r9, #8
  404dec:	426d      	negs	r5, r5
  404dee:	2d00      	cmp	r5, #0
  404df0:	f340 809b 	ble.w	404f2a <_svfprintf_r+0x130e>
  404df4:	4aa1      	ldr	r2, [pc, #644]	; (40507c <_svfprintf_r+0x1460>)
  404df6:	920f      	str	r2, [sp, #60]	; 0x3c
  404df8:	2d10      	cmp	r5, #16
  404dfa:	f340 80c3 	ble.w	404f84 <_svfprintf_r+0x1368>
  404dfe:	4622      	mov	r2, r4
  404e00:	2710      	movs	r7, #16
  404e02:	f8dd b028 	ldr.w	fp, [sp, #40]	; 0x28
  404e06:	9c09      	ldr	r4, [sp, #36]	; 0x24
  404e08:	e005      	b.n	404e16 <_svfprintf_r+0x11fa>
  404e0a:	f109 0908 	add.w	r9, r9, #8
  404e0e:	3d10      	subs	r5, #16
  404e10:	2d10      	cmp	r5, #16
  404e12:	f340 80b6 	ble.w	404f82 <_svfprintf_r+0x1366>
  404e16:	3301      	adds	r3, #1
  404e18:	3210      	adds	r2, #16
  404e1a:	2b07      	cmp	r3, #7
  404e1c:	9225      	str	r2, [sp, #148]	; 0x94
  404e1e:	9324      	str	r3, [sp, #144]	; 0x90
  404e20:	f8c9 a000 	str.w	sl, [r9]
  404e24:	f8c9 7004 	str.w	r7, [r9, #4]
  404e28:	ddef      	ble.n	404e0a <_svfprintf_r+0x11ee>
  404e2a:	aa23      	add	r2, sp, #140	; 0x8c
  404e2c:	4621      	mov	r1, r4
  404e2e:	4658      	mov	r0, fp
  404e30:	f003 fcf4 	bl	40881c <__ssprint_r>
  404e34:	2800      	cmp	r0, #0
  404e36:	f47e afea 	bne.w	403e0e <_svfprintf_r+0x1f2>
  404e3a:	9a25      	ldr	r2, [sp, #148]	; 0x94
  404e3c:	9b24      	ldr	r3, [sp, #144]	; 0x90
  404e3e:	f10d 09c0 	add.w	r9, sp, #192	; 0xc0
  404e42:	e7e4      	b.n	404e0e <_svfprintf_r+0x11f2>
  404e44:	9a07      	ldr	r2, [sp, #28]
  404e46:	f7ff ba38 	b.w	4042ba <_svfprintf_r+0x69e>
  404e4a:	9a07      	ldr	r2, [sp, #28]
  404e4c:	e590      	b.n	404970 <_svfprintf_r+0xd54>
  404e4e:	9b07      	ldr	r3, [sp, #28]
  404e50:	f043 0320 	orr.w	r3, r3, #32
  404e54:	9307      	str	r3, [sp, #28]
  404e56:	f108 0801 	add.w	r8, r8, #1
  404e5a:	f898 3000 	ldrb.w	r3, [r8]
  404e5e:	f7fe bf36 	b.w	403cce <_svfprintf_r+0xb2>
  404e62:	aa23      	add	r2, sp, #140	; 0x8c
  404e64:	9909      	ldr	r1, [sp, #36]	; 0x24
  404e66:	980a      	ldr	r0, [sp, #40]	; 0x28
  404e68:	f003 fcd8 	bl	40881c <__ssprint_r>
  404e6c:	2800      	cmp	r0, #0
  404e6e:	f47e afce 	bne.w	403e0e <_svfprintf_r+0x1f2>
  404e72:	9c25      	ldr	r4, [sp, #148]	; 0x94
  404e74:	f10d 09c0 	add.w	r9, sp, #192	; 0xc0
  404e78:	f7ff bbb6 	b.w	4045e8 <_svfprintf_r+0x9cc>
  404e7c:	2140      	movs	r1, #64	; 0x40
  404e7e:	980a      	ldr	r0, [sp, #40]	; 0x28
  404e80:	f7fe f91a 	bl	4030b8 <_malloc_r>
  404e84:	9a09      	ldr	r2, [sp, #36]	; 0x24
  404e86:	6010      	str	r0, [r2, #0]
  404e88:	6110      	str	r0, [r2, #16]
  404e8a:	2800      	cmp	r0, #0
  404e8c:	f000 81e5 	beq.w	40525a <_svfprintf_r+0x163e>
  404e90:	9a09      	ldr	r2, [sp, #36]	; 0x24
  404e92:	2340      	movs	r3, #64	; 0x40
  404e94:	6153      	str	r3, [r2, #20]
  404e96:	f7fe bed8 	b.w	403c4a <_svfprintf_r+0x2e>
  404e9a:	a821      	add	r0, sp, #132	; 0x84
  404e9c:	a91e      	add	r1, sp, #120	; 0x78
  404e9e:	9004      	str	r0, [sp, #16]
  404ea0:	9103      	str	r1, [sp, #12]
  404ea2:	a81d      	add	r0, sp, #116	; 0x74
  404ea4:	2103      	movs	r1, #3
  404ea6:	9002      	str	r0, [sp, #8]
  404ea8:	9a08      	ldr	r2, [sp, #32]
  404eaa:	f8cd b004 	str.w	fp, [sp, #4]
  404eae:	463b      	mov	r3, r7
  404eb0:	9100      	str	r1, [sp, #0]
  404eb2:	980a      	ldr	r0, [sp, #40]	; 0x28
  404eb4:	f001 fa78 	bl	4063a8 <_dtoa_r>
  404eb8:	465d      	mov	r5, fp
  404eba:	4606      	mov	r6, r0
  404ebc:	9b11      	ldr	r3, [sp, #68]	; 0x44
  404ebe:	2b46      	cmp	r3, #70	; 0x46
  404ec0:	eb06 0405 	add.w	r4, r6, r5
  404ec4:	f47f aeb6 	bne.w	404c34 <_svfprintf_r+0x1018>
  404ec8:	7833      	ldrb	r3, [r6, #0]
  404eca:	2b30      	cmp	r3, #48	; 0x30
  404ecc:	f000 817c 	beq.w	4051c8 <_svfprintf_r+0x15ac>
  404ed0:	9d1d      	ldr	r5, [sp, #116]	; 0x74
  404ed2:	442c      	add	r4, r5
  404ed4:	e6ae      	b.n	404c34 <_svfprintf_r+0x1018>
  404ed6:	aa23      	add	r2, sp, #140	; 0x8c
  404ed8:	9909      	ldr	r1, [sp, #36]	; 0x24
  404eda:	980a      	ldr	r0, [sp, #40]	; 0x28
  404edc:	f003 fc9e 	bl	40881c <__ssprint_r>
  404ee0:	2800      	cmp	r0, #0
  404ee2:	f47e af94 	bne.w	403e0e <_svfprintf_r+0x1f2>
  404ee6:	9d1d      	ldr	r5, [sp, #116]	; 0x74
  404ee8:	9c25      	ldr	r4, [sp, #148]	; 0x94
  404eea:	f10d 09c0 	add.w	r9, sp, #192	; 0xc0
  404eee:	e766      	b.n	404dbe <_svfprintf_r+0x11a2>
  404ef0:	f1bb 0f00 	cmp.w	fp, #0
  404ef4:	bf08      	it	eq
  404ef6:	f04f 0b01 	moveq.w	fp, #1
  404efa:	e667      	b.n	404bcc <_svfprintf_r+0xfb0>
  404efc:	970e      	str	r7, [sp, #56]	; 0x38
  404efe:	4617      	mov	r7, r2
  404f00:	e55e      	b.n	4049c0 <_svfprintf_r+0xda4>
  404f02:	4630      	mov	r0, r6
  404f04:	f7fe fe1c 	bl	403b40 <strlen>
  404f08:	46a3      	mov	fp, r4
  404f0a:	4603      	mov	r3, r0
  404f0c:	900d      	str	r0, [sp, #52]	; 0x34
  404f0e:	f7ff baf4 	b.w	4044fa <_svfprintf_r+0x8de>
  404f12:	aa23      	add	r2, sp, #140	; 0x8c
  404f14:	9909      	ldr	r1, [sp, #36]	; 0x24
  404f16:	980a      	ldr	r0, [sp, #40]	; 0x28
  404f18:	f003 fc80 	bl	40881c <__ssprint_r>
  404f1c:	2800      	cmp	r0, #0
  404f1e:	f47e af76 	bne.w	403e0e <_svfprintf_r+0x1f2>
  404f22:	9c25      	ldr	r4, [sp, #148]	; 0x94
  404f24:	9b24      	ldr	r3, [sp, #144]	; 0x90
  404f26:	f10d 09c0 	add.w	r9, sp, #192	; 0xc0
  404f2a:	9912      	ldr	r1, [sp, #72]	; 0x48
  404f2c:	f8c9 6000 	str.w	r6, [r9]
  404f30:	3301      	adds	r3, #1
  404f32:	440c      	add	r4, r1
  404f34:	2b07      	cmp	r3, #7
  404f36:	9425      	str	r4, [sp, #148]	; 0x94
  404f38:	9324      	str	r3, [sp, #144]	; 0x90
  404f3a:	f8c9 1004 	str.w	r1, [r9, #4]
  404f3e:	f77f a8fb 	ble.w	404138 <_svfprintf_r+0x51c>
  404f42:	e411      	b.n	404768 <_svfprintf_r+0xb4c>
  404f44:	272d      	movs	r7, #45	; 0x2d
  404f46:	9308      	str	r3, [sp, #32]
  404f48:	9b10      	ldr	r3, [sp, #64]	; 0x40
  404f4a:	9307      	str	r3, [sp, #28]
  404f4c:	f88d 706f 	strb.w	r7, [sp, #111]	; 0x6f
  404f50:	f04f 0b00 	mov.w	fp, #0
  404f54:	f7ff b829 	b.w	403faa <_svfprintf_r+0x38e>
  404f58:	9b1d      	ldr	r3, [sp, #116]	; 0x74
  404f5a:	1cdd      	adds	r5, r3, #3
  404f5c:	db1e      	blt.n	404f9c <_svfprintf_r+0x1380>
  404f5e:	459b      	cmp	fp, r3
  404f60:	db1c      	blt.n	404f9c <_svfprintf_r+0x1380>
  404f62:	9313      	str	r3, [sp, #76]	; 0x4c
  404f64:	e689      	b.n	404c7a <_svfprintf_r+0x105e>
  404f66:	4623      	mov	r3, r4
  404f68:	e677      	b.n	404c5a <_svfprintf_r+0x103e>
  404f6a:	aa23      	add	r2, sp, #140	; 0x8c
  404f6c:	9909      	ldr	r1, [sp, #36]	; 0x24
  404f6e:	980a      	ldr	r0, [sp, #40]	; 0x28
  404f70:	f003 fc54 	bl	40881c <__ssprint_r>
  404f74:	2800      	cmp	r0, #0
  404f76:	f47e af4a 	bne.w	403e0e <_svfprintf_r+0x1f2>
  404f7a:	9c25      	ldr	r4, [sp, #148]	; 0x94
  404f7c:	f10d 09c0 	add.w	r9, sp, #192	; 0xc0
  404f80:	e459      	b.n	404836 <_svfprintf_r+0xc1a>
  404f82:	4614      	mov	r4, r2
  404f84:	3301      	adds	r3, #1
  404f86:	9a0f      	ldr	r2, [sp, #60]	; 0x3c
  404f88:	9324      	str	r3, [sp, #144]	; 0x90
  404f8a:	442c      	add	r4, r5
  404f8c:	2b07      	cmp	r3, #7
  404f8e:	9425      	str	r4, [sp, #148]	; 0x94
  404f90:	e889 0024 	stmia.w	r9, {r2, r5}
  404f94:	dcbd      	bgt.n	404f12 <_svfprintf_r+0x12f6>
  404f96:	f109 0908 	add.w	r9, r9, #8
  404f9a:	e7c6      	b.n	404f2a <_svfprintf_r+0x130e>
  404f9c:	9a11      	ldr	r2, [sp, #68]	; 0x44
  404f9e:	3a02      	subs	r2, #2
  404fa0:	9211      	str	r2, [sp, #68]	; 0x44
  404fa2:	3b01      	subs	r3, #1
  404fa4:	2b00      	cmp	r3, #0
  404fa6:	f89d 2044 	ldrb.w	r2, [sp, #68]	; 0x44
  404faa:	931d      	str	r3, [sp, #116]	; 0x74
  404fac:	bfb8      	it	lt
  404fae:	425b      	neglt	r3, r3
  404fb0:	f88d 207c 	strb.w	r2, [sp, #124]	; 0x7c
  404fb4:	bfb4      	ite	lt
  404fb6:	222d      	movlt	r2, #45	; 0x2d
  404fb8:	222b      	movge	r2, #43	; 0x2b
  404fba:	2b09      	cmp	r3, #9
  404fbc:	f88d 207d 	strb.w	r2, [sp, #125]	; 0x7d
  404fc0:	f340 80f1 	ble.w	4051a6 <_svfprintf_r+0x158a>
  404fc4:	f10d 008b 	add.w	r0, sp, #139	; 0x8b
  404fc8:	4604      	mov	r4, r0
  404fca:	4a2d      	ldr	r2, [pc, #180]	; (405080 <_svfprintf_r+0x1464>)
  404fcc:	fb82 2103 	smull	r2, r1, r2, r3
  404fd0:	17da      	asrs	r2, r3, #31
  404fd2:	ebc2 02a1 	rsb	r2, r2, r1, asr #2
  404fd6:	eb02 0182 	add.w	r1, r2, r2, lsl #2
  404fda:	eba3 0341 	sub.w	r3, r3, r1, lsl #1
  404fde:	f103 0130 	add.w	r1, r3, #48	; 0x30
  404fe2:	2a09      	cmp	r2, #9
  404fe4:	4613      	mov	r3, r2
  404fe6:	f804 1d01 	strb.w	r1, [r4, #-1]!
  404fea:	dcee      	bgt.n	404fca <_svfprintf_r+0x13ae>
  404fec:	4621      	mov	r1, r4
  404fee:	3330      	adds	r3, #48	; 0x30
  404ff0:	b2da      	uxtb	r2, r3
  404ff2:	f801 2d01 	strb.w	r2, [r1, #-1]!
  404ff6:	4288      	cmp	r0, r1
  404ff8:	f240 813a 	bls.w	405270 <_svfprintf_r+0x1654>
  404ffc:	f10d 017e 	add.w	r1, sp, #126	; 0x7e
  405000:	4623      	mov	r3, r4
  405002:	e001      	b.n	405008 <_svfprintf_r+0x13ec>
  405004:	f813 2b01 	ldrb.w	r2, [r3], #1
  405008:	f801 2b01 	strb.w	r2, [r1], #1
  40500c:	4298      	cmp	r0, r3
  40500e:	d1f9      	bne.n	405004 <_svfprintf_r+0x13e8>
  405010:	1c43      	adds	r3, r0, #1
  405012:	1b1b      	subs	r3, r3, r4
  405014:	f10d 027e 	add.w	r2, sp, #126	; 0x7e
  405018:	4413      	add	r3, r2
  40501a:	aa1f      	add	r2, sp, #124	; 0x7c
  40501c:	1a9b      	subs	r3, r3, r2
  40501e:	9a12      	ldr	r2, [sp, #72]	; 0x48
  405020:	9319      	str	r3, [sp, #100]	; 0x64
  405022:	2a01      	cmp	r2, #1
  405024:	4413      	add	r3, r2
  405026:	930d      	str	r3, [sp, #52]	; 0x34
  405028:	f340 80ea 	ble.w	405200 <_svfprintf_r+0x15e4>
  40502c:	9b0d      	ldr	r3, [sp, #52]	; 0x34
  40502e:	9a16      	ldr	r2, [sp, #88]	; 0x58
  405030:	4413      	add	r3, r2
  405032:	2200      	movs	r2, #0
  405034:	930d      	str	r3, [sp, #52]	; 0x34
  405036:	9213      	str	r2, [sp, #76]	; 0x4c
  405038:	ea23 73e3 	bic.w	r3, r3, r3, asr #31
  40503c:	e62b      	b.n	404c96 <_svfprintf_r+0x107a>
  40503e:	aa23      	add	r2, sp, #140	; 0x8c
  405040:	9909      	ldr	r1, [sp, #36]	; 0x24
  405042:	980a      	ldr	r0, [sp, #40]	; 0x28
  405044:	f003 fbea 	bl	40881c <__ssprint_r>
  405048:	2800      	cmp	r0, #0
  40504a:	f47e aee0 	bne.w	403e0e <_svfprintf_r+0x1f2>
  40504e:	9b1d      	ldr	r3, [sp, #116]	; 0x74
  405050:	9c25      	ldr	r4, [sp, #148]	; 0x94
  405052:	f10d 09c0 	add.w	r9, sp, #192	; 0xc0
  405056:	e4f6      	b.n	404a46 <_svfprintf_r+0xe2a>
  405058:	2d06      	cmp	r5, #6
  40505a:	462b      	mov	r3, r5
  40505c:	bf28      	it	cs
  40505e:	2306      	movcs	r3, #6
  405060:	930d      	str	r3, [sp, #52]	; 0x34
  405062:	ea23 73e3 	bic.w	r3, r3, r3, asr #31
  405066:	46b3      	mov	fp, r6
  405068:	970e      	str	r7, [sp, #56]	; 0x38
  40506a:	9613      	str	r6, [sp, #76]	; 0x4c
  40506c:	4637      	mov	r7, r6
  40506e:	9308      	str	r3, [sp, #32]
  405070:	4e04      	ldr	r6, [pc, #16]	; (405084 <_svfprintf_r+0x1468>)
  405072:	f7fe bf99 	b.w	403fa8 <_svfprintf_r+0x38c>
  405076:	bf00      	nop
  405078:	00409a6c 	.word	0x00409a6c
  40507c:	00409a1c 	.word	0x00409a1c
  405080:	66666667 	.word	0x66666667
  405084:	00409a64 	.word	0x00409a64
  405088:	aa23      	add	r2, sp, #140	; 0x8c
  40508a:	9909      	ldr	r1, [sp, #36]	; 0x24
  40508c:	980a      	ldr	r0, [sp, #40]	; 0x28
  40508e:	f003 fbc5 	bl	40881c <__ssprint_r>
  405092:	2800      	cmp	r0, #0
  405094:	f47e aebb 	bne.w	403e0e <_svfprintf_r+0x1f2>
  405098:	9b1d      	ldr	r3, [sp, #116]	; 0x74
  40509a:	9a12      	ldr	r2, [sp, #72]	; 0x48
  40509c:	9c25      	ldr	r4, [sp, #148]	; 0x94
  40509e:	1ad3      	subs	r3, r2, r3
  4050a0:	f10d 09c0 	add.w	r9, sp, #192	; 0xc0
  4050a4:	e4e7      	b.n	404a76 <_svfprintf_r+0xe5a>
  4050a6:	f04f 0b06 	mov.w	fp, #6
  4050aa:	e58f      	b.n	404bcc <_svfprintf_r+0xfb0>
  4050ac:	a821      	add	r0, sp, #132	; 0x84
  4050ae:	a91e      	add	r1, sp, #120	; 0x78
  4050b0:	9004      	str	r0, [sp, #16]
  4050b2:	9103      	str	r1, [sp, #12]
  4050b4:	a81d      	add	r0, sp, #116	; 0x74
  4050b6:	2103      	movs	r1, #3
  4050b8:	9002      	str	r0, [sp, #8]
  4050ba:	9a08      	ldr	r2, [sp, #32]
  4050bc:	f8cd b004 	str.w	fp, [sp, #4]
  4050c0:	463b      	mov	r3, r7
  4050c2:	9100      	str	r1, [sp, #0]
  4050c4:	980a      	ldr	r0, [sp, #40]	; 0x28
  4050c6:	f001 f96f 	bl	4063a8 <_dtoa_r>
  4050ca:	465d      	mov	r5, fp
  4050cc:	4606      	mov	r6, r0
  4050ce:	eb00 040b 	add.w	r4, r0, fp
  4050d2:	e6f9      	b.n	404ec8 <_svfprintf_r+0x12ac>
  4050d4:	9307      	str	r3, [sp, #28]
  4050d6:	f7ff b959 	b.w	40438c <_svfprintf_r+0x770>
  4050da:	272d      	movs	r7, #45	; 0x2d
  4050dc:	f88d 706f 	strb.w	r7, [sp, #111]	; 0x6f
  4050e0:	f7ff b8b2 	b.w	404248 <_svfprintf_r+0x62c>
  4050e4:	9a16      	ldr	r2, [sp, #88]	; 0x58
  4050e6:	9b12      	ldr	r3, [sp, #72]	; 0x48
  4050e8:	4413      	add	r3, r2
  4050ea:	9a13      	ldr	r2, [sp, #76]	; 0x4c
  4050ec:	930d      	str	r3, [sp, #52]	; 0x34
  4050ee:	2a00      	cmp	r2, #0
  4050f0:	dd7e      	ble.n	4051f0 <_svfprintf_r+0x15d4>
  4050f2:	2267      	movs	r2, #103	; 0x67
  4050f4:	ea23 73e3 	bic.w	r3, r3, r3, asr #31
  4050f8:	9211      	str	r2, [sp, #68]	; 0x44
  4050fa:	e5cc      	b.n	404c96 <_svfprintf_r+0x107a>
  4050fc:	ea25 73e5 	bic.w	r3, r5, r5, asr #31
  405100:	970e      	str	r7, [sp, #56]	; 0x38
  405102:	9308      	str	r3, [sp, #32]
  405104:	950d      	str	r5, [sp, #52]	; 0x34
  405106:	4683      	mov	fp, r0
  405108:	9013      	str	r0, [sp, #76]	; 0x4c
  40510a:	f89d 706f 	ldrb.w	r7, [sp, #111]	; 0x6f
  40510e:	f7fe bf4b 	b.w	403fa8 <_svfprintf_r+0x38c>
  405112:	9b07      	ldr	r3, [sp, #28]
  405114:	07db      	lsls	r3, r3, #31
  405116:	465f      	mov	r7, fp
  405118:	d505      	bpl.n	405126 <_svfprintf_r+0x150a>
  40511a:	ae40      	add	r6, sp, #256	; 0x100
  40511c:	2330      	movs	r3, #48	; 0x30
  40511e:	f806 3d41 	strb.w	r3, [r6, #-65]!
  405122:	f7fe bf37 	b.w	403f94 <_svfprintf_r+0x378>
  405126:	f8cd b034 	str.w	fp, [sp, #52]	; 0x34
  40512a:	ae30      	add	r6, sp, #192	; 0xc0
  40512c:	f7fe bf35 	b.w	403f9a <_svfprintf_r+0x37e>
  405130:	2b00      	cmp	r3, #0
  405132:	dd7d      	ble.n	405230 <_svfprintf_r+0x1614>
  405134:	f1bb 0f00 	cmp.w	fp, #0
  405138:	d13d      	bne.n	4051b6 <_svfprintf_r+0x159a>
  40513a:	9a07      	ldr	r2, [sp, #28]
  40513c:	07d4      	lsls	r4, r2, #31
  40513e:	d43a      	bmi.n	4051b6 <_svfprintf_r+0x159a>
  405140:	461a      	mov	r2, r3
  405142:	920d      	str	r2, [sp, #52]	; 0x34
  405144:	ea23 73e3 	bic.w	r3, r3, r3, asr #31
  405148:	e5a5      	b.n	404c96 <_svfprintf_r+0x107a>
  40514a:	9b11      	ldr	r3, [sp, #68]	; 0x44
  40514c:	2b47      	cmp	r3, #71	; 0x47
  40514e:	f47f ad70 	bne.w	404c32 <_svfprintf_r+0x1016>
  405152:	9b07      	ldr	r3, [sp, #28]
  405154:	07db      	lsls	r3, r3, #31
  405156:	f53f aeb1 	bmi.w	404ebc <_svfprintf_r+0x12a0>
  40515a:	9b21      	ldr	r3, [sp, #132]	; 0x84
  40515c:	1b9b      	subs	r3, r3, r6
  40515e:	9312      	str	r3, [sp, #72]	; 0x48
  405160:	9b0d      	ldr	r3, [sp, #52]	; 0x34
  405162:	2b47      	cmp	r3, #71	; 0x47
  405164:	f43f aef8 	beq.w	404f58 <_svfprintf_r+0x133c>
  405168:	9b1d      	ldr	r3, [sp, #116]	; 0x74
  40516a:	e71a      	b.n	404fa2 <_svfprintf_r+0x1386>
  40516c:	aa23      	add	r2, sp, #140	; 0x8c
  40516e:	9909      	ldr	r1, [sp, #36]	; 0x24
  405170:	980a      	ldr	r0, [sp, #40]	; 0x28
  405172:	f003 fb53 	bl	40881c <__ssprint_r>
  405176:	2800      	cmp	r0, #0
  405178:	f47e ae49 	bne.w	403e0e <_svfprintf_r+0x1f2>
  40517c:	9d1d      	ldr	r5, [sp, #116]	; 0x74
  40517e:	9c25      	ldr	r4, [sp, #148]	; 0x94
  405180:	9b24      	ldr	r3, [sp, #144]	; 0x90
  405182:	f10d 09c0 	add.w	r9, sp, #192	; 0xc0
  405186:	e631      	b.n	404dec <_svfprintf_r+0x11d0>
  405188:	46a0      	mov	r8, r4
  40518a:	2500      	movs	r5, #0
  40518c:	f7fe bda1 	b.w	403cd2 <_svfprintf_r+0xb6>
  405190:	9b21      	ldr	r3, [sp, #132]	; 0x84
  405192:	e562      	b.n	404c5a <_svfprintf_r+0x103e>
  405194:	9a16      	ldr	r2, [sp, #88]	; 0x58
  405196:	9b13      	ldr	r3, [sp, #76]	; 0x4c
  405198:	4413      	add	r3, r2
  40519a:	2267      	movs	r2, #103	; 0x67
  40519c:	930d      	str	r3, [sp, #52]	; 0x34
  40519e:	9211      	str	r2, [sp, #68]	; 0x44
  4051a0:	ea23 73e3 	bic.w	r3, r3, r3, asr #31
  4051a4:	e577      	b.n	404c96 <_svfprintf_r+0x107a>
  4051a6:	3330      	adds	r3, #48	; 0x30
  4051a8:	2230      	movs	r2, #48	; 0x30
  4051aa:	f88d 307f 	strb.w	r3, [sp, #127]	; 0x7f
  4051ae:	f88d 207e 	strb.w	r2, [sp, #126]	; 0x7e
  4051b2:	ab20      	add	r3, sp, #128	; 0x80
  4051b4:	e731      	b.n	40501a <_svfprintf_r+0x13fe>
  4051b6:	9b13      	ldr	r3, [sp, #76]	; 0x4c
  4051b8:	9a16      	ldr	r2, [sp, #88]	; 0x58
  4051ba:	189d      	adds	r5, r3, r2
  4051bc:	eb05 030b 	add.w	r3, r5, fp
  4051c0:	930d      	str	r3, [sp, #52]	; 0x34
  4051c2:	ea23 73e3 	bic.w	r3, r3, r3, asr #31
  4051c6:	e566      	b.n	404c96 <_svfprintf_r+0x107a>
  4051c8:	9808      	ldr	r0, [sp, #32]
  4051ca:	4639      	mov	r1, r7
  4051cc:	2200      	movs	r2, #0
  4051ce:	2300      	movs	r3, #0
  4051d0:	f004 f990 	bl	4094f4 <__aeabi_dcmpeq>
  4051d4:	2800      	cmp	r0, #0
  4051d6:	f47f ae7b 	bne.w	404ed0 <_svfprintf_r+0x12b4>
  4051da:	f1c5 0501 	rsb	r5, r5, #1
  4051de:	951d      	str	r5, [sp, #116]	; 0x74
  4051e0:	442c      	add	r4, r5
  4051e2:	e527      	b.n	404c34 <_svfprintf_r+0x1018>
  4051e4:	4e32      	ldr	r6, [pc, #200]	; (4052b0 <_svfprintf_r+0x1694>)
  4051e6:	4b33      	ldr	r3, [pc, #204]	; (4052b4 <_svfprintf_r+0x1698>)
  4051e8:	f89d 706f 	ldrb.w	r7, [sp, #111]	; 0x6f
  4051ec:	f7ff b82e 	b.w	40424c <_svfprintf_r+0x630>
  4051f0:	9b13      	ldr	r3, [sp, #76]	; 0x4c
  4051f2:	9a0d      	ldr	r2, [sp, #52]	; 0x34
  4051f4:	f1c3 0301 	rsb	r3, r3, #1
  4051f8:	441a      	add	r2, r3
  4051fa:	4613      	mov	r3, r2
  4051fc:	920d      	str	r2, [sp, #52]	; 0x34
  4051fe:	e778      	b.n	4050f2 <_svfprintf_r+0x14d6>
  405200:	9b07      	ldr	r3, [sp, #28]
  405202:	f013 0301 	ands.w	r3, r3, #1
  405206:	f47f af11 	bne.w	40502c <_svfprintf_r+0x1410>
  40520a:	9313      	str	r3, [sp, #76]	; 0x4c
  40520c:	9b0d      	ldr	r3, [sp, #52]	; 0x34
  40520e:	ea23 73e3 	bic.w	r3, r3, r3, asr #31
  405212:	e540      	b.n	404c96 <_svfprintf_r+0x107a>
  405214:	980e      	ldr	r0, [sp, #56]	; 0x38
  405216:	f898 3001 	ldrb.w	r3, [r8, #1]
  40521a:	6805      	ldr	r5, [r0, #0]
  40521c:	3004      	adds	r0, #4
  40521e:	2d00      	cmp	r5, #0
  405220:	900e      	str	r0, [sp, #56]	; 0x38
  405222:	46a0      	mov	r8, r4
  405224:	f6be ad53 	bge.w	403cce <_svfprintf_r+0xb2>
  405228:	f04f 35ff 	mov.w	r5, #4294967295
  40522c:	f7fe bd4f 	b.w	403cce <_svfprintf_r+0xb2>
  405230:	f1bb 0f00 	cmp.w	fp, #0
  405234:	d102      	bne.n	40523c <_svfprintf_r+0x1620>
  405236:	9b07      	ldr	r3, [sp, #28]
  405238:	07d8      	lsls	r0, r3, #31
  40523a:	d507      	bpl.n	40524c <_svfprintf_r+0x1630>
  40523c:	9b16      	ldr	r3, [sp, #88]	; 0x58
  40523e:	1c5d      	adds	r5, r3, #1
  405240:	eb05 030b 	add.w	r3, r5, fp
  405244:	930d      	str	r3, [sp, #52]	; 0x34
  405246:	ea23 73e3 	bic.w	r3, r3, r3, asr #31
  40524a:	e524      	b.n	404c96 <_svfprintf_r+0x107a>
  40524c:	2301      	movs	r3, #1
  40524e:	930d      	str	r3, [sp, #52]	; 0x34
  405250:	e521      	b.n	404c96 <_svfprintf_r+0x107a>
  405252:	f88d 106f 	strb.w	r1, [sp, #111]	; 0x6f
  405256:	f7ff b921 	b.w	40449c <_svfprintf_r+0x880>
  40525a:	9a0a      	ldr	r2, [sp, #40]	; 0x28
  40525c:	230c      	movs	r3, #12
  40525e:	6013      	str	r3, [r2, #0]
  405260:	f04f 30ff 	mov.w	r0, #4294967295
  405264:	f7fe bddc 	b.w	403e20 <_svfprintf_r+0x204>
  405268:	f88d 106f 	strb.w	r1, [sp, #111]	; 0x6f
  40526c:	f7ff b8f9 	b.w	404462 <_svfprintf_r+0x846>
  405270:	f10d 037e 	add.w	r3, sp, #126	; 0x7e
  405274:	e6d1      	b.n	40501a <_svfprintf_r+0x13fe>
  405276:	f88d 106f 	strb.w	r1, [sp, #111]	; 0x6f
  40527a:	f7fe bdd9 	b.w	403e30 <_svfprintf_r+0x214>
  40527e:	f88d 106f 	strb.w	r1, [sp, #111]	; 0x6f
  405282:	f7ff b857 	b.w	404334 <_svfprintf_r+0x718>
  405286:	f88d 106f 	strb.w	r1, [sp, #111]	; 0x6f
  40528a:	f7ff b825 	b.w	4042d8 <_svfprintf_r+0x6bc>
  40528e:	f88d 106f 	strb.w	r1, [sp, #111]	; 0x6f
  405292:	f7ff b94c 	b.w	40452e <_svfprintf_r+0x912>
  405296:	f88d 106f 	strb.w	r1, [sp, #111]	; 0x6f
  40529a:	f7fe bff3 	b.w	404284 <_svfprintf_r+0x668>
  40529e:	f88d 106f 	strb.w	r1, [sp, #111]	; 0x6f
  4052a2:	f7fe bfa3 	b.w	4041ec <_svfprintf_r+0x5d0>
  4052a6:	f88d 106f 	strb.w	r1, [sp, #111]	; 0x6f
  4052aa:	f7fe be33 	b.w	403f14 <_svfprintf_r+0x2f8>
  4052ae:	bf00      	nop
  4052b0:	00409a38 	.word	0x00409a38
  4052b4:	00409a34 	.word	0x00409a34

004052b8 <__sprint_r.part.0>:
  4052b8:	6e4b      	ldr	r3, [r1, #100]	; 0x64
  4052ba:	e92d 47f0 	stmdb	sp!, {r4, r5, r6, r7, r8, r9, sl, lr}
  4052be:	049c      	lsls	r4, r3, #18
  4052c0:	4692      	mov	sl, r2
  4052c2:	d52c      	bpl.n	40531e <__sprint_r.part.0+0x66>
  4052c4:	6893      	ldr	r3, [r2, #8]
  4052c6:	6812      	ldr	r2, [r2, #0]
  4052c8:	b33b      	cbz	r3, 40531a <__sprint_r.part.0+0x62>
  4052ca:	460f      	mov	r7, r1
  4052cc:	4680      	mov	r8, r0
  4052ce:	f102 0908 	add.w	r9, r2, #8
  4052d2:	e919 0060 	ldmdb	r9, {r5, r6}
  4052d6:	08b6      	lsrs	r6, r6, #2
  4052d8:	d017      	beq.n	40530a <__sprint_r.part.0+0x52>
  4052da:	3d04      	subs	r5, #4
  4052dc:	2400      	movs	r4, #0
  4052de:	e001      	b.n	4052e4 <__sprint_r.part.0+0x2c>
  4052e0:	42a6      	cmp	r6, r4
  4052e2:	d010      	beq.n	405306 <__sprint_r.part.0+0x4e>
  4052e4:	463a      	mov	r2, r7
  4052e6:	f855 1f04 	ldr.w	r1, [r5, #4]!
  4052ea:	4640      	mov	r0, r8
  4052ec:	f002 f92a 	bl	407544 <_fputwc_r>
  4052f0:	1c43      	adds	r3, r0, #1
  4052f2:	f104 0401 	add.w	r4, r4, #1
  4052f6:	d1f3      	bne.n	4052e0 <__sprint_r.part.0+0x28>
  4052f8:	2300      	movs	r3, #0
  4052fa:	f8ca 3008 	str.w	r3, [sl, #8]
  4052fe:	f8ca 3004 	str.w	r3, [sl, #4]
  405302:	e8bd 87f0 	ldmia.w	sp!, {r4, r5, r6, r7, r8, r9, sl, pc}
  405306:	f8da 3008 	ldr.w	r3, [sl, #8]
  40530a:	eba3 0386 	sub.w	r3, r3, r6, lsl #2
  40530e:	f8ca 3008 	str.w	r3, [sl, #8]
  405312:	f109 0908 	add.w	r9, r9, #8
  405316:	2b00      	cmp	r3, #0
  405318:	d1db      	bne.n	4052d2 <__sprint_r.part.0+0x1a>
  40531a:	2000      	movs	r0, #0
  40531c:	e7ec      	b.n	4052f8 <__sprint_r.part.0+0x40>
  40531e:	f002 fa59 	bl	4077d4 <__sfvwrite_r>
  405322:	2300      	movs	r3, #0
  405324:	f8ca 3008 	str.w	r3, [sl, #8]
  405328:	f8ca 3004 	str.w	r3, [sl, #4]
  40532c:	e8bd 87f0 	ldmia.w	sp!, {r4, r5, r6, r7, r8, r9, sl, pc}

00405330 <_vfiprintf_r>:
  405330:	e92d 4ff0 	stmdb	sp!, {r4, r5, r6, r7, r8, r9, sl, fp, lr}
  405334:	b0ab      	sub	sp, #172	; 0xac
  405336:	461c      	mov	r4, r3
  405338:	9100      	str	r1, [sp, #0]
  40533a:	4690      	mov	r8, r2
  40533c:	9304      	str	r3, [sp, #16]
  40533e:	9005      	str	r0, [sp, #20]
  405340:	b118      	cbz	r0, 40534a <_vfiprintf_r+0x1a>
  405342:	6b83      	ldr	r3, [r0, #56]	; 0x38
  405344:	2b00      	cmp	r3, #0
  405346:	f000 80de 	beq.w	405506 <_vfiprintf_r+0x1d6>
  40534a:	9800      	ldr	r0, [sp, #0]
  40534c:	f9b0 100c 	ldrsh.w	r1, [r0, #12]
  405350:	b28a      	uxth	r2, r1
  405352:	0495      	lsls	r5, r2, #18
  405354:	d407      	bmi.n	405366 <_vfiprintf_r+0x36>
  405356:	6e43      	ldr	r3, [r0, #100]	; 0x64
  405358:	f441 5200 	orr.w	r2, r1, #8192	; 0x2000
  40535c:	f423 5300 	bic.w	r3, r3, #8192	; 0x2000
  405360:	8182      	strh	r2, [r0, #12]
  405362:	6643      	str	r3, [r0, #100]	; 0x64
  405364:	b292      	uxth	r2, r2
  405366:	0711      	lsls	r1, r2, #28
  405368:	f140 80b1 	bpl.w	4054ce <_vfiprintf_r+0x19e>
  40536c:	9b00      	ldr	r3, [sp, #0]
  40536e:	691b      	ldr	r3, [r3, #16]
  405370:	2b00      	cmp	r3, #0
  405372:	f000 80ac 	beq.w	4054ce <_vfiprintf_r+0x19e>
  405376:	f002 021a 	and.w	r2, r2, #26
  40537a:	2a0a      	cmp	r2, #10
  40537c:	f000 80b5 	beq.w	4054ea <_vfiprintf_r+0x1ba>
  405380:	2300      	movs	r3, #0
  405382:	f10d 0b68 	add.w	fp, sp, #104	; 0x68
  405386:	9302      	str	r3, [sp, #8]
  405388:	930f      	str	r3, [sp, #60]	; 0x3c
  40538a:	930e      	str	r3, [sp, #56]	; 0x38
  40538c:	f8cd b034 	str.w	fp, [sp, #52]	; 0x34
  405390:	46da      	mov	sl, fp
  405392:	f898 3000 	ldrb.w	r3, [r8]
  405396:	4644      	mov	r4, r8
  405398:	b1fb      	cbz	r3, 4053da <_vfiprintf_r+0xaa>
  40539a:	2b25      	cmp	r3, #37	; 0x25
  40539c:	d102      	bne.n	4053a4 <_vfiprintf_r+0x74>
  40539e:	e01c      	b.n	4053da <_vfiprintf_r+0xaa>
  4053a0:	2b25      	cmp	r3, #37	; 0x25
  4053a2:	d003      	beq.n	4053ac <_vfiprintf_r+0x7c>
  4053a4:	f814 3f01 	ldrb.w	r3, [r4, #1]!
  4053a8:	2b00      	cmp	r3, #0
  4053aa:	d1f9      	bne.n	4053a0 <_vfiprintf_r+0x70>
  4053ac:	ebc8 0504 	rsb	r5, r8, r4
  4053b0:	b19d      	cbz	r5, 4053da <_vfiprintf_r+0xaa>
  4053b2:	9b0e      	ldr	r3, [sp, #56]	; 0x38
  4053b4:	9a0f      	ldr	r2, [sp, #60]	; 0x3c
  4053b6:	f8ca 8000 	str.w	r8, [sl]
  4053ba:	3301      	adds	r3, #1
  4053bc:	442a      	add	r2, r5
  4053be:	2b07      	cmp	r3, #7
  4053c0:	f8ca 5004 	str.w	r5, [sl, #4]
  4053c4:	920f      	str	r2, [sp, #60]	; 0x3c
  4053c6:	930e      	str	r3, [sp, #56]	; 0x38
  4053c8:	dd7b      	ble.n	4054c2 <_vfiprintf_r+0x192>
  4053ca:	2a00      	cmp	r2, #0
  4053cc:	f040 8528 	bne.w	405e20 <_vfiprintf_r+0xaf0>
  4053d0:	9b02      	ldr	r3, [sp, #8]
  4053d2:	920e      	str	r2, [sp, #56]	; 0x38
  4053d4:	442b      	add	r3, r5
  4053d6:	46da      	mov	sl, fp
  4053d8:	9302      	str	r3, [sp, #8]
  4053da:	7823      	ldrb	r3, [r4, #0]
  4053dc:	2b00      	cmp	r3, #0
  4053de:	f000 843e 	beq.w	405c5e <_vfiprintf_r+0x92e>
  4053e2:	2100      	movs	r1, #0
  4053e4:	f04f 0300 	mov.w	r3, #0
  4053e8:	f04f 32ff 	mov.w	r2, #4294967295
  4053ec:	f88d 302f 	strb.w	r3, [sp, #47]	; 0x2f
  4053f0:	f104 0801 	add.w	r8, r4, #1
  4053f4:	7863      	ldrb	r3, [r4, #1]
  4053f6:	9201      	str	r2, [sp, #4]
  4053f8:	4608      	mov	r0, r1
  4053fa:	460e      	mov	r6, r1
  4053fc:	460c      	mov	r4, r1
  4053fe:	f108 0801 	add.w	r8, r8, #1
  405402:	f1a3 0220 	sub.w	r2, r3, #32
  405406:	2a58      	cmp	r2, #88	; 0x58
  405408:	f200 8393 	bhi.w	405b32 <_vfiprintf_r+0x802>
  40540c:	e8df f012 	tbh	[pc, r2, lsl #1]
  405410:	03910346 	.word	0x03910346
  405414:	034e0391 	.word	0x034e0391
  405418:	03910391 	.word	0x03910391
  40541c:	03910391 	.word	0x03910391
  405420:	03910391 	.word	0x03910391
  405424:	02670289 	.word	0x02670289
  405428:	00800391 	.word	0x00800391
  40542c:	0391026c 	.word	0x0391026c
  405430:	025901c6 	.word	0x025901c6
  405434:	02590259 	.word	0x02590259
  405438:	02590259 	.word	0x02590259
  40543c:	02590259 	.word	0x02590259
  405440:	02590259 	.word	0x02590259
  405444:	03910391 	.word	0x03910391
  405448:	03910391 	.word	0x03910391
  40544c:	03910391 	.word	0x03910391
  405450:	03910391 	.word	0x03910391
  405454:	03910391 	.word	0x03910391
  405458:	039101cb 	.word	0x039101cb
  40545c:	03910391 	.word	0x03910391
  405460:	03910391 	.word	0x03910391
  405464:	03910391 	.word	0x03910391
  405468:	03910391 	.word	0x03910391
  40546c:	02140391 	.word	0x02140391
  405470:	03910391 	.word	0x03910391
  405474:	03910391 	.word	0x03910391
  405478:	02ee0391 	.word	0x02ee0391
  40547c:	03910391 	.word	0x03910391
  405480:	03910311 	.word	0x03910311
  405484:	03910391 	.word	0x03910391
  405488:	03910391 	.word	0x03910391
  40548c:	03910391 	.word	0x03910391
  405490:	03910391 	.word	0x03910391
  405494:	03340391 	.word	0x03340391
  405498:	0391038a 	.word	0x0391038a
  40549c:	03910391 	.word	0x03910391
  4054a0:	038a0367 	.word	0x038a0367
  4054a4:	03910391 	.word	0x03910391
  4054a8:	0391036c 	.word	0x0391036c
  4054ac:	02950379 	.word	0x02950379
  4054b0:	02e90085 	.word	0x02e90085
  4054b4:	029b0391 	.word	0x029b0391
  4054b8:	02ba0391 	.word	0x02ba0391
  4054bc:	03910391 	.word	0x03910391
  4054c0:	0353      	.short	0x0353
  4054c2:	f10a 0a08 	add.w	sl, sl, #8
  4054c6:	9b02      	ldr	r3, [sp, #8]
  4054c8:	442b      	add	r3, r5
  4054ca:	9302      	str	r3, [sp, #8]
  4054cc:	e785      	b.n	4053da <_vfiprintf_r+0xaa>
  4054ce:	9900      	ldr	r1, [sp, #0]
  4054d0:	9805      	ldr	r0, [sp, #20]
  4054d2:	f000 fe61 	bl	406198 <__swsetup_r>
  4054d6:	2800      	cmp	r0, #0
  4054d8:	f040 8558 	bne.w	405f8c <_vfiprintf_r+0xc5c>
  4054dc:	9b00      	ldr	r3, [sp, #0]
  4054de:	899a      	ldrh	r2, [r3, #12]
  4054e0:	f002 021a 	and.w	r2, r2, #26
  4054e4:	2a0a      	cmp	r2, #10
  4054e6:	f47f af4b 	bne.w	405380 <_vfiprintf_r+0x50>
  4054ea:	9900      	ldr	r1, [sp, #0]
  4054ec:	f9b1 300e 	ldrsh.w	r3, [r1, #14]
  4054f0:	2b00      	cmp	r3, #0
  4054f2:	f6ff af45 	blt.w	405380 <_vfiprintf_r+0x50>
  4054f6:	4623      	mov	r3, r4
  4054f8:	4642      	mov	r2, r8
  4054fa:	9805      	ldr	r0, [sp, #20]
  4054fc:	f000 fe16 	bl	40612c <__sbprintf>
  405500:	b02b      	add	sp, #172	; 0xac
  405502:	e8bd 8ff0 	ldmia.w	sp!, {r4, r5, r6, r7, r8, r9, sl, fp, pc}
  405506:	f001 ffb3 	bl	407470 <__sinit>
  40550a:	e71e      	b.n	40534a <_vfiprintf_r+0x1a>
  40550c:	4264      	negs	r4, r4
  40550e:	9304      	str	r3, [sp, #16]
  405510:	f046 0604 	orr.w	r6, r6, #4
  405514:	f898 3000 	ldrb.w	r3, [r8]
  405518:	e771      	b.n	4053fe <_vfiprintf_r+0xce>
  40551a:	2130      	movs	r1, #48	; 0x30
  40551c:	9804      	ldr	r0, [sp, #16]
  40551e:	f88d 1030 	strb.w	r1, [sp, #48]	; 0x30
  405522:	9901      	ldr	r1, [sp, #4]
  405524:	9406      	str	r4, [sp, #24]
  405526:	f04f 0300 	mov.w	r3, #0
  40552a:	2278      	movs	r2, #120	; 0x78
  40552c:	f88d 302f 	strb.w	r3, [sp, #47]	; 0x2f
  405530:	2900      	cmp	r1, #0
  405532:	4603      	mov	r3, r0
  405534:	f88d 2031 	strb.w	r2, [sp, #49]	; 0x31
  405538:	6804      	ldr	r4, [r0, #0]
  40553a:	f103 0304 	add.w	r3, r3, #4
  40553e:	f04f 0500 	mov.w	r5, #0
  405542:	f046 0202 	orr.w	r2, r6, #2
  405546:	f2c0 8525 	blt.w	405f94 <_vfiprintf_r+0xc64>
  40554a:	f026 0680 	bic.w	r6, r6, #128	; 0x80
  40554e:	ea54 0205 	orrs.w	r2, r4, r5
  405552:	f046 0602 	orr.w	r6, r6, #2
  405556:	9304      	str	r3, [sp, #16]
  405558:	f040 84bf 	bne.w	405eda <_vfiprintf_r+0xbaa>
  40555c:	48b3      	ldr	r0, [pc, #716]	; (40582c <_vfiprintf_r+0x4fc>)
  40555e:	9b01      	ldr	r3, [sp, #4]
  405560:	2b00      	cmp	r3, #0
  405562:	f040 841c 	bne.w	405d9e <_vfiprintf_r+0xa6e>
  405566:	4699      	mov	r9, r3
  405568:	2300      	movs	r3, #0
  40556a:	9301      	str	r3, [sp, #4]
  40556c:	9303      	str	r3, [sp, #12]
  40556e:	465f      	mov	r7, fp
  405570:	9b01      	ldr	r3, [sp, #4]
  405572:	9a03      	ldr	r2, [sp, #12]
  405574:	4293      	cmp	r3, r2
  405576:	bfb8      	it	lt
  405578:	4613      	movlt	r3, r2
  40557a:	461d      	mov	r5, r3
  40557c:	f1b9 0f00 	cmp.w	r9, #0
  405580:	d000      	beq.n	405584 <_vfiprintf_r+0x254>
  405582:	3501      	adds	r5, #1
  405584:	f016 0302 	ands.w	r3, r6, #2
  405588:	9307      	str	r3, [sp, #28]
  40558a:	bf18      	it	ne
  40558c:	3502      	addne	r5, #2
  40558e:	f016 0384 	ands.w	r3, r6, #132	; 0x84
  405592:	9308      	str	r3, [sp, #32]
  405594:	f040 82f1 	bne.w	405b7a <_vfiprintf_r+0x84a>
  405598:	9b06      	ldr	r3, [sp, #24]
  40559a:	1b5c      	subs	r4, r3, r5
  40559c:	2c00      	cmp	r4, #0
  40559e:	f340 82ec 	ble.w	405b7a <_vfiprintf_r+0x84a>
  4055a2:	2c10      	cmp	r4, #16
  4055a4:	f340 8556 	ble.w	406054 <_vfiprintf_r+0xd24>
  4055a8:	f8df 9284 	ldr.w	r9, [pc, #644]	; 405830 <_vfiprintf_r+0x500>
  4055ac:	f8dd e038 	ldr.w	lr, [sp, #56]	; 0x38
  4055b0:	9a0f      	ldr	r2, [sp, #60]	; 0x3c
  4055b2:	46d4      	mov	ip, sl
  4055b4:	2310      	movs	r3, #16
  4055b6:	46c2      	mov	sl, r8
  4055b8:	4670      	mov	r0, lr
  4055ba:	46a8      	mov	r8, r5
  4055bc:	464d      	mov	r5, r9
  4055be:	f8dd 9014 	ldr.w	r9, [sp, #20]
  4055c2:	e007      	b.n	4055d4 <_vfiprintf_r+0x2a4>
  4055c4:	f100 0e02 	add.w	lr, r0, #2
  4055c8:	f10c 0c08 	add.w	ip, ip, #8
  4055cc:	4608      	mov	r0, r1
  4055ce:	3c10      	subs	r4, #16
  4055d0:	2c10      	cmp	r4, #16
  4055d2:	dd13      	ble.n	4055fc <_vfiprintf_r+0x2cc>
  4055d4:	1c41      	adds	r1, r0, #1
  4055d6:	3210      	adds	r2, #16
  4055d8:	2907      	cmp	r1, #7
  4055da:	920f      	str	r2, [sp, #60]	; 0x3c
  4055dc:	f8cc 5000 	str.w	r5, [ip]
  4055e0:	f8cc 3004 	str.w	r3, [ip, #4]
  4055e4:	910e      	str	r1, [sp, #56]	; 0x38
  4055e6:	dded      	ble.n	4055c4 <_vfiprintf_r+0x294>
  4055e8:	2a00      	cmp	r2, #0
  4055ea:	f040 82b7 	bne.w	405b5c <_vfiprintf_r+0x82c>
  4055ee:	3c10      	subs	r4, #16
  4055f0:	2c10      	cmp	r4, #16
  4055f2:	4610      	mov	r0, r2
  4055f4:	f04f 0e01 	mov.w	lr, #1
  4055f8:	46dc      	mov	ip, fp
  4055fa:	dceb      	bgt.n	4055d4 <_vfiprintf_r+0x2a4>
  4055fc:	46a9      	mov	r9, r5
  4055fe:	4670      	mov	r0, lr
  405600:	4645      	mov	r5, r8
  405602:	46d0      	mov	r8, sl
  405604:	46e2      	mov	sl, ip
  405606:	4422      	add	r2, r4
  405608:	2807      	cmp	r0, #7
  40560a:	920f      	str	r2, [sp, #60]	; 0x3c
  40560c:	f8ca 9000 	str.w	r9, [sl]
  405610:	f8ca 4004 	str.w	r4, [sl, #4]
  405614:	900e      	str	r0, [sp, #56]	; 0x38
  405616:	f300 8375 	bgt.w	405d04 <_vfiprintf_r+0x9d4>
  40561a:	f89d 302f 	ldrb.w	r3, [sp, #47]	; 0x2f
  40561e:	f10a 0a08 	add.w	sl, sl, #8
  405622:	f100 0e01 	add.w	lr, r0, #1
  405626:	2b00      	cmp	r3, #0
  405628:	f040 82b0 	bne.w	405b8c <_vfiprintf_r+0x85c>
  40562c:	9b07      	ldr	r3, [sp, #28]
  40562e:	2b00      	cmp	r3, #0
  405630:	f000 82c3 	beq.w	405bba <_vfiprintf_r+0x88a>
  405634:	3202      	adds	r2, #2
  405636:	a90c      	add	r1, sp, #48	; 0x30
  405638:	2302      	movs	r3, #2
  40563a:	f1be 0f07 	cmp.w	lr, #7
  40563e:	920f      	str	r2, [sp, #60]	; 0x3c
  405640:	f8cd e038 	str.w	lr, [sp, #56]	; 0x38
  405644:	e88a 000a 	stmia.w	sl, {r1, r3}
  405648:	f340 8378 	ble.w	405d3c <_vfiprintf_r+0xa0c>
  40564c:	2a00      	cmp	r2, #0
  40564e:	f040 840a 	bne.w	405e66 <_vfiprintf_r+0xb36>
  405652:	9b08      	ldr	r3, [sp, #32]
  405654:	2b80      	cmp	r3, #128	; 0x80
  405656:	f04f 0e01 	mov.w	lr, #1
  40565a:	4610      	mov	r0, r2
  40565c:	46da      	mov	sl, fp
  40565e:	f040 82b0 	bne.w	405bc2 <_vfiprintf_r+0x892>
  405662:	9b06      	ldr	r3, [sp, #24]
  405664:	1b5c      	subs	r4, r3, r5
  405666:	2c00      	cmp	r4, #0
  405668:	f340 82ab 	ble.w	405bc2 <_vfiprintf_r+0x892>
  40566c:	2c10      	cmp	r4, #16
  40566e:	f8df 91c4 	ldr.w	r9, [pc, #452]	; 405834 <_vfiprintf_r+0x504>
  405672:	f340 850b 	ble.w	40608c <_vfiprintf_r+0xd5c>
  405676:	46d6      	mov	lr, sl
  405678:	2310      	movs	r3, #16
  40567a:	46c2      	mov	sl, r8
  40567c:	46a8      	mov	r8, r5
  40567e:	464d      	mov	r5, r9
  405680:	f8dd 9014 	ldr.w	r9, [sp, #20]
  405684:	e007      	b.n	405696 <_vfiprintf_r+0x366>
  405686:	f100 0c02 	add.w	ip, r0, #2
  40568a:	f10e 0e08 	add.w	lr, lr, #8
  40568e:	4608      	mov	r0, r1
  405690:	3c10      	subs	r4, #16
  405692:	2c10      	cmp	r4, #16
  405694:	dd13      	ble.n	4056be <_vfiprintf_r+0x38e>
  405696:	1c41      	adds	r1, r0, #1
  405698:	3210      	adds	r2, #16
  40569a:	2907      	cmp	r1, #7
  40569c:	920f      	str	r2, [sp, #60]	; 0x3c
  40569e:	f8ce 5000 	str.w	r5, [lr]
  4056a2:	f8ce 3004 	str.w	r3, [lr, #4]
  4056a6:	910e      	str	r1, [sp, #56]	; 0x38
  4056a8:	dded      	ble.n	405686 <_vfiprintf_r+0x356>
  4056aa:	2a00      	cmp	r2, #0
  4056ac:	f040 8315 	bne.w	405cda <_vfiprintf_r+0x9aa>
  4056b0:	3c10      	subs	r4, #16
  4056b2:	2c10      	cmp	r4, #16
  4056b4:	f04f 0c01 	mov.w	ip, #1
  4056b8:	4610      	mov	r0, r2
  4056ba:	46de      	mov	lr, fp
  4056bc:	dceb      	bgt.n	405696 <_vfiprintf_r+0x366>
  4056be:	46a9      	mov	r9, r5
  4056c0:	4645      	mov	r5, r8
  4056c2:	46d0      	mov	r8, sl
  4056c4:	46f2      	mov	sl, lr
  4056c6:	4422      	add	r2, r4
  4056c8:	f1bc 0f07 	cmp.w	ip, #7
  4056cc:	920f      	str	r2, [sp, #60]	; 0x3c
  4056ce:	f8ca 9000 	str.w	r9, [sl]
  4056d2:	f8ca 4004 	str.w	r4, [sl, #4]
  4056d6:	f8cd c038 	str.w	ip, [sp, #56]	; 0x38
  4056da:	f300 83d2 	bgt.w	405e82 <_vfiprintf_r+0xb52>
  4056de:	9b01      	ldr	r3, [sp, #4]
  4056e0:	9903      	ldr	r1, [sp, #12]
  4056e2:	1a5c      	subs	r4, r3, r1
  4056e4:	2c00      	cmp	r4, #0
  4056e6:	f10a 0a08 	add.w	sl, sl, #8
  4056ea:	f10c 0e01 	add.w	lr, ip, #1
  4056ee:	4660      	mov	r0, ip
  4056f0:	f300 826d 	bgt.w	405bce <_vfiprintf_r+0x89e>
  4056f4:	9903      	ldr	r1, [sp, #12]
  4056f6:	f8ca 7000 	str.w	r7, [sl]
  4056fa:	440a      	add	r2, r1
  4056fc:	f1be 0f07 	cmp.w	lr, #7
  405700:	920f      	str	r2, [sp, #60]	; 0x3c
  405702:	f8ca 1004 	str.w	r1, [sl, #4]
  405706:	f8cd e038 	str.w	lr, [sp, #56]	; 0x38
  40570a:	f340 82ce 	ble.w	405caa <_vfiprintf_r+0x97a>
  40570e:	2a00      	cmp	r2, #0
  405710:	f040 833a 	bne.w	405d88 <_vfiprintf_r+0xa58>
  405714:	0770      	lsls	r0, r6, #29
  405716:	920e      	str	r2, [sp, #56]	; 0x38
  405718:	d538      	bpl.n	40578c <_vfiprintf_r+0x45c>
  40571a:	9b06      	ldr	r3, [sp, #24]
  40571c:	1b5c      	subs	r4, r3, r5
  40571e:	2c00      	cmp	r4, #0
  405720:	dd34      	ble.n	40578c <_vfiprintf_r+0x45c>
  405722:	46da      	mov	sl, fp
  405724:	2c10      	cmp	r4, #16
  405726:	f340 84ab 	ble.w	406080 <_vfiprintf_r+0xd50>
  40572a:	f8df 9104 	ldr.w	r9, [pc, #260]	; 405830 <_vfiprintf_r+0x500>
  40572e:	990e      	ldr	r1, [sp, #56]	; 0x38
  405730:	464f      	mov	r7, r9
  405732:	2610      	movs	r6, #16
  405734:	f8dd 9014 	ldr.w	r9, [sp, #20]
  405738:	e006      	b.n	405748 <_vfiprintf_r+0x418>
  40573a:	1c88      	adds	r0, r1, #2
  40573c:	f10a 0a08 	add.w	sl, sl, #8
  405740:	4619      	mov	r1, r3
  405742:	3c10      	subs	r4, #16
  405744:	2c10      	cmp	r4, #16
  405746:	dd13      	ble.n	405770 <_vfiprintf_r+0x440>
  405748:	1c4b      	adds	r3, r1, #1
  40574a:	3210      	adds	r2, #16
  40574c:	2b07      	cmp	r3, #7
  40574e:	920f      	str	r2, [sp, #60]	; 0x3c
  405750:	f8ca 7000 	str.w	r7, [sl]
  405754:	f8ca 6004 	str.w	r6, [sl, #4]
  405758:	930e      	str	r3, [sp, #56]	; 0x38
  40575a:	ddee      	ble.n	40573a <_vfiprintf_r+0x40a>
  40575c:	2a00      	cmp	r2, #0
  40575e:	f040 828e 	bne.w	405c7e <_vfiprintf_r+0x94e>
  405762:	3c10      	subs	r4, #16
  405764:	2c10      	cmp	r4, #16
  405766:	f04f 0001 	mov.w	r0, #1
  40576a:	4611      	mov	r1, r2
  40576c:	46da      	mov	sl, fp
  40576e:	dceb      	bgt.n	405748 <_vfiprintf_r+0x418>
  405770:	46b9      	mov	r9, r7
  405772:	4422      	add	r2, r4
  405774:	2807      	cmp	r0, #7
  405776:	920f      	str	r2, [sp, #60]	; 0x3c
  405778:	f8ca 9000 	str.w	r9, [sl]
  40577c:	f8ca 4004 	str.w	r4, [sl, #4]
  405780:	900e      	str	r0, [sp, #56]	; 0x38
  405782:	f340 829b 	ble.w	405cbc <_vfiprintf_r+0x98c>
  405786:	2a00      	cmp	r2, #0
  405788:	f040 8425 	bne.w	405fd6 <_vfiprintf_r+0xca6>
  40578c:	9b02      	ldr	r3, [sp, #8]
  40578e:	9a06      	ldr	r2, [sp, #24]
  405790:	42aa      	cmp	r2, r5
  405792:	bfac      	ite	ge
  405794:	189b      	addge	r3, r3, r2
  405796:	195b      	addlt	r3, r3, r5
  405798:	9302      	str	r3, [sp, #8]
  40579a:	e299      	b.n	405cd0 <_vfiprintf_r+0x9a0>
  40579c:	f046 0680 	orr.w	r6, r6, #128	; 0x80
  4057a0:	f898 3000 	ldrb.w	r3, [r8]
  4057a4:	e62b      	b.n	4053fe <_vfiprintf_r+0xce>
  4057a6:	9406      	str	r4, [sp, #24]
  4057a8:	2900      	cmp	r1, #0
  4057aa:	f040 84af 	bne.w	40610c <_vfiprintf_r+0xddc>
  4057ae:	f046 0610 	orr.w	r6, r6, #16
  4057b2:	06b3      	lsls	r3, r6, #26
  4057b4:	f140 8312 	bpl.w	405ddc <_vfiprintf_r+0xaac>
  4057b8:	9904      	ldr	r1, [sp, #16]
  4057ba:	3107      	adds	r1, #7
  4057bc:	f021 0107 	bic.w	r1, r1, #7
  4057c0:	e9d1 2300 	ldrd	r2, r3, [r1]
  4057c4:	3108      	adds	r1, #8
  4057c6:	9104      	str	r1, [sp, #16]
  4057c8:	4614      	mov	r4, r2
  4057ca:	461d      	mov	r5, r3
  4057cc:	2a00      	cmp	r2, #0
  4057ce:	f173 0300 	sbcs.w	r3, r3, #0
  4057d2:	f2c0 8386 	blt.w	405ee2 <_vfiprintf_r+0xbb2>
  4057d6:	9b01      	ldr	r3, [sp, #4]
  4057d8:	f89d 902f 	ldrb.w	r9, [sp, #47]	; 0x2f
  4057dc:	2b00      	cmp	r3, #0
  4057de:	f2c0 831a 	blt.w	405e16 <_vfiprintf_r+0xae6>
  4057e2:	ea54 0305 	orrs.w	r3, r4, r5
  4057e6:	f026 0680 	bic.w	r6, r6, #128	; 0x80
  4057ea:	f000 80ed 	beq.w	4059c8 <_vfiprintf_r+0x698>
  4057ee:	2d00      	cmp	r5, #0
  4057f0:	bf08      	it	eq
  4057f2:	2c0a      	cmpeq	r4, #10
  4057f4:	f0c0 80ed 	bcc.w	4059d2 <_vfiprintf_r+0x6a2>
  4057f8:	465f      	mov	r7, fp
  4057fa:	4620      	mov	r0, r4
  4057fc:	4629      	mov	r1, r5
  4057fe:	220a      	movs	r2, #10
  405800:	2300      	movs	r3, #0
  405802:	f003 fee7 	bl	4095d4 <__aeabi_uldivmod>
  405806:	3230      	adds	r2, #48	; 0x30
  405808:	f807 2d01 	strb.w	r2, [r7, #-1]!
  40580c:	4620      	mov	r0, r4
  40580e:	4629      	mov	r1, r5
  405810:	2300      	movs	r3, #0
  405812:	220a      	movs	r2, #10
  405814:	f003 fede 	bl	4095d4 <__aeabi_uldivmod>
  405818:	4604      	mov	r4, r0
  40581a:	460d      	mov	r5, r1
  40581c:	ea54 0305 	orrs.w	r3, r4, r5
  405820:	d1eb      	bne.n	4057fa <_vfiprintf_r+0x4ca>
  405822:	ebc7 030b 	rsb	r3, r7, fp
  405826:	9303      	str	r3, [sp, #12]
  405828:	e6a2      	b.n	405570 <_vfiprintf_r+0x240>
  40582a:	bf00      	nop
  40582c:	00409a50 	.word	0x00409a50
  405830:	00409a90 	.word	0x00409a90
  405834:	00409a80 	.word	0x00409a80
  405838:	9406      	str	r4, [sp, #24]
  40583a:	2900      	cmp	r1, #0
  40583c:	f040 8462 	bne.w	406104 <_vfiprintf_r+0xdd4>
  405840:	f046 0610 	orr.w	r6, r6, #16
  405844:	f016 0320 	ands.w	r3, r6, #32
  405848:	f000 82ae 	beq.w	405da8 <_vfiprintf_r+0xa78>
  40584c:	9b04      	ldr	r3, [sp, #16]
  40584e:	3307      	adds	r3, #7
  405850:	f023 0307 	bic.w	r3, r3, #7
  405854:	f04f 0200 	mov.w	r2, #0
  405858:	f88d 202f 	strb.w	r2, [sp, #47]	; 0x2f
  40585c:	e9d3 4500 	ldrd	r4, r5, [r3]
  405860:	f103 0208 	add.w	r2, r3, #8
  405864:	9b01      	ldr	r3, [sp, #4]
  405866:	9204      	str	r2, [sp, #16]
  405868:	2b00      	cmp	r3, #0
  40586a:	f2c0 8174 	blt.w	405b56 <_vfiprintf_r+0x826>
  40586e:	ea54 0305 	orrs.w	r3, r4, r5
  405872:	f026 0680 	bic.w	r6, r6, #128	; 0x80
  405876:	f040 816e 	bne.w	405b56 <_vfiprintf_r+0x826>
  40587a:	9b01      	ldr	r3, [sp, #4]
  40587c:	2b00      	cmp	r3, #0
  40587e:	f000 8430 	beq.w	4060e2 <_vfiprintf_r+0xdb2>
  405882:	f04f 0900 	mov.w	r9, #0
  405886:	2400      	movs	r4, #0
  405888:	2500      	movs	r5, #0
  40588a:	465f      	mov	r7, fp
  40588c:	08e2      	lsrs	r2, r4, #3
  40588e:	ea42 7245 	orr.w	r2, r2, r5, lsl #29
  405892:	08e9      	lsrs	r1, r5, #3
  405894:	f004 0307 	and.w	r3, r4, #7
  405898:	460d      	mov	r5, r1
  40589a:	4614      	mov	r4, r2
  40589c:	3330      	adds	r3, #48	; 0x30
  40589e:	ea54 0205 	orrs.w	r2, r4, r5
  4058a2:	f807 3d01 	strb.w	r3, [r7, #-1]!
  4058a6:	d1f1      	bne.n	40588c <_vfiprintf_r+0x55c>
  4058a8:	07f4      	lsls	r4, r6, #31
  4058aa:	d5ba      	bpl.n	405822 <_vfiprintf_r+0x4f2>
  4058ac:	2b30      	cmp	r3, #48	; 0x30
  4058ae:	d0b8      	beq.n	405822 <_vfiprintf_r+0x4f2>
  4058b0:	2230      	movs	r2, #48	; 0x30
  4058b2:	1e7b      	subs	r3, r7, #1
  4058b4:	f807 2c01 	strb.w	r2, [r7, #-1]
  4058b8:	ebc3 020b 	rsb	r2, r3, fp
  4058bc:	9203      	str	r2, [sp, #12]
  4058be:	461f      	mov	r7, r3
  4058c0:	e656      	b.n	405570 <_vfiprintf_r+0x240>
  4058c2:	f1a3 0230 	sub.w	r2, r3, #48	; 0x30
  4058c6:	2400      	movs	r4, #0
  4058c8:	f818 3b01 	ldrb.w	r3, [r8], #1
  4058cc:	eb04 0484 	add.w	r4, r4, r4, lsl #2
  4058d0:	eb02 0444 	add.w	r4, r2, r4, lsl #1
  4058d4:	f1a3 0230 	sub.w	r2, r3, #48	; 0x30
  4058d8:	2a09      	cmp	r2, #9
  4058da:	d9f5      	bls.n	4058c8 <_vfiprintf_r+0x598>
  4058dc:	e591      	b.n	405402 <_vfiprintf_r+0xd2>
  4058de:	f898 3000 	ldrb.w	r3, [r8]
  4058e2:	2101      	movs	r1, #1
  4058e4:	202b      	movs	r0, #43	; 0x2b
  4058e6:	e58a      	b.n	4053fe <_vfiprintf_r+0xce>
  4058e8:	f898 3000 	ldrb.w	r3, [r8]
  4058ec:	2b2a      	cmp	r3, #42	; 0x2a
  4058ee:	f108 0501 	add.w	r5, r8, #1
  4058f2:	f000 83dd 	beq.w	4060b0 <_vfiprintf_r+0xd80>
  4058f6:	f1a3 0230 	sub.w	r2, r3, #48	; 0x30
  4058fa:	2a09      	cmp	r2, #9
  4058fc:	46a8      	mov	r8, r5
  4058fe:	bf98      	it	ls
  405900:	2500      	movls	r5, #0
  405902:	f200 83ce 	bhi.w	4060a2 <_vfiprintf_r+0xd72>
  405906:	f818 3b01 	ldrb.w	r3, [r8], #1
  40590a:	eb05 0585 	add.w	r5, r5, r5, lsl #2
  40590e:	eb02 0545 	add.w	r5, r2, r5, lsl #1
  405912:	f1a3 0230 	sub.w	r2, r3, #48	; 0x30
  405916:	2a09      	cmp	r2, #9
  405918:	d9f5      	bls.n	405906 <_vfiprintf_r+0x5d6>
  40591a:	ea45 72e5 	orr.w	r2, r5, r5, asr #31
  40591e:	9201      	str	r2, [sp, #4]
  405920:	e56f      	b.n	405402 <_vfiprintf_r+0xd2>
  405922:	9a04      	ldr	r2, [sp, #16]
  405924:	6814      	ldr	r4, [r2, #0]
  405926:	4613      	mov	r3, r2
  405928:	2c00      	cmp	r4, #0
  40592a:	f103 0304 	add.w	r3, r3, #4
  40592e:	f6ff aded 	blt.w	40550c <_vfiprintf_r+0x1dc>
  405932:	9304      	str	r3, [sp, #16]
  405934:	f898 3000 	ldrb.w	r3, [r8]
  405938:	e561      	b.n	4053fe <_vfiprintf_r+0xce>
  40593a:	9406      	str	r4, [sp, #24]
  40593c:	2900      	cmp	r1, #0
  40593e:	d081      	beq.n	405844 <_vfiprintf_r+0x514>
  405940:	f88d 002f 	strb.w	r0, [sp, #47]	; 0x2f
  405944:	e77e      	b.n	405844 <_vfiprintf_r+0x514>
  405946:	9a04      	ldr	r2, [sp, #16]
  405948:	9406      	str	r4, [sp, #24]
  40594a:	6817      	ldr	r7, [r2, #0]
  40594c:	f04f 0300 	mov.w	r3, #0
  405950:	f88d 302f 	strb.w	r3, [sp, #47]	; 0x2f
  405954:	1d14      	adds	r4, r2, #4
  405956:	9b01      	ldr	r3, [sp, #4]
  405958:	2f00      	cmp	r7, #0
  40595a:	f000 8386 	beq.w	40606a <_vfiprintf_r+0xd3a>
  40595e:	2b00      	cmp	r3, #0
  405960:	f2c0 835f 	blt.w	406022 <_vfiprintf_r+0xcf2>
  405964:	461a      	mov	r2, r3
  405966:	2100      	movs	r1, #0
  405968:	4638      	mov	r0, r7
  40596a:	f002 f961 	bl	407c30 <memchr>
  40596e:	2800      	cmp	r0, #0
  405970:	f000 838f 	beq.w	406092 <_vfiprintf_r+0xd62>
  405974:	1bc3      	subs	r3, r0, r7
  405976:	9303      	str	r3, [sp, #12]
  405978:	2300      	movs	r3, #0
  40597a:	9404      	str	r4, [sp, #16]
  40597c:	f89d 902f 	ldrb.w	r9, [sp, #47]	; 0x2f
  405980:	9301      	str	r3, [sp, #4]
  405982:	e5f5      	b.n	405570 <_vfiprintf_r+0x240>
  405984:	9406      	str	r4, [sp, #24]
  405986:	2900      	cmp	r1, #0
  405988:	f040 83b9 	bne.w	4060fe <_vfiprintf_r+0xdce>
  40598c:	f016 0920 	ands.w	r9, r6, #32
  405990:	d135      	bne.n	4059fe <_vfiprintf_r+0x6ce>
  405992:	f016 0310 	ands.w	r3, r6, #16
  405996:	d103      	bne.n	4059a0 <_vfiprintf_r+0x670>
  405998:	f016 0940 	ands.w	r9, r6, #64	; 0x40
  40599c:	f040 832a 	bne.w	405ff4 <_vfiprintf_r+0xcc4>
  4059a0:	9a04      	ldr	r2, [sp, #16]
  4059a2:	4613      	mov	r3, r2
  4059a4:	6814      	ldr	r4, [r2, #0]
  4059a6:	9a01      	ldr	r2, [sp, #4]
  4059a8:	f88d 902f 	strb.w	r9, [sp, #47]	; 0x2f
  4059ac:	2a00      	cmp	r2, #0
  4059ae:	f103 0304 	add.w	r3, r3, #4
  4059b2:	f04f 0500 	mov.w	r5, #0
  4059b6:	f2c0 8332 	blt.w	40601e <_vfiprintf_r+0xcee>
  4059ba:	ea54 0205 	orrs.w	r2, r4, r5
  4059be:	f026 0680 	bic.w	r6, r6, #128	; 0x80
  4059c2:	9304      	str	r3, [sp, #16]
  4059c4:	f47f af13 	bne.w	4057ee <_vfiprintf_r+0x4be>
  4059c8:	9b01      	ldr	r3, [sp, #4]
  4059ca:	2b00      	cmp	r3, #0
  4059cc:	f43f adcc 	beq.w	405568 <_vfiprintf_r+0x238>
  4059d0:	2400      	movs	r4, #0
  4059d2:	af2a      	add	r7, sp, #168	; 0xa8
  4059d4:	3430      	adds	r4, #48	; 0x30
  4059d6:	f807 4d41 	strb.w	r4, [r7, #-65]!
  4059da:	ebc7 030b 	rsb	r3, r7, fp
  4059de:	9303      	str	r3, [sp, #12]
  4059e0:	e5c6      	b.n	405570 <_vfiprintf_r+0x240>
  4059e2:	f046 0620 	orr.w	r6, r6, #32
  4059e6:	f898 3000 	ldrb.w	r3, [r8]
  4059ea:	e508      	b.n	4053fe <_vfiprintf_r+0xce>
  4059ec:	9406      	str	r4, [sp, #24]
  4059ee:	2900      	cmp	r1, #0
  4059f0:	f040 836e 	bne.w	4060d0 <_vfiprintf_r+0xda0>
  4059f4:	f046 0610 	orr.w	r6, r6, #16
  4059f8:	f016 0920 	ands.w	r9, r6, #32
  4059fc:	d0c9      	beq.n	405992 <_vfiprintf_r+0x662>
  4059fe:	9b04      	ldr	r3, [sp, #16]
  405a00:	3307      	adds	r3, #7
  405a02:	f023 0307 	bic.w	r3, r3, #7
  405a06:	f04f 0200 	mov.w	r2, #0
  405a0a:	f88d 202f 	strb.w	r2, [sp, #47]	; 0x2f
  405a0e:	e9d3 4500 	ldrd	r4, r5, [r3]
  405a12:	f103 0208 	add.w	r2, r3, #8
  405a16:	9b01      	ldr	r3, [sp, #4]
  405a18:	9204      	str	r2, [sp, #16]
  405a1a:	2b00      	cmp	r3, #0
  405a1c:	f2c0 81f9 	blt.w	405e12 <_vfiprintf_r+0xae2>
  405a20:	ea54 0305 	orrs.w	r3, r4, r5
  405a24:	f026 0680 	bic.w	r6, r6, #128	; 0x80
  405a28:	f04f 0900 	mov.w	r9, #0
  405a2c:	f47f aedf 	bne.w	4057ee <_vfiprintf_r+0x4be>
  405a30:	e7ca      	b.n	4059c8 <_vfiprintf_r+0x698>
  405a32:	9406      	str	r4, [sp, #24]
  405a34:	2900      	cmp	r1, #0
  405a36:	f040 8351 	bne.w	4060dc <_vfiprintf_r+0xdac>
  405a3a:	06b2      	lsls	r2, r6, #26
  405a3c:	48ae      	ldr	r0, [pc, #696]	; (405cf8 <_vfiprintf_r+0x9c8>)
  405a3e:	d541      	bpl.n	405ac4 <_vfiprintf_r+0x794>
  405a40:	9a04      	ldr	r2, [sp, #16]
  405a42:	3207      	adds	r2, #7
  405a44:	f022 0207 	bic.w	r2, r2, #7
  405a48:	e9d2 4500 	ldrd	r4, r5, [r2]
  405a4c:	f102 0108 	add.w	r1, r2, #8
  405a50:	9104      	str	r1, [sp, #16]
  405a52:	f016 0901 	ands.w	r9, r6, #1
  405a56:	f000 8177 	beq.w	405d48 <_vfiprintf_r+0xa18>
  405a5a:	ea54 0205 	orrs.w	r2, r4, r5
  405a5e:	f040 8226 	bne.w	405eae <_vfiprintf_r+0xb7e>
  405a62:	f04f 0300 	mov.w	r3, #0
  405a66:	f88d 302f 	strb.w	r3, [sp, #47]	; 0x2f
  405a6a:	9b01      	ldr	r3, [sp, #4]
  405a6c:	2b00      	cmp	r3, #0
  405a6e:	f2c0 8196 	blt.w	405d9e <_vfiprintf_r+0xa6e>
  405a72:	f026 0680 	bic.w	r6, r6, #128	; 0x80
  405a76:	e572      	b.n	40555e <_vfiprintf_r+0x22e>
  405a78:	9a04      	ldr	r2, [sp, #16]
  405a7a:	9406      	str	r4, [sp, #24]
  405a7c:	6813      	ldr	r3, [r2, #0]
  405a7e:	f88d 3040 	strb.w	r3, [sp, #64]	; 0x40
  405a82:	4613      	mov	r3, r2
  405a84:	f04f 0100 	mov.w	r1, #0
  405a88:	2501      	movs	r5, #1
  405a8a:	3304      	adds	r3, #4
  405a8c:	f88d 102f 	strb.w	r1, [sp, #47]	; 0x2f
  405a90:	9304      	str	r3, [sp, #16]
  405a92:	9503      	str	r5, [sp, #12]
  405a94:	af10      	add	r7, sp, #64	; 0x40
  405a96:	2300      	movs	r3, #0
  405a98:	9301      	str	r3, [sp, #4]
  405a9a:	e573      	b.n	405584 <_vfiprintf_r+0x254>
  405a9c:	f898 3000 	ldrb.w	r3, [r8]
  405aa0:	2800      	cmp	r0, #0
  405aa2:	f47f acac 	bne.w	4053fe <_vfiprintf_r+0xce>
  405aa6:	2101      	movs	r1, #1
  405aa8:	2020      	movs	r0, #32
  405aaa:	e4a8      	b.n	4053fe <_vfiprintf_r+0xce>
  405aac:	f046 0601 	orr.w	r6, r6, #1
  405ab0:	f898 3000 	ldrb.w	r3, [r8]
  405ab4:	e4a3      	b.n	4053fe <_vfiprintf_r+0xce>
  405ab6:	9406      	str	r4, [sp, #24]
  405ab8:	2900      	cmp	r1, #0
  405aba:	f040 830c 	bne.w	4060d6 <_vfiprintf_r+0xda6>
  405abe:	06b2      	lsls	r2, r6, #26
  405ac0:	488e      	ldr	r0, [pc, #568]	; (405cfc <_vfiprintf_r+0x9cc>)
  405ac2:	d4bd      	bmi.n	405a40 <_vfiprintf_r+0x710>
  405ac4:	9904      	ldr	r1, [sp, #16]
  405ac6:	06f7      	lsls	r7, r6, #27
  405ac8:	460a      	mov	r2, r1
  405aca:	f100 819d 	bmi.w	405e08 <_vfiprintf_r+0xad8>
  405ace:	0675      	lsls	r5, r6, #25
  405ad0:	f140 819a 	bpl.w	405e08 <_vfiprintf_r+0xad8>
  405ad4:	3204      	adds	r2, #4
  405ad6:	880c      	ldrh	r4, [r1, #0]
  405ad8:	9204      	str	r2, [sp, #16]
  405ada:	2500      	movs	r5, #0
  405adc:	e7b9      	b.n	405a52 <_vfiprintf_r+0x722>
  405ade:	f046 0640 	orr.w	r6, r6, #64	; 0x40
  405ae2:	f898 3000 	ldrb.w	r3, [r8]
  405ae6:	e48a      	b.n	4053fe <_vfiprintf_r+0xce>
  405ae8:	f898 3000 	ldrb.w	r3, [r8]
  405aec:	2b6c      	cmp	r3, #108	; 0x6c
  405aee:	bf03      	ittte	eq
  405af0:	f898 3001 	ldrbeq.w	r3, [r8, #1]
  405af4:	f046 0620 	orreq.w	r6, r6, #32
  405af8:	f108 0801 	addeq.w	r8, r8, #1
  405afc:	f046 0610 	orrne.w	r6, r6, #16
  405b00:	e47d      	b.n	4053fe <_vfiprintf_r+0xce>
  405b02:	2900      	cmp	r1, #0
  405b04:	f040 8309 	bne.w	40611a <_vfiprintf_r+0xdea>
  405b08:	06b4      	lsls	r4, r6, #26
  405b0a:	f140 821c 	bpl.w	405f46 <_vfiprintf_r+0xc16>
  405b0e:	9a04      	ldr	r2, [sp, #16]
  405b10:	9902      	ldr	r1, [sp, #8]
  405b12:	6813      	ldr	r3, [r2, #0]
  405b14:	17cd      	asrs	r5, r1, #31
  405b16:	4608      	mov	r0, r1
  405b18:	3204      	adds	r2, #4
  405b1a:	4629      	mov	r1, r5
  405b1c:	9204      	str	r2, [sp, #16]
  405b1e:	e9c3 0100 	strd	r0, r1, [r3]
  405b22:	e436      	b.n	405392 <_vfiprintf_r+0x62>
  405b24:	9406      	str	r4, [sp, #24]
  405b26:	2900      	cmp	r1, #0
  405b28:	f43f ae43 	beq.w	4057b2 <_vfiprintf_r+0x482>
  405b2c:	f88d 002f 	strb.w	r0, [sp, #47]	; 0x2f
  405b30:	e63f      	b.n	4057b2 <_vfiprintf_r+0x482>
  405b32:	9406      	str	r4, [sp, #24]
  405b34:	2900      	cmp	r1, #0
  405b36:	f040 82ed 	bne.w	406114 <_vfiprintf_r+0xde4>
  405b3a:	2b00      	cmp	r3, #0
  405b3c:	f000 808f 	beq.w	405c5e <_vfiprintf_r+0x92e>
  405b40:	2501      	movs	r5, #1
  405b42:	f88d 3040 	strb.w	r3, [sp, #64]	; 0x40
  405b46:	f04f 0300 	mov.w	r3, #0
  405b4a:	f88d 302f 	strb.w	r3, [sp, #47]	; 0x2f
  405b4e:	9503      	str	r5, [sp, #12]
  405b50:	af10      	add	r7, sp, #64	; 0x40
  405b52:	e7a0      	b.n	405a96 <_vfiprintf_r+0x766>
  405b54:	9304      	str	r3, [sp, #16]
  405b56:	f04f 0900 	mov.w	r9, #0
  405b5a:	e696      	b.n	40588a <_vfiprintf_r+0x55a>
  405b5c:	aa0d      	add	r2, sp, #52	; 0x34
  405b5e:	9900      	ldr	r1, [sp, #0]
  405b60:	9309      	str	r3, [sp, #36]	; 0x24
  405b62:	4648      	mov	r0, r9
  405b64:	f7ff fba8 	bl	4052b8 <__sprint_r.part.0>
  405b68:	2800      	cmp	r0, #0
  405b6a:	d17f      	bne.n	405c6c <_vfiprintf_r+0x93c>
  405b6c:	980e      	ldr	r0, [sp, #56]	; 0x38
  405b6e:	9a0f      	ldr	r2, [sp, #60]	; 0x3c
  405b70:	9b09      	ldr	r3, [sp, #36]	; 0x24
  405b72:	f100 0e01 	add.w	lr, r0, #1
  405b76:	46dc      	mov	ip, fp
  405b78:	e529      	b.n	4055ce <_vfiprintf_r+0x29e>
  405b7a:	980e      	ldr	r0, [sp, #56]	; 0x38
  405b7c:	9a0f      	ldr	r2, [sp, #60]	; 0x3c
  405b7e:	f100 0e01 	add.w	lr, r0, #1
  405b82:	f89d 302f 	ldrb.w	r3, [sp, #47]	; 0x2f
  405b86:	2b00      	cmp	r3, #0
  405b88:	f43f ad50 	beq.w	40562c <_vfiprintf_r+0x2fc>
  405b8c:	3201      	adds	r2, #1
  405b8e:	f10d 012f 	add.w	r1, sp, #47	; 0x2f
  405b92:	2301      	movs	r3, #1
  405b94:	f1be 0f07 	cmp.w	lr, #7
  405b98:	920f      	str	r2, [sp, #60]	; 0x3c
  405b9a:	f8cd e038 	str.w	lr, [sp, #56]	; 0x38
  405b9e:	e88a 000a 	stmia.w	sl, {r1, r3}
  405ba2:	f340 80bf 	ble.w	405d24 <_vfiprintf_r+0x9f4>
  405ba6:	2a00      	cmp	r2, #0
  405ba8:	f040 814e 	bne.w	405e48 <_vfiprintf_r+0xb18>
  405bac:	9907      	ldr	r1, [sp, #28]
  405bae:	2900      	cmp	r1, #0
  405bb0:	f040 80be 	bne.w	405d30 <_vfiprintf_r+0xa00>
  405bb4:	469e      	mov	lr, r3
  405bb6:	4610      	mov	r0, r2
  405bb8:	46da      	mov	sl, fp
  405bba:	9b08      	ldr	r3, [sp, #32]
  405bbc:	2b80      	cmp	r3, #128	; 0x80
  405bbe:	f43f ad50 	beq.w	405662 <_vfiprintf_r+0x332>
  405bc2:	9b01      	ldr	r3, [sp, #4]
  405bc4:	9903      	ldr	r1, [sp, #12]
  405bc6:	1a5c      	subs	r4, r3, r1
  405bc8:	2c00      	cmp	r4, #0
  405bca:	f77f ad93 	ble.w	4056f4 <_vfiprintf_r+0x3c4>
  405bce:	2c10      	cmp	r4, #16
  405bd0:	f8df 912c 	ldr.w	r9, [pc, #300]	; 405d00 <_vfiprintf_r+0x9d0>
  405bd4:	dd25      	ble.n	405c22 <_vfiprintf_r+0x8f2>
  405bd6:	46d4      	mov	ip, sl
  405bd8:	2310      	movs	r3, #16
  405bda:	46c2      	mov	sl, r8
  405bdc:	46a8      	mov	r8, r5
  405bde:	464d      	mov	r5, r9
  405be0:	f8dd 9014 	ldr.w	r9, [sp, #20]
  405be4:	e007      	b.n	405bf6 <_vfiprintf_r+0x8c6>
  405be6:	f100 0e02 	add.w	lr, r0, #2
  405bea:	f10c 0c08 	add.w	ip, ip, #8
  405bee:	4608      	mov	r0, r1
  405bf0:	3c10      	subs	r4, #16
  405bf2:	2c10      	cmp	r4, #16
  405bf4:	dd11      	ble.n	405c1a <_vfiprintf_r+0x8ea>
  405bf6:	1c41      	adds	r1, r0, #1
  405bf8:	3210      	adds	r2, #16
  405bfa:	2907      	cmp	r1, #7
  405bfc:	920f      	str	r2, [sp, #60]	; 0x3c
  405bfe:	f8cc 5000 	str.w	r5, [ip]
  405c02:	f8cc 3004 	str.w	r3, [ip, #4]
  405c06:	910e      	str	r1, [sp, #56]	; 0x38
  405c08:	dded      	ble.n	405be6 <_vfiprintf_r+0x8b6>
  405c0a:	b9d2      	cbnz	r2, 405c42 <_vfiprintf_r+0x912>
  405c0c:	3c10      	subs	r4, #16
  405c0e:	2c10      	cmp	r4, #16
  405c10:	f04f 0e01 	mov.w	lr, #1
  405c14:	4610      	mov	r0, r2
  405c16:	46dc      	mov	ip, fp
  405c18:	dced      	bgt.n	405bf6 <_vfiprintf_r+0x8c6>
  405c1a:	46a9      	mov	r9, r5
  405c1c:	4645      	mov	r5, r8
  405c1e:	46d0      	mov	r8, sl
  405c20:	46e2      	mov	sl, ip
  405c22:	4422      	add	r2, r4
  405c24:	f1be 0f07 	cmp.w	lr, #7
  405c28:	920f      	str	r2, [sp, #60]	; 0x3c
  405c2a:	f8ca 9000 	str.w	r9, [sl]
  405c2e:	f8ca 4004 	str.w	r4, [sl, #4]
  405c32:	f8cd e038 	str.w	lr, [sp, #56]	; 0x38
  405c36:	dc2e      	bgt.n	405c96 <_vfiprintf_r+0x966>
  405c38:	f10a 0a08 	add.w	sl, sl, #8
  405c3c:	f10e 0e01 	add.w	lr, lr, #1
  405c40:	e558      	b.n	4056f4 <_vfiprintf_r+0x3c4>
  405c42:	aa0d      	add	r2, sp, #52	; 0x34
  405c44:	9900      	ldr	r1, [sp, #0]
  405c46:	9301      	str	r3, [sp, #4]
  405c48:	4648      	mov	r0, r9
  405c4a:	f7ff fb35 	bl	4052b8 <__sprint_r.part.0>
  405c4e:	b968      	cbnz	r0, 405c6c <_vfiprintf_r+0x93c>
  405c50:	980e      	ldr	r0, [sp, #56]	; 0x38
  405c52:	9a0f      	ldr	r2, [sp, #60]	; 0x3c
  405c54:	9b01      	ldr	r3, [sp, #4]
  405c56:	f100 0e01 	add.w	lr, r0, #1
  405c5a:	46dc      	mov	ip, fp
  405c5c:	e7c8      	b.n	405bf0 <_vfiprintf_r+0x8c0>
  405c5e:	9b0f      	ldr	r3, [sp, #60]	; 0x3c
  405c60:	b123      	cbz	r3, 405c6c <_vfiprintf_r+0x93c>
  405c62:	9805      	ldr	r0, [sp, #20]
  405c64:	9900      	ldr	r1, [sp, #0]
  405c66:	aa0d      	add	r2, sp, #52	; 0x34
  405c68:	f7ff fb26 	bl	4052b8 <__sprint_r.part.0>
  405c6c:	9b00      	ldr	r3, [sp, #0]
  405c6e:	899b      	ldrh	r3, [r3, #12]
  405c70:	065a      	lsls	r2, r3, #25
  405c72:	f100 818b 	bmi.w	405f8c <_vfiprintf_r+0xc5c>
  405c76:	9802      	ldr	r0, [sp, #8]
  405c78:	b02b      	add	sp, #172	; 0xac
  405c7a:	e8bd 8ff0 	ldmia.w	sp!, {r4, r5, r6, r7, r8, r9, sl, fp, pc}
  405c7e:	aa0d      	add	r2, sp, #52	; 0x34
  405c80:	9900      	ldr	r1, [sp, #0]
  405c82:	4648      	mov	r0, r9
  405c84:	f7ff fb18 	bl	4052b8 <__sprint_r.part.0>
  405c88:	2800      	cmp	r0, #0
  405c8a:	d1ef      	bne.n	405c6c <_vfiprintf_r+0x93c>
  405c8c:	990e      	ldr	r1, [sp, #56]	; 0x38
  405c8e:	9a0f      	ldr	r2, [sp, #60]	; 0x3c
  405c90:	1c48      	adds	r0, r1, #1
  405c92:	46da      	mov	sl, fp
  405c94:	e555      	b.n	405742 <_vfiprintf_r+0x412>
  405c96:	2a00      	cmp	r2, #0
  405c98:	f040 80fb 	bne.w	405e92 <_vfiprintf_r+0xb62>
  405c9c:	9a03      	ldr	r2, [sp, #12]
  405c9e:	921b      	str	r2, [sp, #108]	; 0x6c
  405ca0:	2301      	movs	r3, #1
  405ca2:	920f      	str	r2, [sp, #60]	; 0x3c
  405ca4:	971a      	str	r7, [sp, #104]	; 0x68
  405ca6:	930e      	str	r3, [sp, #56]	; 0x38
  405ca8:	46da      	mov	sl, fp
  405caa:	f10a 0a08 	add.w	sl, sl, #8
  405cae:	0771      	lsls	r1, r6, #29
  405cb0:	d504      	bpl.n	405cbc <_vfiprintf_r+0x98c>
  405cb2:	9b06      	ldr	r3, [sp, #24]
  405cb4:	1b5c      	subs	r4, r3, r5
  405cb6:	2c00      	cmp	r4, #0
  405cb8:	f73f ad34 	bgt.w	405724 <_vfiprintf_r+0x3f4>
  405cbc:	9b02      	ldr	r3, [sp, #8]
  405cbe:	9906      	ldr	r1, [sp, #24]
  405cc0:	42a9      	cmp	r1, r5
  405cc2:	bfac      	ite	ge
  405cc4:	185b      	addge	r3, r3, r1
  405cc6:	195b      	addlt	r3, r3, r5
  405cc8:	9302      	str	r3, [sp, #8]
  405cca:	2a00      	cmp	r2, #0
  405ccc:	f040 80b3 	bne.w	405e36 <_vfiprintf_r+0xb06>
  405cd0:	2300      	movs	r3, #0
  405cd2:	930e      	str	r3, [sp, #56]	; 0x38
  405cd4:	46da      	mov	sl, fp
  405cd6:	f7ff bb5c 	b.w	405392 <_vfiprintf_r+0x62>
  405cda:	aa0d      	add	r2, sp, #52	; 0x34
  405cdc:	9900      	ldr	r1, [sp, #0]
  405cde:	9307      	str	r3, [sp, #28]
  405ce0:	4648      	mov	r0, r9
  405ce2:	f7ff fae9 	bl	4052b8 <__sprint_r.part.0>
  405ce6:	2800      	cmp	r0, #0
  405ce8:	d1c0      	bne.n	405c6c <_vfiprintf_r+0x93c>
  405cea:	980e      	ldr	r0, [sp, #56]	; 0x38
  405cec:	9a0f      	ldr	r2, [sp, #60]	; 0x3c
  405cee:	9b07      	ldr	r3, [sp, #28]
  405cf0:	f100 0c01 	add.w	ip, r0, #1
  405cf4:	46de      	mov	lr, fp
  405cf6:	e4cb      	b.n	405690 <_vfiprintf_r+0x360>
  405cf8:	00409a3c 	.word	0x00409a3c
  405cfc:	00409a50 	.word	0x00409a50
  405d00:	00409a80 	.word	0x00409a80
  405d04:	2a00      	cmp	r2, #0
  405d06:	f040 8133 	bne.w	405f70 <_vfiprintf_r+0xc40>
  405d0a:	f89d 302f 	ldrb.w	r3, [sp, #47]	; 0x2f
  405d0e:	2b00      	cmp	r3, #0
  405d10:	f000 80f5 	beq.w	405efe <_vfiprintf_r+0xbce>
  405d14:	2301      	movs	r3, #1
  405d16:	f10d 012f 	add.w	r1, sp, #47	; 0x2f
  405d1a:	461a      	mov	r2, r3
  405d1c:	931b      	str	r3, [sp, #108]	; 0x6c
  405d1e:	469e      	mov	lr, r3
  405d20:	911a      	str	r1, [sp, #104]	; 0x68
  405d22:	46da      	mov	sl, fp
  405d24:	4670      	mov	r0, lr
  405d26:	f10a 0a08 	add.w	sl, sl, #8
  405d2a:	f10e 0e01 	add.w	lr, lr, #1
  405d2e:	e47d      	b.n	40562c <_vfiprintf_r+0x2fc>
  405d30:	a90c      	add	r1, sp, #48	; 0x30
  405d32:	2202      	movs	r2, #2
  405d34:	469e      	mov	lr, r3
  405d36:	911a      	str	r1, [sp, #104]	; 0x68
  405d38:	921b      	str	r2, [sp, #108]	; 0x6c
  405d3a:	46da      	mov	sl, fp
  405d3c:	4670      	mov	r0, lr
  405d3e:	f10a 0a08 	add.w	sl, sl, #8
  405d42:	f10e 0e01 	add.w	lr, lr, #1
  405d46:	e738      	b.n	405bba <_vfiprintf_r+0x88a>
  405d48:	9b01      	ldr	r3, [sp, #4]
  405d4a:	f88d 902f 	strb.w	r9, [sp, #47]	; 0x2f
  405d4e:	2b00      	cmp	r3, #0
  405d50:	f2c0 812a 	blt.w	405fa8 <_vfiprintf_r+0xc78>
  405d54:	ea54 0305 	orrs.w	r3, r4, r5
  405d58:	f026 0680 	bic.w	r6, r6, #128	; 0x80
  405d5c:	f43f abff 	beq.w	40555e <_vfiprintf_r+0x22e>
  405d60:	465f      	mov	r7, fp
  405d62:	0923      	lsrs	r3, r4, #4
  405d64:	f004 010f 	and.w	r1, r4, #15
  405d68:	ea43 7305 	orr.w	r3, r3, r5, lsl #28
  405d6c:	092a      	lsrs	r2, r5, #4
  405d6e:	461c      	mov	r4, r3
  405d70:	4615      	mov	r5, r2
  405d72:	5c43      	ldrb	r3, [r0, r1]
  405d74:	f807 3d01 	strb.w	r3, [r7, #-1]!
  405d78:	ea54 0305 	orrs.w	r3, r4, r5
  405d7c:	d1f1      	bne.n	405d62 <_vfiprintf_r+0xa32>
  405d7e:	ebc7 030b 	rsb	r3, r7, fp
  405d82:	9303      	str	r3, [sp, #12]
  405d84:	f7ff bbf4 	b.w	405570 <_vfiprintf_r+0x240>
  405d88:	aa0d      	add	r2, sp, #52	; 0x34
  405d8a:	9900      	ldr	r1, [sp, #0]
  405d8c:	9805      	ldr	r0, [sp, #20]
  405d8e:	f7ff fa93 	bl	4052b8 <__sprint_r.part.0>
  405d92:	2800      	cmp	r0, #0
  405d94:	f47f af6a 	bne.w	405c6c <_vfiprintf_r+0x93c>
  405d98:	9a0f      	ldr	r2, [sp, #60]	; 0x3c
  405d9a:	46da      	mov	sl, fp
  405d9c:	e787      	b.n	405cae <_vfiprintf_r+0x97e>
  405d9e:	f04f 0900 	mov.w	r9, #0
  405da2:	2400      	movs	r4, #0
  405da4:	2500      	movs	r5, #0
  405da6:	e7db      	b.n	405d60 <_vfiprintf_r+0xa30>
  405da8:	f016 0210 	ands.w	r2, r6, #16
  405dac:	f000 80b2 	beq.w	405f14 <_vfiprintf_r+0xbe4>
  405db0:	9904      	ldr	r1, [sp, #16]
  405db2:	f88d 302f 	strb.w	r3, [sp, #47]	; 0x2f
  405db6:	460a      	mov	r2, r1
  405db8:	680c      	ldr	r4, [r1, #0]
  405dba:	9901      	ldr	r1, [sp, #4]
  405dbc:	2900      	cmp	r1, #0
  405dbe:	f102 0204 	add.w	r2, r2, #4
  405dc2:	f04f 0500 	mov.w	r5, #0
  405dc6:	f2c0 8159 	blt.w	40607c <_vfiprintf_r+0xd4c>
  405dca:	ea54 0105 	orrs.w	r1, r4, r5
  405dce:	f026 0680 	bic.w	r6, r6, #128	; 0x80
  405dd2:	9204      	str	r2, [sp, #16]
  405dd4:	f43f ad51 	beq.w	40587a <_vfiprintf_r+0x54a>
  405dd8:	4699      	mov	r9, r3
  405dda:	e556      	b.n	40588a <_vfiprintf_r+0x55a>
  405ddc:	06f7      	lsls	r7, r6, #27
  405dde:	d40a      	bmi.n	405df6 <_vfiprintf_r+0xac6>
  405de0:	0675      	lsls	r5, r6, #25
  405de2:	d508      	bpl.n	405df6 <_vfiprintf_r+0xac6>
  405de4:	9904      	ldr	r1, [sp, #16]
  405de6:	f9b1 4000 	ldrsh.w	r4, [r1]
  405dea:	3104      	adds	r1, #4
  405dec:	17e5      	asrs	r5, r4, #31
  405dee:	4622      	mov	r2, r4
  405df0:	462b      	mov	r3, r5
  405df2:	9104      	str	r1, [sp, #16]
  405df4:	e4ea      	b.n	4057cc <_vfiprintf_r+0x49c>
  405df6:	9a04      	ldr	r2, [sp, #16]
  405df8:	6814      	ldr	r4, [r2, #0]
  405dfa:	4613      	mov	r3, r2
  405dfc:	3304      	adds	r3, #4
  405dfe:	17e5      	asrs	r5, r4, #31
  405e00:	9304      	str	r3, [sp, #16]
  405e02:	4622      	mov	r2, r4
  405e04:	462b      	mov	r3, r5
  405e06:	e4e1      	b.n	4057cc <_vfiprintf_r+0x49c>
  405e08:	6814      	ldr	r4, [r2, #0]
  405e0a:	3204      	adds	r2, #4
  405e0c:	9204      	str	r2, [sp, #16]
  405e0e:	2500      	movs	r5, #0
  405e10:	e61f      	b.n	405a52 <_vfiprintf_r+0x722>
  405e12:	f04f 0900 	mov.w	r9, #0
  405e16:	ea54 0305 	orrs.w	r3, r4, r5
  405e1a:	f47f ace8 	bne.w	4057ee <_vfiprintf_r+0x4be>
  405e1e:	e5d8      	b.n	4059d2 <_vfiprintf_r+0x6a2>
  405e20:	aa0d      	add	r2, sp, #52	; 0x34
  405e22:	9900      	ldr	r1, [sp, #0]
  405e24:	9805      	ldr	r0, [sp, #20]
  405e26:	f7ff fa47 	bl	4052b8 <__sprint_r.part.0>
  405e2a:	2800      	cmp	r0, #0
  405e2c:	f47f af1e 	bne.w	405c6c <_vfiprintf_r+0x93c>
  405e30:	46da      	mov	sl, fp
  405e32:	f7ff bb48 	b.w	4054c6 <_vfiprintf_r+0x196>
  405e36:	aa0d      	add	r2, sp, #52	; 0x34
  405e38:	9900      	ldr	r1, [sp, #0]
  405e3a:	9805      	ldr	r0, [sp, #20]
  405e3c:	f7ff fa3c 	bl	4052b8 <__sprint_r.part.0>
  405e40:	2800      	cmp	r0, #0
  405e42:	f43f af45 	beq.w	405cd0 <_vfiprintf_r+0x9a0>
  405e46:	e711      	b.n	405c6c <_vfiprintf_r+0x93c>
  405e48:	aa0d      	add	r2, sp, #52	; 0x34
  405e4a:	9900      	ldr	r1, [sp, #0]
  405e4c:	9805      	ldr	r0, [sp, #20]
  405e4e:	f7ff fa33 	bl	4052b8 <__sprint_r.part.0>
  405e52:	2800      	cmp	r0, #0
  405e54:	f47f af0a 	bne.w	405c6c <_vfiprintf_r+0x93c>
  405e58:	980e      	ldr	r0, [sp, #56]	; 0x38
  405e5a:	9a0f      	ldr	r2, [sp, #60]	; 0x3c
  405e5c:	f100 0e01 	add.w	lr, r0, #1
  405e60:	46da      	mov	sl, fp
  405e62:	f7ff bbe3 	b.w	40562c <_vfiprintf_r+0x2fc>
  405e66:	aa0d      	add	r2, sp, #52	; 0x34
  405e68:	9900      	ldr	r1, [sp, #0]
  405e6a:	9805      	ldr	r0, [sp, #20]
  405e6c:	f7ff fa24 	bl	4052b8 <__sprint_r.part.0>
  405e70:	2800      	cmp	r0, #0
  405e72:	f47f aefb 	bne.w	405c6c <_vfiprintf_r+0x93c>
  405e76:	980e      	ldr	r0, [sp, #56]	; 0x38
  405e78:	9a0f      	ldr	r2, [sp, #60]	; 0x3c
  405e7a:	f100 0e01 	add.w	lr, r0, #1
  405e7e:	46da      	mov	sl, fp
  405e80:	e69b      	b.n	405bba <_vfiprintf_r+0x88a>
  405e82:	2a00      	cmp	r2, #0
  405e84:	f040 80d8 	bne.w	406038 <_vfiprintf_r+0xd08>
  405e88:	f04f 0e01 	mov.w	lr, #1
  405e8c:	4610      	mov	r0, r2
  405e8e:	46da      	mov	sl, fp
  405e90:	e697      	b.n	405bc2 <_vfiprintf_r+0x892>
  405e92:	aa0d      	add	r2, sp, #52	; 0x34
  405e94:	9900      	ldr	r1, [sp, #0]
  405e96:	9805      	ldr	r0, [sp, #20]
  405e98:	f7ff fa0e 	bl	4052b8 <__sprint_r.part.0>
  405e9c:	2800      	cmp	r0, #0
  405e9e:	f47f aee5 	bne.w	405c6c <_vfiprintf_r+0x93c>
  405ea2:	9b0e      	ldr	r3, [sp, #56]	; 0x38
  405ea4:	9a0f      	ldr	r2, [sp, #60]	; 0x3c
  405ea6:	f103 0e01 	add.w	lr, r3, #1
  405eaa:	46da      	mov	sl, fp
  405eac:	e422      	b.n	4056f4 <_vfiprintf_r+0x3c4>
  405eae:	2230      	movs	r2, #48	; 0x30
  405eb0:	f88d 2030 	strb.w	r2, [sp, #48]	; 0x30
  405eb4:	9a01      	ldr	r2, [sp, #4]
  405eb6:	f88d 3031 	strb.w	r3, [sp, #49]	; 0x31
  405eba:	2a00      	cmp	r2, #0
  405ebc:	f04f 0300 	mov.w	r3, #0
  405ec0:	f88d 302f 	strb.w	r3, [sp, #47]	; 0x2f
  405ec4:	f046 0302 	orr.w	r3, r6, #2
  405ec8:	f2c0 80cb 	blt.w	406062 <_vfiprintf_r+0xd32>
  405ecc:	f026 0680 	bic.w	r6, r6, #128	; 0x80
  405ed0:	f046 0602 	orr.w	r6, r6, #2
  405ed4:	f04f 0900 	mov.w	r9, #0
  405ed8:	e742      	b.n	405d60 <_vfiprintf_r+0xa30>
  405eda:	f04f 0900 	mov.w	r9, #0
  405ede:	4890      	ldr	r0, [pc, #576]	; (406120 <_vfiprintf_r+0xdf0>)
  405ee0:	e73e      	b.n	405d60 <_vfiprintf_r+0xa30>
  405ee2:	9b01      	ldr	r3, [sp, #4]
  405ee4:	4264      	negs	r4, r4
  405ee6:	f04f 092d 	mov.w	r9, #45	; 0x2d
  405eea:	eb65 0545 	sbc.w	r5, r5, r5, lsl #1
  405eee:	2b00      	cmp	r3, #0
  405ef0:	f88d 902f 	strb.w	r9, [sp, #47]	; 0x2f
  405ef4:	f6ff ac7b 	blt.w	4057ee <_vfiprintf_r+0x4be>
  405ef8:	f026 0680 	bic.w	r6, r6, #128	; 0x80
  405efc:	e477      	b.n	4057ee <_vfiprintf_r+0x4be>
  405efe:	9b07      	ldr	r3, [sp, #28]
  405f00:	2b00      	cmp	r3, #0
  405f02:	d072      	beq.n	405fea <_vfiprintf_r+0xcba>
  405f04:	ab0c      	add	r3, sp, #48	; 0x30
  405f06:	2202      	movs	r2, #2
  405f08:	931a      	str	r3, [sp, #104]	; 0x68
  405f0a:	921b      	str	r2, [sp, #108]	; 0x6c
  405f0c:	f04f 0e01 	mov.w	lr, #1
  405f10:	46da      	mov	sl, fp
  405f12:	e713      	b.n	405d3c <_vfiprintf_r+0xa0c>
  405f14:	f016 0940 	ands.w	r9, r6, #64	; 0x40
  405f18:	d048      	beq.n	405fac <_vfiprintf_r+0xc7c>
  405f1a:	9904      	ldr	r1, [sp, #16]
  405f1c:	f88d 202f 	strb.w	r2, [sp, #47]	; 0x2f
  405f20:	460b      	mov	r3, r1
  405f22:	880c      	ldrh	r4, [r1, #0]
  405f24:	9901      	ldr	r1, [sp, #4]
  405f26:	2900      	cmp	r1, #0
  405f28:	f103 0304 	add.w	r3, r3, #4
  405f2c:	f04f 0500 	mov.w	r5, #0
  405f30:	f6ff ae10 	blt.w	405b54 <_vfiprintf_r+0x824>
  405f34:	ea54 0105 	orrs.w	r1, r4, r5
  405f38:	f026 0680 	bic.w	r6, r6, #128	; 0x80
  405f3c:	9304      	str	r3, [sp, #16]
  405f3e:	f43f ac9c 	beq.w	40587a <_vfiprintf_r+0x54a>
  405f42:	4691      	mov	r9, r2
  405f44:	e4a1      	b.n	40588a <_vfiprintf_r+0x55a>
  405f46:	06f0      	lsls	r0, r6, #27
  405f48:	d40a      	bmi.n	405f60 <_vfiprintf_r+0xc30>
  405f4a:	0671      	lsls	r1, r6, #25
  405f4c:	d508      	bpl.n	405f60 <_vfiprintf_r+0xc30>
  405f4e:	9a04      	ldr	r2, [sp, #16]
  405f50:	6813      	ldr	r3, [r2, #0]
  405f52:	3204      	adds	r2, #4
  405f54:	9204      	str	r2, [sp, #16]
  405f56:	f8bd 2008 	ldrh.w	r2, [sp, #8]
  405f5a:	801a      	strh	r2, [r3, #0]
  405f5c:	f7ff ba19 	b.w	405392 <_vfiprintf_r+0x62>
  405f60:	9a04      	ldr	r2, [sp, #16]
  405f62:	6813      	ldr	r3, [r2, #0]
  405f64:	3204      	adds	r2, #4
  405f66:	9204      	str	r2, [sp, #16]
  405f68:	9a02      	ldr	r2, [sp, #8]
  405f6a:	601a      	str	r2, [r3, #0]
  405f6c:	f7ff ba11 	b.w	405392 <_vfiprintf_r+0x62>
  405f70:	aa0d      	add	r2, sp, #52	; 0x34
  405f72:	9900      	ldr	r1, [sp, #0]
  405f74:	9805      	ldr	r0, [sp, #20]
  405f76:	f7ff f99f 	bl	4052b8 <__sprint_r.part.0>
  405f7a:	2800      	cmp	r0, #0
  405f7c:	f47f ae76 	bne.w	405c6c <_vfiprintf_r+0x93c>
  405f80:	980e      	ldr	r0, [sp, #56]	; 0x38
  405f82:	9a0f      	ldr	r2, [sp, #60]	; 0x3c
  405f84:	f100 0e01 	add.w	lr, r0, #1
  405f88:	46da      	mov	sl, fp
  405f8a:	e5fa      	b.n	405b82 <_vfiprintf_r+0x852>
  405f8c:	f04f 30ff 	mov.w	r0, #4294967295
  405f90:	f7ff bab6 	b.w	405500 <_vfiprintf_r+0x1d0>
  405f94:	4862      	ldr	r0, [pc, #392]	; (406120 <_vfiprintf_r+0xdf0>)
  405f96:	4616      	mov	r6, r2
  405f98:	ea54 0205 	orrs.w	r2, r4, r5
  405f9c:	9304      	str	r3, [sp, #16]
  405f9e:	f04f 0900 	mov.w	r9, #0
  405fa2:	f47f aedd 	bne.w	405d60 <_vfiprintf_r+0xa30>
  405fa6:	e6fc      	b.n	405da2 <_vfiprintf_r+0xa72>
  405fa8:	9b04      	ldr	r3, [sp, #16]
  405faa:	e7f5      	b.n	405f98 <_vfiprintf_r+0xc68>
  405fac:	9a04      	ldr	r2, [sp, #16]
  405fae:	f88d 902f 	strb.w	r9, [sp, #47]	; 0x2f
  405fb2:	4613      	mov	r3, r2
  405fb4:	6814      	ldr	r4, [r2, #0]
  405fb6:	9a01      	ldr	r2, [sp, #4]
  405fb8:	2a00      	cmp	r2, #0
  405fba:	f103 0304 	add.w	r3, r3, #4
  405fbe:	f04f 0500 	mov.w	r5, #0
  405fc2:	f6ff adc7 	blt.w	405b54 <_vfiprintf_r+0x824>
  405fc6:	ea54 0205 	orrs.w	r2, r4, r5
  405fca:	f026 0680 	bic.w	r6, r6, #128	; 0x80
  405fce:	9304      	str	r3, [sp, #16]
  405fd0:	f47f ac5b 	bne.w	40588a <_vfiprintf_r+0x55a>
  405fd4:	e451      	b.n	40587a <_vfiprintf_r+0x54a>
  405fd6:	aa0d      	add	r2, sp, #52	; 0x34
  405fd8:	9900      	ldr	r1, [sp, #0]
  405fda:	9805      	ldr	r0, [sp, #20]
  405fdc:	f7ff f96c 	bl	4052b8 <__sprint_r.part.0>
  405fe0:	2800      	cmp	r0, #0
  405fe2:	f47f ae43 	bne.w	405c6c <_vfiprintf_r+0x93c>
  405fe6:	9a0f      	ldr	r2, [sp, #60]	; 0x3c
  405fe8:	e668      	b.n	405cbc <_vfiprintf_r+0x98c>
  405fea:	4610      	mov	r0, r2
  405fec:	f04f 0e01 	mov.w	lr, #1
  405ff0:	46da      	mov	sl, fp
  405ff2:	e5e6      	b.n	405bc2 <_vfiprintf_r+0x892>
  405ff4:	9904      	ldr	r1, [sp, #16]
  405ff6:	f88d 302f 	strb.w	r3, [sp, #47]	; 0x2f
  405ffa:	460a      	mov	r2, r1
  405ffc:	880c      	ldrh	r4, [r1, #0]
  405ffe:	9901      	ldr	r1, [sp, #4]
  406000:	2900      	cmp	r1, #0
  406002:	f102 0204 	add.w	r2, r2, #4
  406006:	f04f 0500 	mov.w	r5, #0
  40600a:	db4e      	blt.n	4060aa <_vfiprintf_r+0xd7a>
  40600c:	ea54 0105 	orrs.w	r1, r4, r5
  406010:	f026 0680 	bic.w	r6, r6, #128	; 0x80
  406014:	9204      	str	r2, [sp, #16]
  406016:	4699      	mov	r9, r3
  406018:	f47f abe9 	bne.w	4057ee <_vfiprintf_r+0x4be>
  40601c:	e4d4      	b.n	4059c8 <_vfiprintf_r+0x698>
  40601e:	9304      	str	r3, [sp, #16]
  406020:	e6f9      	b.n	405e16 <_vfiprintf_r+0xae6>
  406022:	4638      	mov	r0, r7
  406024:	9404      	str	r4, [sp, #16]
  406026:	f7fd fd8b 	bl	403b40 <strlen>
  40602a:	2300      	movs	r3, #0
  40602c:	9003      	str	r0, [sp, #12]
  40602e:	f89d 902f 	ldrb.w	r9, [sp, #47]	; 0x2f
  406032:	9301      	str	r3, [sp, #4]
  406034:	f7ff ba9c 	b.w	405570 <_vfiprintf_r+0x240>
  406038:	aa0d      	add	r2, sp, #52	; 0x34
  40603a:	9900      	ldr	r1, [sp, #0]
  40603c:	9805      	ldr	r0, [sp, #20]
  40603e:	f7ff f93b 	bl	4052b8 <__sprint_r.part.0>
  406042:	2800      	cmp	r0, #0
  406044:	f47f ae12 	bne.w	405c6c <_vfiprintf_r+0x93c>
  406048:	980e      	ldr	r0, [sp, #56]	; 0x38
  40604a:	9a0f      	ldr	r2, [sp, #60]	; 0x3c
  40604c:	f100 0e01 	add.w	lr, r0, #1
  406050:	46da      	mov	sl, fp
  406052:	e5b6      	b.n	405bc2 <_vfiprintf_r+0x892>
  406054:	980e      	ldr	r0, [sp, #56]	; 0x38
  406056:	9a0f      	ldr	r2, [sp, #60]	; 0x3c
  406058:	f8df 90cc 	ldr.w	r9, [pc, #204]	; 406128 <_vfiprintf_r+0xdf8>
  40605c:	3001      	adds	r0, #1
  40605e:	f7ff bad2 	b.w	405606 <_vfiprintf_r+0x2d6>
  406062:	461e      	mov	r6, r3
  406064:	f04f 0900 	mov.w	r9, #0
  406068:	e67a      	b.n	405d60 <_vfiprintf_r+0xa30>
  40606a:	2b06      	cmp	r3, #6
  40606c:	bf28      	it	cs
  40606e:	2306      	movcs	r3, #6
  406070:	9303      	str	r3, [sp, #12]
  406072:	9404      	str	r4, [sp, #16]
  406074:	ea23 75e3 	bic.w	r5, r3, r3, asr #31
  406078:	4f2a      	ldr	r7, [pc, #168]	; (406124 <_vfiprintf_r+0xdf4>)
  40607a:	e50c      	b.n	405a96 <_vfiprintf_r+0x766>
  40607c:	9204      	str	r2, [sp, #16]
  40607e:	e56a      	b.n	405b56 <_vfiprintf_r+0x826>
  406080:	980e      	ldr	r0, [sp, #56]	; 0x38
  406082:	f8df 90a4 	ldr.w	r9, [pc, #164]	; 406128 <_vfiprintf_r+0xdf8>
  406086:	3001      	adds	r0, #1
  406088:	f7ff bb73 	b.w	405772 <_vfiprintf_r+0x442>
  40608c:	46f4      	mov	ip, lr
  40608e:	f7ff bb1a 	b.w	4056c6 <_vfiprintf_r+0x396>
  406092:	9b01      	ldr	r3, [sp, #4]
  406094:	f89d 902f 	ldrb.w	r9, [sp, #47]	; 0x2f
  406098:	9303      	str	r3, [sp, #12]
  40609a:	9404      	str	r4, [sp, #16]
  40609c:	9001      	str	r0, [sp, #4]
  40609e:	f7ff ba67 	b.w	405570 <_vfiprintf_r+0x240>
  4060a2:	2200      	movs	r2, #0
  4060a4:	9201      	str	r2, [sp, #4]
  4060a6:	f7ff b9ac 	b.w	405402 <_vfiprintf_r+0xd2>
  4060aa:	9204      	str	r2, [sp, #16]
  4060ac:	4699      	mov	r9, r3
  4060ae:	e6b2      	b.n	405e16 <_vfiprintf_r+0xae6>
  4060b0:	9a04      	ldr	r2, [sp, #16]
  4060b2:	6813      	ldr	r3, [r2, #0]
  4060b4:	9301      	str	r3, [sp, #4]
  4060b6:	3204      	adds	r2, #4
  4060b8:	2b00      	cmp	r3, #0
  4060ba:	9204      	str	r2, [sp, #16]
  4060bc:	f898 3001 	ldrb.w	r3, [r8, #1]
  4060c0:	46a8      	mov	r8, r5
  4060c2:	f6bf a99c 	bge.w	4053fe <_vfiprintf_r+0xce>
  4060c6:	f04f 32ff 	mov.w	r2, #4294967295
  4060ca:	9201      	str	r2, [sp, #4]
  4060cc:	f7ff b997 	b.w	4053fe <_vfiprintf_r+0xce>
  4060d0:	f88d 002f 	strb.w	r0, [sp, #47]	; 0x2f
  4060d4:	e48e      	b.n	4059f4 <_vfiprintf_r+0x6c4>
  4060d6:	f88d 002f 	strb.w	r0, [sp, #47]	; 0x2f
  4060da:	e4f0      	b.n	405abe <_vfiprintf_r+0x78e>
  4060dc:	f88d 002f 	strb.w	r0, [sp, #47]	; 0x2f
  4060e0:	e4ab      	b.n	405a3a <_vfiprintf_r+0x70a>
  4060e2:	4699      	mov	r9, r3
  4060e4:	07f3      	lsls	r3, r6, #31
  4060e6:	d505      	bpl.n	4060f4 <_vfiprintf_r+0xdc4>
  4060e8:	af2a      	add	r7, sp, #168	; 0xa8
  4060ea:	2330      	movs	r3, #48	; 0x30
  4060ec:	f807 3d41 	strb.w	r3, [r7, #-65]!
  4060f0:	f7ff bb97 	b.w	405822 <_vfiprintf_r+0x4f2>
  4060f4:	9b01      	ldr	r3, [sp, #4]
  4060f6:	9303      	str	r3, [sp, #12]
  4060f8:	465f      	mov	r7, fp
  4060fa:	f7ff ba39 	b.w	405570 <_vfiprintf_r+0x240>
  4060fe:	f88d 002f 	strb.w	r0, [sp, #47]	; 0x2f
  406102:	e443      	b.n	40598c <_vfiprintf_r+0x65c>
  406104:	f88d 002f 	strb.w	r0, [sp, #47]	; 0x2f
  406108:	f7ff bb9a 	b.w	405840 <_vfiprintf_r+0x510>
  40610c:	f88d 002f 	strb.w	r0, [sp, #47]	; 0x2f
  406110:	f7ff bb4d 	b.w	4057ae <_vfiprintf_r+0x47e>
  406114:	f88d 002f 	strb.w	r0, [sp, #47]	; 0x2f
  406118:	e50f      	b.n	405b3a <_vfiprintf_r+0x80a>
  40611a:	f88d 002f 	strb.w	r0, [sp, #47]	; 0x2f
  40611e:	e4f3      	b.n	405b08 <_vfiprintf_r+0x7d8>
  406120:	00409a50 	.word	0x00409a50
  406124:	00409a64 	.word	0x00409a64
  406128:	00409a90 	.word	0x00409a90

0040612c <__sbprintf>:
  40612c:	b5f0      	push	{r4, r5, r6, r7, lr}
  40612e:	460c      	mov	r4, r1
  406130:	f2ad 4d6c 	subw	sp, sp, #1132	; 0x46c
  406134:	8989      	ldrh	r1, [r1, #12]
  406136:	6e66      	ldr	r6, [r4, #100]	; 0x64
  406138:	89e5      	ldrh	r5, [r4, #14]
  40613a:	9619      	str	r6, [sp, #100]	; 0x64
  40613c:	f021 0102 	bic.w	r1, r1, #2
  406140:	6a66      	ldr	r6, [r4, #36]	; 0x24
  406142:	f8ad 500e 	strh.w	r5, [sp, #14]
  406146:	2500      	movs	r5, #0
  406148:	69e7      	ldr	r7, [r4, #28]
  40614a:	f8ad 100c 	strh.w	r1, [sp, #12]
  40614e:	9609      	str	r6, [sp, #36]	; 0x24
  406150:	9506      	str	r5, [sp, #24]
  406152:	ae1a      	add	r6, sp, #104	; 0x68
  406154:	f44f 6580 	mov.w	r5, #1024	; 0x400
  406158:	4669      	mov	r1, sp
  40615a:	9600      	str	r6, [sp, #0]
  40615c:	9604      	str	r6, [sp, #16]
  40615e:	9502      	str	r5, [sp, #8]
  406160:	9505      	str	r5, [sp, #20]
  406162:	9707      	str	r7, [sp, #28]
  406164:	4606      	mov	r6, r0
  406166:	f7ff f8e3 	bl	405330 <_vfiprintf_r>
  40616a:	1e05      	subs	r5, r0, #0
  40616c:	db07      	blt.n	40617e <__sbprintf+0x52>
  40616e:	4630      	mov	r0, r6
  406170:	4669      	mov	r1, sp
  406172:	f001 f8e9 	bl	407348 <_fflush_r>
  406176:	2800      	cmp	r0, #0
  406178:	bf18      	it	ne
  40617a:	f04f 35ff 	movne.w	r5, #4294967295
  40617e:	f8bd 300c 	ldrh.w	r3, [sp, #12]
  406182:	065b      	lsls	r3, r3, #25
  406184:	d503      	bpl.n	40618e <__sbprintf+0x62>
  406186:	89a3      	ldrh	r3, [r4, #12]
  406188:	f043 0340 	orr.w	r3, r3, #64	; 0x40
  40618c:	81a3      	strh	r3, [r4, #12]
  40618e:	4628      	mov	r0, r5
  406190:	f20d 4d6c 	addw	sp, sp, #1132	; 0x46c
  406194:	bdf0      	pop	{r4, r5, r6, r7, pc}
  406196:	bf00      	nop

00406198 <__swsetup_r>:
  406198:	b538      	push	{r3, r4, r5, lr}
  40619a:	4b30      	ldr	r3, [pc, #192]	; (40625c <__swsetup_r+0xc4>)
  40619c:	681b      	ldr	r3, [r3, #0]
  40619e:	4605      	mov	r5, r0
  4061a0:	460c      	mov	r4, r1
  4061a2:	b113      	cbz	r3, 4061aa <__swsetup_r+0x12>
  4061a4:	6b9a      	ldr	r2, [r3, #56]	; 0x38
  4061a6:	2a00      	cmp	r2, #0
  4061a8:	d038      	beq.n	40621c <__swsetup_r+0x84>
  4061aa:	f9b4 200c 	ldrsh.w	r2, [r4, #12]
  4061ae:	b293      	uxth	r3, r2
  4061b0:	0718      	lsls	r0, r3, #28
  4061b2:	d50c      	bpl.n	4061ce <__swsetup_r+0x36>
  4061b4:	6920      	ldr	r0, [r4, #16]
  4061b6:	b1a8      	cbz	r0, 4061e4 <__swsetup_r+0x4c>
  4061b8:	f013 0201 	ands.w	r2, r3, #1
  4061bc:	d01e      	beq.n	4061fc <__swsetup_r+0x64>
  4061be:	6963      	ldr	r3, [r4, #20]
  4061c0:	2200      	movs	r2, #0
  4061c2:	425b      	negs	r3, r3
  4061c4:	61a3      	str	r3, [r4, #24]
  4061c6:	60a2      	str	r2, [r4, #8]
  4061c8:	b1f0      	cbz	r0, 406208 <__swsetup_r+0x70>
  4061ca:	2000      	movs	r0, #0
  4061cc:	bd38      	pop	{r3, r4, r5, pc}
  4061ce:	06d9      	lsls	r1, r3, #27
  4061d0:	d53c      	bpl.n	40624c <__swsetup_r+0xb4>
  4061d2:	0758      	lsls	r0, r3, #29
  4061d4:	d426      	bmi.n	406224 <__swsetup_r+0x8c>
  4061d6:	6920      	ldr	r0, [r4, #16]
  4061d8:	f042 0308 	orr.w	r3, r2, #8
  4061dc:	81a3      	strh	r3, [r4, #12]
  4061de:	b29b      	uxth	r3, r3
  4061e0:	2800      	cmp	r0, #0
  4061e2:	d1e9      	bne.n	4061b8 <__swsetup_r+0x20>
  4061e4:	f403 7220 	and.w	r2, r3, #640	; 0x280
  4061e8:	f5b2 7f00 	cmp.w	r2, #512	; 0x200
  4061ec:	d0e4      	beq.n	4061b8 <__swsetup_r+0x20>
  4061ee:	4628      	mov	r0, r5
  4061f0:	4621      	mov	r1, r4
  4061f2:	f001 fcd9 	bl	407ba8 <__smakebuf_r>
  4061f6:	89a3      	ldrh	r3, [r4, #12]
  4061f8:	6920      	ldr	r0, [r4, #16]
  4061fa:	e7dd      	b.n	4061b8 <__swsetup_r+0x20>
  4061fc:	0799      	lsls	r1, r3, #30
  4061fe:	bf58      	it	pl
  406200:	6962      	ldrpl	r2, [r4, #20]
  406202:	60a2      	str	r2, [r4, #8]
  406204:	2800      	cmp	r0, #0
  406206:	d1e0      	bne.n	4061ca <__swsetup_r+0x32>
  406208:	f9b4 300c 	ldrsh.w	r3, [r4, #12]
  40620c:	061a      	lsls	r2, r3, #24
  40620e:	d5dd      	bpl.n	4061cc <__swsetup_r+0x34>
  406210:	f043 0340 	orr.w	r3, r3, #64	; 0x40
  406214:	81a3      	strh	r3, [r4, #12]
  406216:	f04f 30ff 	mov.w	r0, #4294967295
  40621a:	bd38      	pop	{r3, r4, r5, pc}
  40621c:	4618      	mov	r0, r3
  40621e:	f001 f927 	bl	407470 <__sinit>
  406222:	e7c2      	b.n	4061aa <__swsetup_r+0x12>
  406224:	6b21      	ldr	r1, [r4, #48]	; 0x30
  406226:	b151      	cbz	r1, 40623e <__swsetup_r+0xa6>
  406228:	f104 0340 	add.w	r3, r4, #64	; 0x40
  40622c:	4299      	cmp	r1, r3
  40622e:	d004      	beq.n	40623a <__swsetup_r+0xa2>
  406230:	4628      	mov	r0, r5
  406232:	f001 f9e7 	bl	407604 <_free_r>
  406236:	f9b4 200c 	ldrsh.w	r2, [r4, #12]
  40623a:	2300      	movs	r3, #0
  40623c:	6323      	str	r3, [r4, #48]	; 0x30
  40623e:	2300      	movs	r3, #0
  406240:	6920      	ldr	r0, [r4, #16]
  406242:	6063      	str	r3, [r4, #4]
  406244:	f022 0224 	bic.w	r2, r2, #36	; 0x24
  406248:	6020      	str	r0, [r4, #0]
  40624a:	e7c5      	b.n	4061d8 <__swsetup_r+0x40>
  40624c:	f042 0240 	orr.w	r2, r2, #64	; 0x40
  406250:	2309      	movs	r3, #9
  406252:	602b      	str	r3, [r5, #0]
  406254:	f04f 30ff 	mov.w	r0, #4294967295
  406258:	81a2      	strh	r2, [r4, #12]
  40625a:	bd38      	pop	{r3, r4, r5, pc}
  40625c:	20400438 	.word	0x20400438

00406260 <register_fini>:
  406260:	4b02      	ldr	r3, [pc, #8]	; (40626c <register_fini+0xc>)
  406262:	b113      	cbz	r3, 40626a <register_fini+0xa>
  406264:	4802      	ldr	r0, [pc, #8]	; (406270 <register_fini+0x10>)
  406266:	f000 b805 	b.w	406274 <atexit>
  40626a:	4770      	bx	lr
  40626c:	00000000 	.word	0x00000000
  406270:	00407485 	.word	0x00407485

00406274 <atexit>:
  406274:	2300      	movs	r3, #0
  406276:	4601      	mov	r1, r0
  406278:	461a      	mov	r2, r3
  40627a:	4618      	mov	r0, r3
  40627c:	f002 bbf2 	b.w	408a64 <__register_exitproc>

00406280 <quorem>:
  406280:	6902      	ldr	r2, [r0, #16]
  406282:	690b      	ldr	r3, [r1, #16]
  406284:	4293      	cmp	r3, r2
  406286:	f300 808d 	bgt.w	4063a4 <quorem+0x124>
  40628a:	e92d 4ff0 	stmdb	sp!, {r4, r5, r6, r7, r8, r9, sl, fp, lr}
  40628e:	f103 38ff 	add.w	r8, r3, #4294967295
  406292:	f101 0714 	add.w	r7, r1, #20
  406296:	f100 0b14 	add.w	fp, r0, #20
  40629a:	f857 2028 	ldr.w	r2, [r7, r8, lsl #2]
  40629e:	f85b 3028 	ldr.w	r3, [fp, r8, lsl #2]
  4062a2:	ea4f 0488 	mov.w	r4, r8, lsl #2
  4062a6:	b083      	sub	sp, #12
  4062a8:	3201      	adds	r2, #1
  4062aa:	fbb3 f9f2 	udiv	r9, r3, r2
  4062ae:	eb0b 0304 	add.w	r3, fp, r4
  4062b2:	9400      	str	r4, [sp, #0]
  4062b4:	eb07 0a04 	add.w	sl, r7, r4
  4062b8:	9301      	str	r3, [sp, #4]
  4062ba:	f1b9 0f00 	cmp.w	r9, #0
  4062be:	d039      	beq.n	406334 <quorem+0xb4>
  4062c0:	2500      	movs	r5, #0
  4062c2:	46bc      	mov	ip, r7
  4062c4:	46de      	mov	lr, fp
  4062c6:	462b      	mov	r3, r5
  4062c8:	f85c 6b04 	ldr.w	r6, [ip], #4
  4062cc:	f8de 2000 	ldr.w	r2, [lr]
  4062d0:	b2b4      	uxth	r4, r6
  4062d2:	fb09 5504 	mla	r5, r9, r4, r5
  4062d6:	0c36      	lsrs	r6, r6, #16
  4062d8:	0c2c      	lsrs	r4, r5, #16
  4062da:	fb09 4406 	mla	r4, r9, r6, r4
  4062de:	b2ad      	uxth	r5, r5
  4062e0:	1b5b      	subs	r3, r3, r5
  4062e2:	b2a6      	uxth	r6, r4
  4062e4:	fa13 f382 	uxtah	r3, r3, r2
  4062e8:	ebc6 4612 	rsb	r6, r6, r2, lsr #16
  4062ec:	eb06 4623 	add.w	r6, r6, r3, asr #16
  4062f0:	b29b      	uxth	r3, r3
  4062f2:	ea43 4306 	orr.w	r3, r3, r6, lsl #16
  4062f6:	45e2      	cmp	sl, ip
  4062f8:	f84e 3b04 	str.w	r3, [lr], #4
  4062fc:	ea4f 4514 	mov.w	r5, r4, lsr #16
  406300:	ea4f 4326 	mov.w	r3, r6, asr #16
  406304:	d2e0      	bcs.n	4062c8 <quorem+0x48>
  406306:	9b00      	ldr	r3, [sp, #0]
  406308:	f85b 3003 	ldr.w	r3, [fp, r3]
  40630c:	b993      	cbnz	r3, 406334 <quorem+0xb4>
  40630e:	9c01      	ldr	r4, [sp, #4]
  406310:	1f23      	subs	r3, r4, #4
  406312:	459b      	cmp	fp, r3
  406314:	d20c      	bcs.n	406330 <quorem+0xb0>
  406316:	f854 3c04 	ldr.w	r3, [r4, #-4]
  40631a:	b94b      	cbnz	r3, 406330 <quorem+0xb0>
  40631c:	f1a4 0308 	sub.w	r3, r4, #8
  406320:	e002      	b.n	406328 <quorem+0xa8>
  406322:	681a      	ldr	r2, [r3, #0]
  406324:	3b04      	subs	r3, #4
  406326:	b91a      	cbnz	r2, 406330 <quorem+0xb0>
  406328:	459b      	cmp	fp, r3
  40632a:	f108 38ff 	add.w	r8, r8, #4294967295
  40632e:	d3f8      	bcc.n	406322 <quorem+0xa2>
  406330:	f8c0 8010 	str.w	r8, [r0, #16]
  406334:	4604      	mov	r4, r0
  406336:	f001 ff37 	bl	4081a8 <__mcmp>
  40633a:	2800      	cmp	r0, #0
  40633c:	db2e      	blt.n	40639c <quorem+0x11c>
  40633e:	f109 0901 	add.w	r9, r9, #1
  406342:	465d      	mov	r5, fp
  406344:	2300      	movs	r3, #0
  406346:	f857 1b04 	ldr.w	r1, [r7], #4
  40634a:	6828      	ldr	r0, [r5, #0]
  40634c:	b28a      	uxth	r2, r1
  40634e:	1a9a      	subs	r2, r3, r2
  406350:	0c09      	lsrs	r1, r1, #16
  406352:	fa12 f280 	uxtah	r2, r2, r0
  406356:	ebc1 4310 	rsb	r3, r1, r0, lsr #16
  40635a:	eb03 4322 	add.w	r3, r3, r2, asr #16
  40635e:	b291      	uxth	r1, r2
  406360:	ea41 4103 	orr.w	r1, r1, r3, lsl #16
  406364:	45ba      	cmp	sl, r7
  406366:	f845 1b04 	str.w	r1, [r5], #4
  40636a:	ea4f 4323 	mov.w	r3, r3, asr #16
  40636e:	d2ea      	bcs.n	406346 <quorem+0xc6>
  406370:	f85b 2028 	ldr.w	r2, [fp, r8, lsl #2]
  406374:	eb0b 0388 	add.w	r3, fp, r8, lsl #2
  406378:	b982      	cbnz	r2, 40639c <quorem+0x11c>
  40637a:	1f1a      	subs	r2, r3, #4
  40637c:	4593      	cmp	fp, r2
  40637e:	d20b      	bcs.n	406398 <quorem+0x118>
  406380:	f853 2c04 	ldr.w	r2, [r3, #-4]
  406384:	b942      	cbnz	r2, 406398 <quorem+0x118>
  406386:	3b08      	subs	r3, #8
  406388:	e002      	b.n	406390 <quorem+0x110>
  40638a:	681a      	ldr	r2, [r3, #0]
  40638c:	3b04      	subs	r3, #4
  40638e:	b91a      	cbnz	r2, 406398 <quorem+0x118>
  406390:	459b      	cmp	fp, r3
  406392:	f108 38ff 	add.w	r8, r8, #4294967295
  406396:	d3f8      	bcc.n	40638a <quorem+0x10a>
  406398:	f8c4 8010 	str.w	r8, [r4, #16]
  40639c:	4648      	mov	r0, r9
  40639e:	b003      	add	sp, #12
  4063a0:	e8bd 8ff0 	ldmia.w	sp!, {r4, r5, r6, r7, r8, r9, sl, fp, pc}
  4063a4:	2000      	movs	r0, #0
  4063a6:	4770      	bx	lr

004063a8 <_dtoa_r>:
  4063a8:	e92d 4ff0 	stmdb	sp!, {r4, r5, r6, r7, r8, r9, sl, fp, lr}
  4063ac:	6c01      	ldr	r1, [r0, #64]	; 0x40
  4063ae:	b097      	sub	sp, #92	; 0x5c
  4063b0:	4681      	mov	r9, r0
  4063b2:	9c23      	ldr	r4, [sp, #140]	; 0x8c
  4063b4:	4692      	mov	sl, r2
  4063b6:	469b      	mov	fp, r3
  4063b8:	b149      	cbz	r1, 4063ce <_dtoa_r+0x26>
  4063ba:	6c42      	ldr	r2, [r0, #68]	; 0x44
  4063bc:	604a      	str	r2, [r1, #4]
  4063be:	2301      	movs	r3, #1
  4063c0:	4093      	lsls	r3, r2
  4063c2:	608b      	str	r3, [r1, #8]
  4063c4:	f001 fd0e 	bl	407de4 <_Bfree>
  4063c8:	2300      	movs	r3, #0
  4063ca:	f8c9 3040 	str.w	r3, [r9, #64]	; 0x40
  4063ce:	f1bb 0f00 	cmp.w	fp, #0
  4063d2:	46d8      	mov	r8, fp
  4063d4:	db33      	blt.n	40643e <_dtoa_r+0x96>
  4063d6:	2300      	movs	r3, #0
  4063d8:	6023      	str	r3, [r4, #0]
  4063da:	4ba5      	ldr	r3, [pc, #660]	; (406670 <_dtoa_r+0x2c8>)
  4063dc:	461a      	mov	r2, r3
  4063de:	ea08 0303 	and.w	r3, r8, r3
  4063e2:	4293      	cmp	r3, r2
  4063e4:	d014      	beq.n	406410 <_dtoa_r+0x68>
  4063e6:	4650      	mov	r0, sl
  4063e8:	4659      	mov	r1, fp
  4063ea:	2200      	movs	r2, #0
  4063ec:	2300      	movs	r3, #0
  4063ee:	f003 f881 	bl	4094f4 <__aeabi_dcmpeq>
  4063f2:	4605      	mov	r5, r0
  4063f4:	b348      	cbz	r0, 40644a <_dtoa_r+0xa2>
  4063f6:	9a22      	ldr	r2, [sp, #136]	; 0x88
  4063f8:	2301      	movs	r3, #1
  4063fa:	6013      	str	r3, [r2, #0]
  4063fc:	9b24      	ldr	r3, [sp, #144]	; 0x90
  4063fe:	2b00      	cmp	r3, #0
  406400:	f000 80c5 	beq.w	40658e <_dtoa_r+0x1e6>
  406404:	489b      	ldr	r0, [pc, #620]	; (406674 <_dtoa_r+0x2cc>)
  406406:	6018      	str	r0, [r3, #0]
  406408:	3801      	subs	r0, #1
  40640a:	b017      	add	sp, #92	; 0x5c
  40640c:	e8bd 8ff0 	ldmia.w	sp!, {r4, r5, r6, r7, r8, r9, sl, fp, pc}
  406410:	9a22      	ldr	r2, [sp, #136]	; 0x88
  406412:	f242 730f 	movw	r3, #9999	; 0x270f
  406416:	6013      	str	r3, [r2, #0]
  406418:	f1ba 0f00 	cmp.w	sl, #0
  40641c:	f000 80a2 	beq.w	406564 <_dtoa_r+0x1bc>
  406420:	4895      	ldr	r0, [pc, #596]	; (406678 <_dtoa_r+0x2d0>)
  406422:	9b24      	ldr	r3, [sp, #144]	; 0x90
  406424:	2b00      	cmp	r3, #0
  406426:	d0f0      	beq.n	40640a <_dtoa_r+0x62>
  406428:	78c3      	ldrb	r3, [r0, #3]
  40642a:	2b00      	cmp	r3, #0
  40642c:	f000 80b1 	beq.w	406592 <_dtoa_r+0x1ea>
  406430:	f100 0308 	add.w	r3, r0, #8
  406434:	9a24      	ldr	r2, [sp, #144]	; 0x90
  406436:	6013      	str	r3, [r2, #0]
  406438:	b017      	add	sp, #92	; 0x5c
  40643a:	e8bd 8ff0 	ldmia.w	sp!, {r4, r5, r6, r7, r8, r9, sl, fp, pc}
  40643e:	2301      	movs	r3, #1
  406440:	f02b 4800 	bic.w	r8, fp, #2147483648	; 0x80000000
  406444:	6023      	str	r3, [r4, #0]
  406446:	46c3      	mov	fp, r8
  406448:	e7c7      	b.n	4063da <_dtoa_r+0x32>
  40644a:	aa14      	add	r2, sp, #80	; 0x50
  40644c:	ab15      	add	r3, sp, #84	; 0x54
  40644e:	9201      	str	r2, [sp, #4]
  406450:	9300      	str	r3, [sp, #0]
  406452:	4652      	mov	r2, sl
  406454:	465b      	mov	r3, fp
  406456:	4648      	mov	r0, r9
  406458:	f001 ff50 	bl	4082fc <__d2b>
  40645c:	ea5f 5418 	movs.w	r4, r8, lsr #20
  406460:	9008      	str	r0, [sp, #32]
  406462:	f040 8088 	bne.w	406576 <_dtoa_r+0x1ce>
  406466:	9d14      	ldr	r5, [sp, #80]	; 0x50
  406468:	9c15      	ldr	r4, [sp, #84]	; 0x54
  40646a:	442c      	add	r4, r5
  40646c:	f204 4332 	addw	r3, r4, #1074	; 0x432
  406470:	2b20      	cmp	r3, #32
  406472:	f340 8291 	ble.w	406998 <_dtoa_r+0x5f0>
  406476:	f1c3 0340 	rsb	r3, r3, #64	; 0x40
  40647a:	f204 4012 	addw	r0, r4, #1042	; 0x412
  40647e:	fa08 f803 	lsl.w	r8, r8, r3
  406482:	fa2a f000 	lsr.w	r0, sl, r0
  406486:	ea40 0008 	orr.w	r0, r0, r8
  40648a:	f002 fd55 	bl	408f38 <__aeabi_ui2d>
  40648e:	2301      	movs	r3, #1
  406490:	3c01      	subs	r4, #1
  406492:	f1a1 71f8 	sub.w	r1, r1, #32505856	; 0x1f00000
  406496:	9310      	str	r3, [sp, #64]	; 0x40
  406498:	2200      	movs	r2, #0
  40649a:	4b78      	ldr	r3, [pc, #480]	; (40667c <_dtoa_r+0x2d4>)
  40649c:	f002 fc0e 	bl	408cbc <__aeabi_dsub>
  4064a0:	a36d      	add	r3, pc, #436	; (adr r3, 406658 <_dtoa_r+0x2b0>)
  4064a2:	e9d3 2300 	ldrd	r2, r3, [r3]
  4064a6:	f002 fdbd 	bl	409024 <__aeabi_dmul>
  4064aa:	a36d      	add	r3, pc, #436	; (adr r3, 406660 <_dtoa_r+0x2b8>)
  4064ac:	e9d3 2300 	ldrd	r2, r3, [r3]
  4064b0:	f002 fc06 	bl	408cc0 <__adddf3>
  4064b4:	4606      	mov	r6, r0
  4064b6:	4620      	mov	r0, r4
  4064b8:	460f      	mov	r7, r1
  4064ba:	f002 fd4d 	bl	408f58 <__aeabi_i2d>
  4064be:	a36a      	add	r3, pc, #424	; (adr r3, 406668 <_dtoa_r+0x2c0>)
  4064c0:	e9d3 2300 	ldrd	r2, r3, [r3]
  4064c4:	f002 fdae 	bl	409024 <__aeabi_dmul>
  4064c8:	4602      	mov	r2, r0
  4064ca:	460b      	mov	r3, r1
  4064cc:	4630      	mov	r0, r6
  4064ce:	4639      	mov	r1, r7
  4064d0:	f002 fbf6 	bl	408cc0 <__adddf3>
  4064d4:	4606      	mov	r6, r0
  4064d6:	460f      	mov	r7, r1
  4064d8:	f003 f854 	bl	409584 <__aeabi_d2iz>
  4064dc:	2200      	movs	r2, #0
  4064de:	9004      	str	r0, [sp, #16]
  4064e0:	2300      	movs	r3, #0
  4064e2:	4630      	mov	r0, r6
  4064e4:	4639      	mov	r1, r7
  4064e6:	f003 f80f 	bl	409508 <__aeabi_dcmplt>
  4064ea:	2800      	cmp	r0, #0
  4064ec:	f040 8230 	bne.w	406950 <_dtoa_r+0x5a8>
  4064f0:	9e04      	ldr	r6, [sp, #16]
  4064f2:	2e16      	cmp	r6, #22
  4064f4:	f200 8229 	bhi.w	40694a <_dtoa_r+0x5a2>
  4064f8:	4b61      	ldr	r3, [pc, #388]	; (406680 <_dtoa_r+0x2d8>)
  4064fa:	eb03 03c6 	add.w	r3, r3, r6, lsl #3
  4064fe:	e9d3 0100 	ldrd	r0, r1, [r3]
  406502:	4652      	mov	r2, sl
  406504:	465b      	mov	r3, fp
  406506:	f003 f81d 	bl	409544 <__aeabi_dcmpgt>
  40650a:	2800      	cmp	r0, #0
  40650c:	f000 8249 	beq.w	4069a2 <_dtoa_r+0x5fa>
  406510:	1e73      	subs	r3, r6, #1
  406512:	9304      	str	r3, [sp, #16]
  406514:	2300      	movs	r3, #0
  406516:	930c      	str	r3, [sp, #48]	; 0x30
  406518:	1b2c      	subs	r4, r5, r4
  40651a:	1e63      	subs	r3, r4, #1
  40651c:	9302      	str	r3, [sp, #8]
  40651e:	f100 8232 	bmi.w	406986 <_dtoa_r+0x5de>
  406522:	2300      	movs	r3, #0
  406524:	9305      	str	r3, [sp, #20]
  406526:	9b04      	ldr	r3, [sp, #16]
  406528:	2b00      	cmp	r3, #0
  40652a:	f2c0 8223 	blt.w	406974 <_dtoa_r+0x5cc>
  40652e:	9a02      	ldr	r2, [sp, #8]
  406530:	930b      	str	r3, [sp, #44]	; 0x2c
  406532:	4611      	mov	r1, r2
  406534:	4419      	add	r1, r3
  406536:	2300      	movs	r3, #0
  406538:	9102      	str	r1, [sp, #8]
  40653a:	930a      	str	r3, [sp, #40]	; 0x28
  40653c:	9b20      	ldr	r3, [sp, #128]	; 0x80
  40653e:	2b09      	cmp	r3, #9
  406540:	d829      	bhi.n	406596 <_dtoa_r+0x1ee>
  406542:	2b05      	cmp	r3, #5
  406544:	f340 8658 	ble.w	4071f8 <_dtoa_r+0xe50>
  406548:	3b04      	subs	r3, #4
  40654a:	9320      	str	r3, [sp, #128]	; 0x80
  40654c:	2500      	movs	r5, #0
  40654e:	9b20      	ldr	r3, [sp, #128]	; 0x80
  406550:	3b02      	subs	r3, #2
  406552:	2b03      	cmp	r3, #3
  406554:	f200 8635 	bhi.w	4071c2 <_dtoa_r+0xe1a>
  406558:	e8df f013 	tbh	[pc, r3, lsl #1]
  40655c:	0228032c 	.word	0x0228032c
  406560:	04590337 	.word	0x04590337
  406564:	4b44      	ldr	r3, [pc, #272]	; (406678 <_dtoa_r+0x2d0>)
  406566:	4a47      	ldr	r2, [pc, #284]	; (406684 <_dtoa_r+0x2dc>)
  406568:	f3c8 0013 	ubfx	r0, r8, #0, #20
  40656c:	2800      	cmp	r0, #0
  40656e:	bf14      	ite	ne
  406570:	4618      	movne	r0, r3
  406572:	4610      	moveq	r0, r2
  406574:	e755      	b.n	406422 <_dtoa_r+0x7a>
  406576:	f3cb 0313 	ubfx	r3, fp, #0, #20
  40657a:	f043 517f 	orr.w	r1, r3, #1069547520	; 0x3fc00000
  40657e:	9510      	str	r5, [sp, #64]	; 0x40
  406580:	4650      	mov	r0, sl
  406582:	f2a4 34ff 	subw	r4, r4, #1023	; 0x3ff
  406586:	f441 1140 	orr.w	r1, r1, #3145728	; 0x300000
  40658a:	9d14      	ldr	r5, [sp, #80]	; 0x50
  40658c:	e784      	b.n	406498 <_dtoa_r+0xf0>
  40658e:	483e      	ldr	r0, [pc, #248]	; (406688 <_dtoa_r+0x2e0>)
  406590:	e73b      	b.n	40640a <_dtoa_r+0x62>
  406592:	1cc3      	adds	r3, r0, #3
  406594:	e74e      	b.n	406434 <_dtoa_r+0x8c>
  406596:	2100      	movs	r1, #0
  406598:	f8c9 1044 	str.w	r1, [r9, #68]	; 0x44
  40659c:	4648      	mov	r0, r9
  40659e:	9120      	str	r1, [sp, #128]	; 0x80
  4065a0:	f001 fbfa 	bl	407d98 <_Balloc>
  4065a4:	f04f 33ff 	mov.w	r3, #4294967295
  4065a8:	9306      	str	r3, [sp, #24]
  4065aa:	9a20      	ldr	r2, [sp, #128]	; 0x80
  4065ac:	930d      	str	r3, [sp, #52]	; 0x34
  4065ae:	2301      	movs	r3, #1
  4065b0:	9007      	str	r0, [sp, #28]
  4065b2:	9221      	str	r2, [sp, #132]	; 0x84
  4065b4:	f8c9 0040 	str.w	r0, [r9, #64]	; 0x40
  4065b8:	9309      	str	r3, [sp, #36]	; 0x24
  4065ba:	9b15      	ldr	r3, [sp, #84]	; 0x54
  4065bc:	2b00      	cmp	r3, #0
  4065be:	f2c0 80d1 	blt.w	406764 <_dtoa_r+0x3bc>
  4065c2:	9a04      	ldr	r2, [sp, #16]
  4065c4:	2a0e      	cmp	r2, #14
  4065c6:	f300 80cd 	bgt.w	406764 <_dtoa_r+0x3bc>
  4065ca:	4b2d      	ldr	r3, [pc, #180]	; (406680 <_dtoa_r+0x2d8>)
  4065cc:	eb03 03c2 	add.w	r3, r3, r2, lsl #3
  4065d0:	e9d3 3400 	ldrd	r3, r4, [r3]
  4065d4:	e9cd 3402 	strd	r3, r4, [sp, #8]
  4065d8:	9b21      	ldr	r3, [sp, #132]	; 0x84
  4065da:	2b00      	cmp	r3, #0
  4065dc:	f2c0 8300 	blt.w	406be0 <_dtoa_r+0x838>
  4065e0:	4656      	mov	r6, sl
  4065e2:	465f      	mov	r7, fp
  4065e4:	4650      	mov	r0, sl
  4065e6:	4659      	mov	r1, fp
  4065e8:	e9dd ab02 	ldrd	sl, fp, [sp, #8]
  4065ec:	4652      	mov	r2, sl
  4065ee:	465b      	mov	r3, fp
  4065f0:	f002 fe42 	bl	409278 <__aeabi_ddiv>
  4065f4:	f002 ffc6 	bl	409584 <__aeabi_d2iz>
  4065f8:	4604      	mov	r4, r0
  4065fa:	f002 fcad 	bl	408f58 <__aeabi_i2d>
  4065fe:	4652      	mov	r2, sl
  406600:	465b      	mov	r3, fp
  406602:	f002 fd0f 	bl	409024 <__aeabi_dmul>
  406606:	460b      	mov	r3, r1
  406608:	4602      	mov	r2, r0
  40660a:	4639      	mov	r1, r7
  40660c:	4630      	mov	r0, r6
  40660e:	f002 fb55 	bl	408cbc <__aeabi_dsub>
  406612:	9d07      	ldr	r5, [sp, #28]
  406614:	f104 0330 	add.w	r3, r4, #48	; 0x30
  406618:	702b      	strb	r3, [r5, #0]
  40661a:	9b06      	ldr	r3, [sp, #24]
  40661c:	2b01      	cmp	r3, #1
  40661e:	4606      	mov	r6, r0
  406620:	460f      	mov	r7, r1
  406622:	f105 0501 	add.w	r5, r5, #1
  406626:	d062      	beq.n	4066ee <_dtoa_r+0x346>
  406628:	2200      	movs	r2, #0
  40662a:	4b18      	ldr	r3, [pc, #96]	; (40668c <_dtoa_r+0x2e4>)
  40662c:	f002 fcfa 	bl	409024 <__aeabi_dmul>
  406630:	2200      	movs	r2, #0
  406632:	2300      	movs	r3, #0
  406634:	4606      	mov	r6, r0
  406636:	460f      	mov	r7, r1
  406638:	f002 ff5c 	bl	4094f4 <__aeabi_dcmpeq>
  40663c:	2800      	cmp	r0, #0
  40663e:	d17e      	bne.n	40673e <_dtoa_r+0x396>
  406640:	f8cd 9014 	str.w	r9, [sp, #20]
  406644:	f8dd a018 	ldr.w	sl, [sp, #24]
  406648:	f8dd b01c 	ldr.w	fp, [sp, #28]
  40664c:	e9dd 8902 	ldrd	r8, r9, [sp, #8]
  406650:	e029      	b.n	4066a6 <_dtoa_r+0x2fe>
  406652:	bf00      	nop
  406654:	f3af 8000 	nop.w
  406658:	636f4361 	.word	0x636f4361
  40665c:	3fd287a7 	.word	0x3fd287a7
  406660:	8b60c8b3 	.word	0x8b60c8b3
  406664:	3fc68a28 	.word	0x3fc68a28
  406668:	509f79fb 	.word	0x509f79fb
  40666c:	3fd34413 	.word	0x3fd34413
  406670:	7ff00000 	.word	0x7ff00000
  406674:	00409a6d 	.word	0x00409a6d
  406678:	00409aac 	.word	0x00409aac
  40667c:	3ff80000 	.word	0x3ff80000
  406680:	00409ac0 	.word	0x00409ac0
  406684:	00409aa0 	.word	0x00409aa0
  406688:	00409a6c 	.word	0x00409a6c
  40668c:	40240000 	.word	0x40240000
  406690:	f002 fcc8 	bl	409024 <__aeabi_dmul>
  406694:	2200      	movs	r2, #0
  406696:	2300      	movs	r3, #0
  406698:	4606      	mov	r6, r0
  40669a:	460f      	mov	r7, r1
  40669c:	f002 ff2a 	bl	4094f4 <__aeabi_dcmpeq>
  4066a0:	2800      	cmp	r0, #0
  4066a2:	f040 83b7 	bne.w	406e14 <_dtoa_r+0xa6c>
  4066a6:	4642      	mov	r2, r8
  4066a8:	464b      	mov	r3, r9
  4066aa:	4630      	mov	r0, r6
  4066ac:	4639      	mov	r1, r7
  4066ae:	f002 fde3 	bl	409278 <__aeabi_ddiv>
  4066b2:	f002 ff67 	bl	409584 <__aeabi_d2iz>
  4066b6:	4604      	mov	r4, r0
  4066b8:	f002 fc4e 	bl	408f58 <__aeabi_i2d>
  4066bc:	4642      	mov	r2, r8
  4066be:	464b      	mov	r3, r9
  4066c0:	f002 fcb0 	bl	409024 <__aeabi_dmul>
  4066c4:	4602      	mov	r2, r0
  4066c6:	460b      	mov	r3, r1
  4066c8:	4630      	mov	r0, r6
  4066ca:	4639      	mov	r1, r7
  4066cc:	f002 faf6 	bl	408cbc <__aeabi_dsub>
  4066d0:	f104 0e30 	add.w	lr, r4, #48	; 0x30
  4066d4:	f805 eb01 	strb.w	lr, [r5], #1
  4066d8:	ebcb 0e05 	rsb	lr, fp, r5
  4066dc:	45d6      	cmp	lr, sl
  4066de:	4606      	mov	r6, r0
  4066e0:	460f      	mov	r7, r1
  4066e2:	f04f 0200 	mov.w	r2, #0
  4066e6:	4bb0      	ldr	r3, [pc, #704]	; (4069a8 <_dtoa_r+0x600>)
  4066e8:	d1d2      	bne.n	406690 <_dtoa_r+0x2e8>
  4066ea:	f8dd 9014 	ldr.w	r9, [sp, #20]
  4066ee:	4632      	mov	r2, r6
  4066f0:	463b      	mov	r3, r7
  4066f2:	4630      	mov	r0, r6
  4066f4:	4639      	mov	r1, r7
  4066f6:	f002 fae3 	bl	408cc0 <__adddf3>
  4066fa:	4606      	mov	r6, r0
  4066fc:	460f      	mov	r7, r1
  4066fe:	4602      	mov	r2, r0
  406700:	460b      	mov	r3, r1
  406702:	e9dd 0102 	ldrd	r0, r1, [sp, #8]
  406706:	f002 feff 	bl	409508 <__aeabi_dcmplt>
  40670a:	b940      	cbnz	r0, 40671e <_dtoa_r+0x376>
  40670c:	4632      	mov	r2, r6
  40670e:	463b      	mov	r3, r7
  406710:	e9dd 0102 	ldrd	r0, r1, [sp, #8]
  406714:	f002 feee 	bl	4094f4 <__aeabi_dcmpeq>
  406718:	b188      	cbz	r0, 40673e <_dtoa_r+0x396>
  40671a:	07e3      	lsls	r3, r4, #31
  40671c:	d50f      	bpl.n	40673e <_dtoa_r+0x396>
  40671e:	f815 4c01 	ldrb.w	r4, [r5, #-1]
  406722:	9a07      	ldr	r2, [sp, #28]
  406724:	1e6b      	subs	r3, r5, #1
  406726:	e004      	b.n	406732 <_dtoa_r+0x38a>
  406728:	429a      	cmp	r2, r3
  40672a:	f000 842c 	beq.w	406f86 <_dtoa_r+0xbde>
  40672e:	f813 4d01 	ldrb.w	r4, [r3, #-1]!
  406732:	2c39      	cmp	r4, #57	; 0x39
  406734:	f103 0501 	add.w	r5, r3, #1
  406738:	d0f6      	beq.n	406728 <_dtoa_r+0x380>
  40673a:	3401      	adds	r4, #1
  40673c:	701c      	strb	r4, [r3, #0]
  40673e:	9908      	ldr	r1, [sp, #32]
  406740:	4648      	mov	r0, r9
  406742:	f001 fb4f 	bl	407de4 <_Bfree>
  406746:	2200      	movs	r2, #0
  406748:	9b04      	ldr	r3, [sp, #16]
  40674a:	702a      	strb	r2, [r5, #0]
  40674c:	9a22      	ldr	r2, [sp, #136]	; 0x88
  40674e:	3301      	adds	r3, #1
  406750:	6013      	str	r3, [r2, #0]
  406752:	9b24      	ldr	r3, [sp, #144]	; 0x90
  406754:	2b00      	cmp	r3, #0
  406756:	f000 83a7 	beq.w	406ea8 <_dtoa_r+0xb00>
  40675a:	9807      	ldr	r0, [sp, #28]
  40675c:	601d      	str	r5, [r3, #0]
  40675e:	b017      	add	sp, #92	; 0x5c
  406760:	e8bd 8ff0 	ldmia.w	sp!, {r4, r5, r6, r7, r8, r9, sl, fp, pc}
  406764:	9a09      	ldr	r2, [sp, #36]	; 0x24
  406766:	2a00      	cmp	r2, #0
  406768:	f000 8112 	beq.w	406990 <_dtoa_r+0x5e8>
  40676c:	9a20      	ldr	r2, [sp, #128]	; 0x80
  40676e:	2a01      	cmp	r2, #1
  406770:	f340 8258 	ble.w	406c24 <_dtoa_r+0x87c>
  406774:	9b06      	ldr	r3, [sp, #24]
  406776:	9a0a      	ldr	r2, [sp, #40]	; 0x28
  406778:	1e5f      	subs	r7, r3, #1
  40677a:	42ba      	cmp	r2, r7
  40677c:	f2c0 8397 	blt.w	406eae <_dtoa_r+0xb06>
  406780:	1bd7      	subs	r7, r2, r7
  406782:	9b06      	ldr	r3, [sp, #24]
  406784:	2b00      	cmp	r3, #0
  406786:	f2c0 848a 	blt.w	40709e <_dtoa_r+0xcf6>
  40678a:	9d05      	ldr	r5, [sp, #20]
  40678c:	9b06      	ldr	r3, [sp, #24]
  40678e:	9a05      	ldr	r2, [sp, #20]
  406790:	441a      	add	r2, r3
  406792:	9205      	str	r2, [sp, #20]
  406794:	9a02      	ldr	r2, [sp, #8]
  406796:	2101      	movs	r1, #1
  406798:	441a      	add	r2, r3
  40679a:	4648      	mov	r0, r9
  40679c:	9202      	str	r2, [sp, #8]
  40679e:	f001 fbb9 	bl	407f14 <__i2b>
  4067a2:	4606      	mov	r6, r0
  4067a4:	b165      	cbz	r5, 4067c0 <_dtoa_r+0x418>
  4067a6:	9902      	ldr	r1, [sp, #8]
  4067a8:	2900      	cmp	r1, #0
  4067aa:	460b      	mov	r3, r1
  4067ac:	dd08      	ble.n	4067c0 <_dtoa_r+0x418>
  4067ae:	42a9      	cmp	r1, r5
  4067b0:	9a05      	ldr	r2, [sp, #20]
  4067b2:	bfa8      	it	ge
  4067b4:	462b      	movge	r3, r5
  4067b6:	1ad2      	subs	r2, r2, r3
  4067b8:	1aed      	subs	r5, r5, r3
  4067ba:	1acb      	subs	r3, r1, r3
  4067bc:	9205      	str	r2, [sp, #20]
  4067be:	9302      	str	r3, [sp, #8]
  4067c0:	9b0a      	ldr	r3, [sp, #40]	; 0x28
  4067c2:	2b00      	cmp	r3, #0
  4067c4:	f340 82fc 	ble.w	406dc0 <_dtoa_r+0xa18>
  4067c8:	9a09      	ldr	r2, [sp, #36]	; 0x24
  4067ca:	2a00      	cmp	r2, #0
  4067cc:	f000 8201 	beq.w	406bd2 <_dtoa_r+0x82a>
  4067d0:	2f00      	cmp	r7, #0
  4067d2:	f000 81fe 	beq.w	406bd2 <_dtoa_r+0x82a>
  4067d6:	4631      	mov	r1, r6
  4067d8:	463a      	mov	r2, r7
  4067da:	4648      	mov	r0, r9
  4067dc:	f001 fc3c 	bl	408058 <__pow5mult>
  4067e0:	f8dd 8020 	ldr.w	r8, [sp, #32]
  4067e4:	4601      	mov	r1, r0
  4067e6:	4642      	mov	r2, r8
  4067e8:	4606      	mov	r6, r0
  4067ea:	4648      	mov	r0, r9
  4067ec:	f001 fb9c 	bl	407f28 <__multiply>
  4067f0:	4641      	mov	r1, r8
  4067f2:	4604      	mov	r4, r0
  4067f4:	4648      	mov	r0, r9
  4067f6:	f001 faf5 	bl	407de4 <_Bfree>
  4067fa:	9b0a      	ldr	r3, [sp, #40]	; 0x28
  4067fc:	1bdb      	subs	r3, r3, r7
  4067fe:	930a      	str	r3, [sp, #40]	; 0x28
  406800:	f040 81e6 	bne.w	406bd0 <_dtoa_r+0x828>
  406804:	2101      	movs	r1, #1
  406806:	4648      	mov	r0, r9
  406808:	f001 fb84 	bl	407f14 <__i2b>
  40680c:	9b0b      	ldr	r3, [sp, #44]	; 0x2c
  40680e:	4680      	mov	r8, r0
  406810:	2b00      	cmp	r3, #0
  406812:	f000 8219 	beq.w	406c48 <_dtoa_r+0x8a0>
  406816:	4601      	mov	r1, r0
  406818:	461a      	mov	r2, r3
  40681a:	4648      	mov	r0, r9
  40681c:	f001 fc1c 	bl	408058 <__pow5mult>
  406820:	9b20      	ldr	r3, [sp, #128]	; 0x80
  406822:	2b01      	cmp	r3, #1
  406824:	4680      	mov	r8, r0
  406826:	f340 82f8 	ble.w	406e1a <_dtoa_r+0xa72>
  40682a:	2700      	movs	r7, #0
  40682c:	f8d8 3010 	ldr.w	r3, [r8, #16]
  406830:	eb08 0383 	add.w	r3, r8, r3, lsl #2
  406834:	6918      	ldr	r0, [r3, #16]
  406836:	f001 fb1f 	bl	407e78 <__hi0bits>
  40683a:	f1c0 0020 	rsb	r0, r0, #32
  40683e:	9a02      	ldr	r2, [sp, #8]
  406840:	4410      	add	r0, r2
  406842:	f010 001f 	ands.w	r0, r0, #31
  406846:	f000 81f6 	beq.w	406c36 <_dtoa_r+0x88e>
  40684a:	f1c0 0320 	rsb	r3, r0, #32
  40684e:	2b04      	cmp	r3, #4
  406850:	f340 84ca 	ble.w	4071e8 <_dtoa_r+0xe40>
  406854:	9b05      	ldr	r3, [sp, #20]
  406856:	f1c0 001c 	rsb	r0, r0, #28
  40685a:	4403      	add	r3, r0
  40685c:	9305      	str	r3, [sp, #20]
  40685e:	4613      	mov	r3, r2
  406860:	4403      	add	r3, r0
  406862:	4405      	add	r5, r0
  406864:	9302      	str	r3, [sp, #8]
  406866:	9b05      	ldr	r3, [sp, #20]
  406868:	2b00      	cmp	r3, #0
  40686a:	dd05      	ble.n	406878 <_dtoa_r+0x4d0>
  40686c:	4621      	mov	r1, r4
  40686e:	461a      	mov	r2, r3
  406870:	4648      	mov	r0, r9
  406872:	f001 fc41 	bl	4080f8 <__lshift>
  406876:	4604      	mov	r4, r0
  406878:	9b02      	ldr	r3, [sp, #8]
  40687a:	2b00      	cmp	r3, #0
  40687c:	dd05      	ble.n	40688a <_dtoa_r+0x4e2>
  40687e:	4641      	mov	r1, r8
  406880:	461a      	mov	r2, r3
  406882:	4648      	mov	r0, r9
  406884:	f001 fc38 	bl	4080f8 <__lshift>
  406888:	4680      	mov	r8, r0
  40688a:	9b0c      	ldr	r3, [sp, #48]	; 0x30
  40688c:	2b00      	cmp	r3, #0
  40688e:	f040 827c 	bne.w	406d8a <_dtoa_r+0x9e2>
  406892:	9b06      	ldr	r3, [sp, #24]
  406894:	2b00      	cmp	r3, #0
  406896:	f340 8295 	ble.w	406dc4 <_dtoa_r+0xa1c>
  40689a:	9b09      	ldr	r3, [sp, #36]	; 0x24
  40689c:	2b00      	cmp	r3, #0
  40689e:	f040 81f5 	bne.w	406c8c <_dtoa_r+0x8e4>
  4068a2:	f8dd b01c 	ldr.w	fp, [sp, #28]
  4068a6:	9f06      	ldr	r7, [sp, #24]
  4068a8:	465d      	mov	r5, fp
  4068aa:	e002      	b.n	4068b2 <_dtoa_r+0x50a>
  4068ac:	f001 faa4 	bl	407df8 <__multadd>
  4068b0:	4604      	mov	r4, r0
  4068b2:	4641      	mov	r1, r8
  4068b4:	4620      	mov	r0, r4
  4068b6:	f7ff fce3 	bl	406280 <quorem>
  4068ba:	f100 0a30 	add.w	sl, r0, #48	; 0x30
  4068be:	f805 ab01 	strb.w	sl, [r5], #1
  4068c2:	ebcb 0305 	rsb	r3, fp, r5
  4068c6:	42bb      	cmp	r3, r7
  4068c8:	f04f 020a 	mov.w	r2, #10
  4068cc:	f04f 0300 	mov.w	r3, #0
  4068d0:	4621      	mov	r1, r4
  4068d2:	4648      	mov	r0, r9
  4068d4:	dbea      	blt.n	4068ac <_dtoa_r+0x504>
  4068d6:	9b07      	ldr	r3, [sp, #28]
  4068d8:	9a06      	ldr	r2, [sp, #24]
  4068da:	2a01      	cmp	r2, #1
  4068dc:	bfac      	ite	ge
  4068de:	189b      	addge	r3, r3, r2
  4068e0:	3301      	addlt	r3, #1
  4068e2:	461d      	mov	r5, r3
  4068e4:	f04f 0b00 	mov.w	fp, #0
  4068e8:	4621      	mov	r1, r4
  4068ea:	2201      	movs	r2, #1
  4068ec:	4648      	mov	r0, r9
  4068ee:	f001 fc03 	bl	4080f8 <__lshift>
  4068f2:	4641      	mov	r1, r8
  4068f4:	9008      	str	r0, [sp, #32]
  4068f6:	f001 fc57 	bl	4081a8 <__mcmp>
  4068fa:	2800      	cmp	r0, #0
  4068fc:	f340 830d 	ble.w	406f1a <_dtoa_r+0xb72>
  406900:	f815 2c01 	ldrb.w	r2, [r5, #-1]
  406904:	9907      	ldr	r1, [sp, #28]
  406906:	1e6b      	subs	r3, r5, #1
  406908:	e004      	b.n	406914 <_dtoa_r+0x56c>
  40690a:	428b      	cmp	r3, r1
  40690c:	f000 8278 	beq.w	406e00 <_dtoa_r+0xa58>
  406910:	f813 2d01 	ldrb.w	r2, [r3, #-1]!
  406914:	2a39      	cmp	r2, #57	; 0x39
  406916:	f103 0501 	add.w	r5, r3, #1
  40691a:	d0f6      	beq.n	40690a <_dtoa_r+0x562>
  40691c:	3201      	adds	r2, #1
  40691e:	701a      	strb	r2, [r3, #0]
  406920:	4641      	mov	r1, r8
  406922:	4648      	mov	r0, r9
  406924:	f001 fa5e 	bl	407de4 <_Bfree>
  406928:	2e00      	cmp	r6, #0
  40692a:	f43f af08 	beq.w	40673e <_dtoa_r+0x396>
  40692e:	f1bb 0f00 	cmp.w	fp, #0
  406932:	d005      	beq.n	406940 <_dtoa_r+0x598>
  406934:	45b3      	cmp	fp, r6
  406936:	d003      	beq.n	406940 <_dtoa_r+0x598>
  406938:	4659      	mov	r1, fp
  40693a:	4648      	mov	r0, r9
  40693c:	f001 fa52 	bl	407de4 <_Bfree>
  406940:	4631      	mov	r1, r6
  406942:	4648      	mov	r0, r9
  406944:	f001 fa4e 	bl	407de4 <_Bfree>
  406948:	e6f9      	b.n	40673e <_dtoa_r+0x396>
  40694a:	2301      	movs	r3, #1
  40694c:	930c      	str	r3, [sp, #48]	; 0x30
  40694e:	e5e3      	b.n	406518 <_dtoa_r+0x170>
  406950:	f8dd 8010 	ldr.w	r8, [sp, #16]
  406954:	4640      	mov	r0, r8
  406956:	f002 faff 	bl	408f58 <__aeabi_i2d>
  40695a:	4602      	mov	r2, r0
  40695c:	460b      	mov	r3, r1
  40695e:	4630      	mov	r0, r6
  406960:	4639      	mov	r1, r7
  406962:	f002 fdc7 	bl	4094f4 <__aeabi_dcmpeq>
  406966:	2800      	cmp	r0, #0
  406968:	f47f adc2 	bne.w	4064f0 <_dtoa_r+0x148>
  40696c:	f108 33ff 	add.w	r3, r8, #4294967295
  406970:	9304      	str	r3, [sp, #16]
  406972:	e5bd      	b.n	4064f0 <_dtoa_r+0x148>
  406974:	9a05      	ldr	r2, [sp, #20]
  406976:	9b04      	ldr	r3, [sp, #16]
  406978:	1ad2      	subs	r2, r2, r3
  40697a:	425b      	negs	r3, r3
  40697c:	930a      	str	r3, [sp, #40]	; 0x28
  40697e:	2300      	movs	r3, #0
  406980:	9205      	str	r2, [sp, #20]
  406982:	930b      	str	r3, [sp, #44]	; 0x2c
  406984:	e5da      	b.n	40653c <_dtoa_r+0x194>
  406986:	425b      	negs	r3, r3
  406988:	9305      	str	r3, [sp, #20]
  40698a:	2300      	movs	r3, #0
  40698c:	9302      	str	r3, [sp, #8]
  40698e:	e5ca      	b.n	406526 <_dtoa_r+0x17e>
  406990:	9f0a      	ldr	r7, [sp, #40]	; 0x28
  406992:	9d05      	ldr	r5, [sp, #20]
  406994:	9e09      	ldr	r6, [sp, #36]	; 0x24
  406996:	e705      	b.n	4067a4 <_dtoa_r+0x3fc>
  406998:	f1c3 0820 	rsb	r8, r3, #32
  40699c:	fa0a f008 	lsl.w	r0, sl, r8
  4069a0:	e573      	b.n	40648a <_dtoa_r+0xe2>
  4069a2:	900c      	str	r0, [sp, #48]	; 0x30
  4069a4:	e5b8      	b.n	406518 <_dtoa_r+0x170>
  4069a6:	bf00      	nop
  4069a8:	40240000 	.word	0x40240000
  4069ac:	2300      	movs	r3, #0
  4069ae:	9309      	str	r3, [sp, #36]	; 0x24
  4069b0:	9b04      	ldr	r3, [sp, #16]
  4069b2:	9a21      	ldr	r2, [sp, #132]	; 0x84
  4069b4:	4413      	add	r3, r2
  4069b6:	930d      	str	r3, [sp, #52]	; 0x34
  4069b8:	3301      	adds	r3, #1
  4069ba:	2b00      	cmp	r3, #0
  4069bc:	9306      	str	r3, [sp, #24]
  4069be:	f340 8283 	ble.w	406ec8 <_dtoa_r+0xb20>
  4069c2:	9c06      	ldr	r4, [sp, #24]
  4069c4:	4626      	mov	r6, r4
  4069c6:	2100      	movs	r1, #0
  4069c8:	2e17      	cmp	r6, #23
  4069ca:	f8c9 1044 	str.w	r1, [r9, #68]	; 0x44
  4069ce:	d90b      	bls.n	4069e8 <_dtoa_r+0x640>
  4069d0:	2201      	movs	r2, #1
  4069d2:	2304      	movs	r3, #4
  4069d4:	005b      	lsls	r3, r3, #1
  4069d6:	f103 0014 	add.w	r0, r3, #20
  4069da:	42b0      	cmp	r0, r6
  4069dc:	4611      	mov	r1, r2
  4069de:	f102 0201 	add.w	r2, r2, #1
  4069e2:	d9f7      	bls.n	4069d4 <_dtoa_r+0x62c>
  4069e4:	f8c9 1044 	str.w	r1, [r9, #68]	; 0x44
  4069e8:	4648      	mov	r0, r9
  4069ea:	f001 f9d5 	bl	407d98 <_Balloc>
  4069ee:	2c0e      	cmp	r4, #14
  4069f0:	9007      	str	r0, [sp, #28]
  4069f2:	f8c9 0040 	str.w	r0, [r9, #64]	; 0x40
  4069f6:	f63f ade0 	bhi.w	4065ba <_dtoa_r+0x212>
  4069fa:	2d00      	cmp	r5, #0
  4069fc:	f43f addd 	beq.w	4065ba <_dtoa_r+0x212>
  406a00:	9904      	ldr	r1, [sp, #16]
  406a02:	4657      	mov	r7, sl
  406a04:	46d8      	mov	r8, fp
  406a06:	2900      	cmp	r1, #0
  406a08:	e9cd 780e 	strd	r7, r8, [sp, #56]	; 0x38
  406a0c:	f340 8292 	ble.w	406f34 <_dtoa_r+0xb8c>
  406a10:	4b91      	ldr	r3, [pc, #580]	; (406c58 <_dtoa_r+0x8b0>)
  406a12:	f001 020f 	and.w	r2, r1, #15
  406a16:	110e      	asrs	r6, r1, #4
  406a18:	eb03 03c2 	add.w	r3, r3, r2, lsl #3
  406a1c:	06f0      	lsls	r0, r6, #27
  406a1e:	e9d3 4500 	ldrd	r4, r5, [r3]
  406a22:	f140 824c 	bpl.w	406ebe <_dtoa_r+0xb16>
  406a26:	4b8d      	ldr	r3, [pc, #564]	; (406c5c <_dtoa_r+0x8b4>)
  406a28:	4650      	mov	r0, sl
  406a2a:	4659      	mov	r1, fp
  406a2c:	e9d3 2308 	ldrd	r2, r3, [r3, #32]
  406a30:	f002 fc22 	bl	409278 <__aeabi_ddiv>
  406a34:	f006 060f 	and.w	r6, r6, #15
  406a38:	4682      	mov	sl, r0
  406a3a:	468b      	mov	fp, r1
  406a3c:	f04f 0803 	mov.w	r8, #3
  406a40:	b186      	cbz	r6, 406a64 <_dtoa_r+0x6bc>
  406a42:	4f86      	ldr	r7, [pc, #536]	; (406c5c <_dtoa_r+0x8b4>)
  406a44:	07f1      	lsls	r1, r6, #31
  406a46:	d509      	bpl.n	406a5c <_dtoa_r+0x6b4>
  406a48:	4620      	mov	r0, r4
  406a4a:	4629      	mov	r1, r5
  406a4c:	e9d7 2300 	ldrd	r2, r3, [r7]
  406a50:	f002 fae8 	bl	409024 <__aeabi_dmul>
  406a54:	f108 0801 	add.w	r8, r8, #1
  406a58:	4604      	mov	r4, r0
  406a5a:	460d      	mov	r5, r1
  406a5c:	1076      	asrs	r6, r6, #1
  406a5e:	f107 0708 	add.w	r7, r7, #8
  406a62:	d1ef      	bne.n	406a44 <_dtoa_r+0x69c>
  406a64:	4622      	mov	r2, r4
  406a66:	462b      	mov	r3, r5
  406a68:	4650      	mov	r0, sl
  406a6a:	4659      	mov	r1, fp
  406a6c:	f002 fc04 	bl	409278 <__aeabi_ddiv>
  406a70:	4606      	mov	r6, r0
  406a72:	460f      	mov	r7, r1
  406a74:	9b0c      	ldr	r3, [sp, #48]	; 0x30
  406a76:	b143      	cbz	r3, 406a8a <_dtoa_r+0x6e2>
  406a78:	2200      	movs	r2, #0
  406a7a:	4b79      	ldr	r3, [pc, #484]	; (406c60 <_dtoa_r+0x8b8>)
  406a7c:	4630      	mov	r0, r6
  406a7e:	4639      	mov	r1, r7
  406a80:	f002 fd42 	bl	409508 <__aeabi_dcmplt>
  406a84:	2800      	cmp	r0, #0
  406a86:	f040 8320 	bne.w	4070ca <_dtoa_r+0xd22>
  406a8a:	4640      	mov	r0, r8
  406a8c:	f002 fa64 	bl	408f58 <__aeabi_i2d>
  406a90:	4632      	mov	r2, r6
  406a92:	463b      	mov	r3, r7
  406a94:	f002 fac6 	bl	409024 <__aeabi_dmul>
  406a98:	4b72      	ldr	r3, [pc, #456]	; (406c64 <_dtoa_r+0x8bc>)
  406a9a:	2200      	movs	r2, #0
  406a9c:	f002 f910 	bl	408cc0 <__adddf3>
  406aa0:	9b06      	ldr	r3, [sp, #24]
  406aa2:	4604      	mov	r4, r0
  406aa4:	f1a1 7550 	sub.w	r5, r1, #54525952	; 0x3400000
  406aa8:	2b00      	cmp	r3, #0
  406aaa:	f000 81df 	beq.w	406e6c <_dtoa_r+0xac4>
  406aae:	9b04      	ldr	r3, [sp, #16]
  406ab0:	f8dd 8018 	ldr.w	r8, [sp, #24]
  406ab4:	9311      	str	r3, [sp, #68]	; 0x44
  406ab6:	9b09      	ldr	r3, [sp, #36]	; 0x24
  406ab8:	2b00      	cmp	r3, #0
  406aba:	f000 8297 	beq.w	406fec <_dtoa_r+0xc44>
  406abe:	4b66      	ldr	r3, [pc, #408]	; (406c58 <_dtoa_r+0x8b0>)
  406ac0:	4969      	ldr	r1, [pc, #420]	; (406c68 <_dtoa_r+0x8c0>)
  406ac2:	eb03 03c8 	add.w	r3, r3, r8, lsl #3
  406ac6:	e953 2302 	ldrd	r2, r3, [r3, #-8]
  406aca:	2000      	movs	r0, #0
  406acc:	f002 fbd4 	bl	409278 <__aeabi_ddiv>
  406ad0:	4622      	mov	r2, r4
  406ad2:	462b      	mov	r3, r5
  406ad4:	f002 f8f2 	bl	408cbc <__aeabi_dsub>
  406ad8:	4682      	mov	sl, r0
  406ada:	468b      	mov	fp, r1
  406adc:	4630      	mov	r0, r6
  406ade:	4639      	mov	r1, r7
  406ae0:	f002 fd50 	bl	409584 <__aeabi_d2iz>
  406ae4:	4604      	mov	r4, r0
  406ae6:	f002 fa37 	bl	408f58 <__aeabi_i2d>
  406aea:	4602      	mov	r2, r0
  406aec:	460b      	mov	r3, r1
  406aee:	4630      	mov	r0, r6
  406af0:	4639      	mov	r1, r7
  406af2:	f002 f8e3 	bl	408cbc <__aeabi_dsub>
  406af6:	3430      	adds	r4, #48	; 0x30
  406af8:	9d07      	ldr	r5, [sp, #28]
  406afa:	b2e4      	uxtb	r4, r4
  406afc:	4606      	mov	r6, r0
  406afe:	460f      	mov	r7, r1
  406b00:	702c      	strb	r4, [r5, #0]
  406b02:	4602      	mov	r2, r0
  406b04:	460b      	mov	r3, r1
  406b06:	4650      	mov	r0, sl
  406b08:	4659      	mov	r1, fp
  406b0a:	3501      	adds	r5, #1
  406b0c:	f002 fd1a 	bl	409544 <__aeabi_dcmpgt>
  406b10:	2800      	cmp	r0, #0
  406b12:	d14c      	bne.n	406bae <_dtoa_r+0x806>
  406b14:	4632      	mov	r2, r6
  406b16:	463b      	mov	r3, r7
  406b18:	2000      	movs	r0, #0
  406b1a:	4951      	ldr	r1, [pc, #324]	; (406c60 <_dtoa_r+0x8b8>)
  406b1c:	f002 f8ce 	bl	408cbc <__aeabi_dsub>
  406b20:	4602      	mov	r2, r0
  406b22:	460b      	mov	r3, r1
  406b24:	4650      	mov	r0, sl
  406b26:	4659      	mov	r1, fp
  406b28:	f002 fd0c 	bl	409544 <__aeabi_dcmpgt>
  406b2c:	2800      	cmp	r0, #0
  406b2e:	f040 830d 	bne.w	40714c <_dtoa_r+0xda4>
  406b32:	f1b8 0f01 	cmp.w	r8, #1
  406b36:	f340 81b3 	ble.w	406ea0 <_dtoa_r+0xaf8>
  406b3a:	9b07      	ldr	r3, [sp, #28]
  406b3c:	4498      	add	r8, r3
  406b3e:	e00d      	b.n	406b5c <_dtoa_r+0x7b4>
  406b40:	2000      	movs	r0, #0
  406b42:	4947      	ldr	r1, [pc, #284]	; (406c60 <_dtoa_r+0x8b8>)
  406b44:	f002 f8ba 	bl	408cbc <__aeabi_dsub>
  406b48:	4652      	mov	r2, sl
  406b4a:	465b      	mov	r3, fp
  406b4c:	f002 fcdc 	bl	409508 <__aeabi_dcmplt>
  406b50:	2800      	cmp	r0, #0
  406b52:	f040 82fb 	bne.w	40714c <_dtoa_r+0xda4>
  406b56:	4545      	cmp	r5, r8
  406b58:	f000 81a2 	beq.w	406ea0 <_dtoa_r+0xaf8>
  406b5c:	4650      	mov	r0, sl
  406b5e:	4659      	mov	r1, fp
  406b60:	2200      	movs	r2, #0
  406b62:	4b42      	ldr	r3, [pc, #264]	; (406c6c <_dtoa_r+0x8c4>)
  406b64:	f002 fa5e 	bl	409024 <__aeabi_dmul>
  406b68:	2200      	movs	r2, #0
  406b6a:	4b40      	ldr	r3, [pc, #256]	; (406c6c <_dtoa_r+0x8c4>)
  406b6c:	4682      	mov	sl, r0
  406b6e:	468b      	mov	fp, r1
  406b70:	4630      	mov	r0, r6
  406b72:	4639      	mov	r1, r7
  406b74:	f002 fa56 	bl	409024 <__aeabi_dmul>
  406b78:	460f      	mov	r7, r1
  406b7a:	4606      	mov	r6, r0
  406b7c:	f002 fd02 	bl	409584 <__aeabi_d2iz>
  406b80:	4604      	mov	r4, r0
  406b82:	f002 f9e9 	bl	408f58 <__aeabi_i2d>
  406b86:	4602      	mov	r2, r0
  406b88:	460b      	mov	r3, r1
  406b8a:	4630      	mov	r0, r6
  406b8c:	4639      	mov	r1, r7
  406b8e:	f002 f895 	bl	408cbc <__aeabi_dsub>
  406b92:	3430      	adds	r4, #48	; 0x30
  406b94:	b2e4      	uxtb	r4, r4
  406b96:	4652      	mov	r2, sl
  406b98:	465b      	mov	r3, fp
  406b9a:	f805 4b01 	strb.w	r4, [r5], #1
  406b9e:	4606      	mov	r6, r0
  406ba0:	460f      	mov	r7, r1
  406ba2:	f002 fcb1 	bl	409508 <__aeabi_dcmplt>
  406ba6:	4632      	mov	r2, r6
  406ba8:	463b      	mov	r3, r7
  406baa:	2800      	cmp	r0, #0
  406bac:	d0c8      	beq.n	406b40 <_dtoa_r+0x798>
  406bae:	9b11      	ldr	r3, [sp, #68]	; 0x44
  406bb0:	9304      	str	r3, [sp, #16]
  406bb2:	e5c4      	b.n	40673e <_dtoa_r+0x396>
  406bb4:	2300      	movs	r3, #0
  406bb6:	9309      	str	r3, [sp, #36]	; 0x24
  406bb8:	9b21      	ldr	r3, [sp, #132]	; 0x84
  406bba:	2b00      	cmp	r3, #0
  406bbc:	f340 8189 	ble.w	406ed2 <_dtoa_r+0xb2a>
  406bc0:	461e      	mov	r6, r3
  406bc2:	461c      	mov	r4, r3
  406bc4:	930d      	str	r3, [sp, #52]	; 0x34
  406bc6:	9306      	str	r3, [sp, #24]
  406bc8:	e6fd      	b.n	4069c6 <_dtoa_r+0x61e>
  406bca:	2301      	movs	r3, #1
  406bcc:	9309      	str	r3, [sp, #36]	; 0x24
  406bce:	e7f3      	b.n	406bb8 <_dtoa_r+0x810>
  406bd0:	9408      	str	r4, [sp, #32]
  406bd2:	9a0a      	ldr	r2, [sp, #40]	; 0x28
  406bd4:	9908      	ldr	r1, [sp, #32]
  406bd6:	4648      	mov	r0, r9
  406bd8:	f001 fa3e 	bl	408058 <__pow5mult>
  406bdc:	4604      	mov	r4, r0
  406bde:	e611      	b.n	406804 <_dtoa_r+0x45c>
  406be0:	9b06      	ldr	r3, [sp, #24]
  406be2:	2b00      	cmp	r3, #0
  406be4:	f73f acfc 	bgt.w	4065e0 <_dtoa_r+0x238>
  406be8:	f040 82da 	bne.w	4071a0 <_dtoa_r+0xdf8>
  406bec:	2200      	movs	r2, #0
  406bee:	4b20      	ldr	r3, [pc, #128]	; (406c70 <_dtoa_r+0x8c8>)
  406bf0:	e9dd 0102 	ldrd	r0, r1, [sp, #8]
  406bf4:	f002 fa16 	bl	409024 <__aeabi_dmul>
  406bf8:	4652      	mov	r2, sl
  406bfa:	465b      	mov	r3, fp
  406bfc:	f002 fc98 	bl	409530 <__aeabi_dcmpge>
  406c00:	f8dd 8018 	ldr.w	r8, [sp, #24]
  406c04:	4646      	mov	r6, r8
  406c06:	2800      	cmp	r0, #0
  406c08:	f000 80f2 	beq.w	406df0 <_dtoa_r+0xa48>
  406c0c:	9b21      	ldr	r3, [sp, #132]	; 0x84
  406c0e:	9d07      	ldr	r5, [sp, #28]
  406c10:	43db      	mvns	r3, r3
  406c12:	9304      	str	r3, [sp, #16]
  406c14:	4641      	mov	r1, r8
  406c16:	4648      	mov	r0, r9
  406c18:	f001 f8e4 	bl	407de4 <_Bfree>
  406c1c:	2e00      	cmp	r6, #0
  406c1e:	f43f ad8e 	beq.w	40673e <_dtoa_r+0x396>
  406c22:	e68d      	b.n	406940 <_dtoa_r+0x598>
  406c24:	9a10      	ldr	r2, [sp, #64]	; 0x40
  406c26:	2a00      	cmp	r2, #0
  406c28:	f000 8241 	beq.w	4070ae <_dtoa_r+0xd06>
  406c2c:	f203 4333 	addw	r3, r3, #1075	; 0x433
  406c30:	9f0a      	ldr	r7, [sp, #40]	; 0x28
  406c32:	9d05      	ldr	r5, [sp, #20]
  406c34:	e5ab      	b.n	40678e <_dtoa_r+0x3e6>
  406c36:	201c      	movs	r0, #28
  406c38:	9b05      	ldr	r3, [sp, #20]
  406c3a:	4403      	add	r3, r0
  406c3c:	9305      	str	r3, [sp, #20]
  406c3e:	9b02      	ldr	r3, [sp, #8]
  406c40:	4403      	add	r3, r0
  406c42:	4405      	add	r5, r0
  406c44:	9302      	str	r3, [sp, #8]
  406c46:	e60e      	b.n	406866 <_dtoa_r+0x4be>
  406c48:	9b20      	ldr	r3, [sp, #128]	; 0x80
  406c4a:	2b01      	cmp	r3, #1
  406c4c:	f340 8282 	ble.w	407154 <_dtoa_r+0xdac>
  406c50:	9f0b      	ldr	r7, [sp, #44]	; 0x2c
  406c52:	2001      	movs	r0, #1
  406c54:	e5f3      	b.n	40683e <_dtoa_r+0x496>
  406c56:	bf00      	nop
  406c58:	00409ac0 	.word	0x00409ac0
  406c5c:	00409b88 	.word	0x00409b88
  406c60:	3ff00000 	.word	0x3ff00000
  406c64:	401c0000 	.word	0x401c0000
  406c68:	3fe00000 	.word	0x3fe00000
  406c6c:	40240000 	.word	0x40240000
  406c70:	40140000 	.word	0x40140000
  406c74:	4631      	mov	r1, r6
  406c76:	2300      	movs	r3, #0
  406c78:	220a      	movs	r2, #10
  406c7a:	4648      	mov	r0, r9
  406c7c:	f001 f8bc 	bl	407df8 <__multadd>
  406c80:	9b0d      	ldr	r3, [sp, #52]	; 0x34
  406c82:	2b00      	cmp	r3, #0
  406c84:	4606      	mov	r6, r0
  406c86:	f340 8297 	ble.w	4071b8 <_dtoa_r+0xe10>
  406c8a:	9306      	str	r3, [sp, #24]
  406c8c:	2d00      	cmp	r5, #0
  406c8e:	dd05      	ble.n	406c9c <_dtoa_r+0x8f4>
  406c90:	4631      	mov	r1, r6
  406c92:	462a      	mov	r2, r5
  406c94:	4648      	mov	r0, r9
  406c96:	f001 fa2f 	bl	4080f8 <__lshift>
  406c9a:	4606      	mov	r6, r0
  406c9c:	2f00      	cmp	r7, #0
  406c9e:	f040 817c 	bne.w	406f9a <_dtoa_r+0xbf2>
  406ca2:	9605      	str	r6, [sp, #20]
  406ca4:	9b06      	ldr	r3, [sp, #24]
  406ca6:	9a07      	ldr	r2, [sp, #28]
  406ca8:	f8dd b014 	ldr.w	fp, [sp, #20]
  406cac:	3b01      	subs	r3, #1
  406cae:	18d3      	adds	r3, r2, r3
  406cb0:	9308      	str	r3, [sp, #32]
  406cb2:	f00a 0301 	and.w	r3, sl, #1
  406cb6:	9309      	str	r3, [sp, #36]	; 0x24
  406cb8:	4617      	mov	r7, r2
  406cba:	46c2      	mov	sl, r8
  406cbc:	4651      	mov	r1, sl
  406cbe:	4620      	mov	r0, r4
  406cc0:	f7ff fade 	bl	406280 <quorem>
  406cc4:	4631      	mov	r1, r6
  406cc6:	4605      	mov	r5, r0
  406cc8:	4620      	mov	r0, r4
  406cca:	f001 fa6d 	bl	4081a8 <__mcmp>
  406cce:	465a      	mov	r2, fp
  406cd0:	9002      	str	r0, [sp, #8]
  406cd2:	4651      	mov	r1, sl
  406cd4:	4648      	mov	r0, r9
  406cd6:	f001 fa87 	bl	4081e8 <__mdiff>
  406cda:	68c2      	ldr	r2, [r0, #12]
  406cdc:	4680      	mov	r8, r0
  406cde:	f105 0330 	add.w	r3, r5, #48	; 0x30
  406ce2:	2a00      	cmp	r2, #0
  406ce4:	d149      	bne.n	406d7a <_dtoa_r+0x9d2>
  406ce6:	4601      	mov	r1, r0
  406ce8:	4620      	mov	r0, r4
  406cea:	9306      	str	r3, [sp, #24]
  406cec:	f001 fa5c 	bl	4081a8 <__mcmp>
  406cf0:	4641      	mov	r1, r8
  406cf2:	9005      	str	r0, [sp, #20]
  406cf4:	4648      	mov	r0, r9
  406cf6:	f001 f875 	bl	407de4 <_Bfree>
  406cfa:	9a05      	ldr	r2, [sp, #20]
  406cfc:	9b06      	ldr	r3, [sp, #24]
  406cfe:	b92a      	cbnz	r2, 406d0c <_dtoa_r+0x964>
  406d00:	9920      	ldr	r1, [sp, #128]	; 0x80
  406d02:	b919      	cbnz	r1, 406d0c <_dtoa_r+0x964>
  406d04:	9909      	ldr	r1, [sp, #36]	; 0x24
  406d06:	2900      	cmp	r1, #0
  406d08:	f000 8236 	beq.w	407178 <_dtoa_r+0xdd0>
  406d0c:	9902      	ldr	r1, [sp, #8]
  406d0e:	2900      	cmp	r1, #0
  406d10:	f2c0 80e4 	blt.w	406edc <_dtoa_r+0xb34>
  406d14:	d105      	bne.n	406d22 <_dtoa_r+0x97a>
  406d16:	9920      	ldr	r1, [sp, #128]	; 0x80
  406d18:	b919      	cbnz	r1, 406d22 <_dtoa_r+0x97a>
  406d1a:	9909      	ldr	r1, [sp, #36]	; 0x24
  406d1c:	2900      	cmp	r1, #0
  406d1e:	f000 80dd 	beq.w	406edc <_dtoa_r+0xb34>
  406d22:	2a00      	cmp	r2, #0
  406d24:	f300 814d 	bgt.w	406fc2 <_dtoa_r+0xc1a>
  406d28:	9a08      	ldr	r2, [sp, #32]
  406d2a:	703b      	strb	r3, [r7, #0]
  406d2c:	f107 0801 	add.w	r8, r7, #1
  406d30:	4297      	cmp	r7, r2
  406d32:	4645      	mov	r5, r8
  406d34:	f000 8154 	beq.w	406fe0 <_dtoa_r+0xc38>
  406d38:	4621      	mov	r1, r4
  406d3a:	2300      	movs	r3, #0
  406d3c:	220a      	movs	r2, #10
  406d3e:	4648      	mov	r0, r9
  406d40:	f001 f85a 	bl	407df8 <__multadd>
  406d44:	455e      	cmp	r6, fp
  406d46:	4604      	mov	r4, r0
  406d48:	4631      	mov	r1, r6
  406d4a:	f04f 0300 	mov.w	r3, #0
  406d4e:	f04f 020a 	mov.w	r2, #10
  406d52:	4648      	mov	r0, r9
  406d54:	d00b      	beq.n	406d6e <_dtoa_r+0x9c6>
  406d56:	f001 f84f 	bl	407df8 <__multadd>
  406d5a:	4659      	mov	r1, fp
  406d5c:	4606      	mov	r6, r0
  406d5e:	2300      	movs	r3, #0
  406d60:	220a      	movs	r2, #10
  406d62:	4648      	mov	r0, r9
  406d64:	f001 f848 	bl	407df8 <__multadd>
  406d68:	4647      	mov	r7, r8
  406d6a:	4683      	mov	fp, r0
  406d6c:	e7a6      	b.n	406cbc <_dtoa_r+0x914>
  406d6e:	f001 f843 	bl	407df8 <__multadd>
  406d72:	4647      	mov	r7, r8
  406d74:	4606      	mov	r6, r0
  406d76:	4683      	mov	fp, r0
  406d78:	e7a0      	b.n	406cbc <_dtoa_r+0x914>
  406d7a:	4601      	mov	r1, r0
  406d7c:	4648      	mov	r0, r9
  406d7e:	9305      	str	r3, [sp, #20]
  406d80:	f001 f830 	bl	407de4 <_Bfree>
  406d84:	2201      	movs	r2, #1
  406d86:	9b05      	ldr	r3, [sp, #20]
  406d88:	e7c0      	b.n	406d0c <_dtoa_r+0x964>
  406d8a:	4641      	mov	r1, r8
  406d8c:	4620      	mov	r0, r4
  406d8e:	f001 fa0b 	bl	4081a8 <__mcmp>
  406d92:	2800      	cmp	r0, #0
  406d94:	f6bf ad7d 	bge.w	406892 <_dtoa_r+0x4ea>
  406d98:	4621      	mov	r1, r4
  406d9a:	9c04      	ldr	r4, [sp, #16]
  406d9c:	2300      	movs	r3, #0
  406d9e:	3c01      	subs	r4, #1
  406da0:	220a      	movs	r2, #10
  406da2:	4648      	mov	r0, r9
  406da4:	9404      	str	r4, [sp, #16]
  406da6:	f001 f827 	bl	407df8 <__multadd>
  406daa:	9b09      	ldr	r3, [sp, #36]	; 0x24
  406dac:	4604      	mov	r4, r0
  406dae:	2b00      	cmp	r3, #0
  406db0:	f47f af60 	bne.w	406c74 <_dtoa_r+0x8cc>
  406db4:	9b0d      	ldr	r3, [sp, #52]	; 0x34
  406db6:	2b00      	cmp	r3, #0
  406db8:	f340 81f6 	ble.w	4071a8 <_dtoa_r+0xe00>
  406dbc:	9306      	str	r3, [sp, #24]
  406dbe:	e570      	b.n	4068a2 <_dtoa_r+0x4fa>
  406dc0:	9c08      	ldr	r4, [sp, #32]
  406dc2:	e51f      	b.n	406804 <_dtoa_r+0x45c>
  406dc4:	9b20      	ldr	r3, [sp, #128]	; 0x80
  406dc6:	2b02      	cmp	r3, #2
  406dc8:	f77f ad67 	ble.w	40689a <_dtoa_r+0x4f2>
  406dcc:	9b06      	ldr	r3, [sp, #24]
  406dce:	2b00      	cmp	r3, #0
  406dd0:	f040 8179 	bne.w	4070c6 <_dtoa_r+0xd1e>
  406dd4:	4641      	mov	r1, r8
  406dd6:	2205      	movs	r2, #5
  406dd8:	4648      	mov	r0, r9
  406dda:	f001 f80d 	bl	407df8 <__multadd>
  406dde:	4601      	mov	r1, r0
  406de0:	4680      	mov	r8, r0
  406de2:	4620      	mov	r0, r4
  406de4:	f001 f9e0 	bl	4081a8 <__mcmp>
  406de8:	2800      	cmp	r0, #0
  406dea:	9408      	str	r4, [sp, #32]
  406dec:	f77f af0e 	ble.w	406c0c <_dtoa_r+0x864>
  406df0:	9a04      	ldr	r2, [sp, #16]
  406df2:	9907      	ldr	r1, [sp, #28]
  406df4:	2331      	movs	r3, #49	; 0x31
  406df6:	3201      	adds	r2, #1
  406df8:	9204      	str	r2, [sp, #16]
  406dfa:	700b      	strb	r3, [r1, #0]
  406dfc:	1c4d      	adds	r5, r1, #1
  406dfe:	e709      	b.n	406c14 <_dtoa_r+0x86c>
  406e00:	9a04      	ldr	r2, [sp, #16]
  406e02:	3201      	adds	r2, #1
  406e04:	9204      	str	r2, [sp, #16]
  406e06:	9a07      	ldr	r2, [sp, #28]
  406e08:	2331      	movs	r3, #49	; 0x31
  406e0a:	7013      	strb	r3, [r2, #0]
  406e0c:	e588      	b.n	406920 <_dtoa_r+0x578>
  406e0e:	2301      	movs	r3, #1
  406e10:	9309      	str	r3, [sp, #36]	; 0x24
  406e12:	e5cd      	b.n	4069b0 <_dtoa_r+0x608>
  406e14:	f8dd 9014 	ldr.w	r9, [sp, #20]
  406e18:	e491      	b.n	40673e <_dtoa_r+0x396>
  406e1a:	f1ba 0f00 	cmp.w	sl, #0
  406e1e:	f47f ad04 	bne.w	40682a <_dtoa_r+0x482>
  406e22:	f3cb 0313 	ubfx	r3, fp, #0, #20
  406e26:	2b00      	cmp	r3, #0
  406e28:	f040 813f 	bne.w	4070aa <_dtoa_r+0xd02>
  406e2c:	f02b 4700 	bic.w	r7, fp, #2147483648	; 0x80000000
  406e30:	0d3f      	lsrs	r7, r7, #20
  406e32:	053f      	lsls	r7, r7, #20
  406e34:	b137      	cbz	r7, 406e44 <_dtoa_r+0xa9c>
  406e36:	9b05      	ldr	r3, [sp, #20]
  406e38:	3301      	adds	r3, #1
  406e3a:	9305      	str	r3, [sp, #20]
  406e3c:	9b02      	ldr	r3, [sp, #8]
  406e3e:	3301      	adds	r3, #1
  406e40:	9302      	str	r3, [sp, #8]
  406e42:	2701      	movs	r7, #1
  406e44:	9b0b      	ldr	r3, [sp, #44]	; 0x2c
  406e46:	2001      	movs	r0, #1
  406e48:	2b00      	cmp	r3, #0
  406e4a:	f43f acf8 	beq.w	40683e <_dtoa_r+0x496>
  406e4e:	e4ed      	b.n	40682c <_dtoa_r+0x484>
  406e50:	4640      	mov	r0, r8
  406e52:	f002 f881 	bl	408f58 <__aeabi_i2d>
  406e56:	4632      	mov	r2, r6
  406e58:	463b      	mov	r3, r7
  406e5a:	f002 f8e3 	bl	409024 <__aeabi_dmul>
  406e5e:	2200      	movs	r2, #0
  406e60:	4bbf      	ldr	r3, [pc, #764]	; (407160 <_dtoa_r+0xdb8>)
  406e62:	f001 ff2d 	bl	408cc0 <__adddf3>
  406e66:	4604      	mov	r4, r0
  406e68:	f1a1 7550 	sub.w	r5, r1, #54525952	; 0x3400000
  406e6c:	4630      	mov	r0, r6
  406e6e:	4639      	mov	r1, r7
  406e70:	2200      	movs	r2, #0
  406e72:	4bbc      	ldr	r3, [pc, #752]	; (407164 <_dtoa_r+0xdbc>)
  406e74:	f001 ff22 	bl	408cbc <__aeabi_dsub>
  406e78:	4622      	mov	r2, r4
  406e7a:	462b      	mov	r3, r5
  406e7c:	4606      	mov	r6, r0
  406e7e:	460f      	mov	r7, r1
  406e80:	f002 fb60 	bl	409544 <__aeabi_dcmpgt>
  406e84:	4680      	mov	r8, r0
  406e86:	2800      	cmp	r0, #0
  406e88:	f040 8105 	bne.w	407096 <_dtoa_r+0xcee>
  406e8c:	4622      	mov	r2, r4
  406e8e:	f105 4300 	add.w	r3, r5, #2147483648	; 0x80000000
  406e92:	4630      	mov	r0, r6
  406e94:	4639      	mov	r1, r7
  406e96:	f002 fb37 	bl	409508 <__aeabi_dcmplt>
  406e9a:	b108      	cbz	r0, 406ea0 <_dtoa_r+0xaf8>
  406e9c:	4646      	mov	r6, r8
  406e9e:	e6b5      	b.n	406c0c <_dtoa_r+0x864>
  406ea0:	e9dd ab0e 	ldrd	sl, fp, [sp, #56]	; 0x38
  406ea4:	f7ff bb89 	b.w	4065ba <_dtoa_r+0x212>
  406ea8:	9807      	ldr	r0, [sp, #28]
  406eaa:	f7ff baae 	b.w	40640a <_dtoa_r+0x62>
  406eae:	9b0a      	ldr	r3, [sp, #40]	; 0x28
  406eb0:	9a0b      	ldr	r2, [sp, #44]	; 0x2c
  406eb2:	970a      	str	r7, [sp, #40]	; 0x28
  406eb4:	1afb      	subs	r3, r7, r3
  406eb6:	441a      	add	r2, r3
  406eb8:	920b      	str	r2, [sp, #44]	; 0x2c
  406eba:	2700      	movs	r7, #0
  406ebc:	e461      	b.n	406782 <_dtoa_r+0x3da>
  406ebe:	e9dd ab0e 	ldrd	sl, fp, [sp, #56]	; 0x38
  406ec2:	f04f 0802 	mov.w	r8, #2
  406ec6:	e5bb      	b.n	406a40 <_dtoa_r+0x698>
  406ec8:	461c      	mov	r4, r3
  406eca:	2100      	movs	r1, #0
  406ecc:	f8c9 1044 	str.w	r1, [r9, #68]	; 0x44
  406ed0:	e58a      	b.n	4069e8 <_dtoa_r+0x640>
  406ed2:	2401      	movs	r4, #1
  406ed4:	9421      	str	r4, [sp, #132]	; 0x84
  406ed6:	940d      	str	r4, [sp, #52]	; 0x34
  406ed8:	9406      	str	r4, [sp, #24]
  406eda:	e7f6      	b.n	406eca <_dtoa_r+0xb22>
  406edc:	2a00      	cmp	r2, #0
  406ede:	46d0      	mov	r8, sl
  406ee0:	f8cd b014 	str.w	fp, [sp, #20]
  406ee4:	469a      	mov	sl, r3
  406ee6:	dd11      	ble.n	406f0c <_dtoa_r+0xb64>
  406ee8:	4621      	mov	r1, r4
  406eea:	2201      	movs	r2, #1
  406eec:	4648      	mov	r0, r9
  406eee:	f001 f903 	bl	4080f8 <__lshift>
  406ef2:	4641      	mov	r1, r8
  406ef4:	4604      	mov	r4, r0
  406ef6:	f001 f957 	bl	4081a8 <__mcmp>
  406efa:	2800      	cmp	r0, #0
  406efc:	f340 8149 	ble.w	407192 <_dtoa_r+0xdea>
  406f00:	f1ba 0f39 	cmp.w	sl, #57	; 0x39
  406f04:	f000 8106 	beq.w	407114 <_dtoa_r+0xd6c>
  406f08:	f105 0a31 	add.w	sl, r5, #49	; 0x31
  406f0c:	46b3      	mov	fp, r6
  406f0e:	f887 a000 	strb.w	sl, [r7]
  406f12:	1c7d      	adds	r5, r7, #1
  406f14:	9e05      	ldr	r6, [sp, #20]
  406f16:	9408      	str	r4, [sp, #32]
  406f18:	e502      	b.n	406920 <_dtoa_r+0x578>
  406f1a:	d104      	bne.n	406f26 <_dtoa_r+0xb7e>
  406f1c:	f01a 0f01 	tst.w	sl, #1
  406f20:	d001      	beq.n	406f26 <_dtoa_r+0xb7e>
  406f22:	e4ed      	b.n	406900 <_dtoa_r+0x558>
  406f24:	4615      	mov	r5, r2
  406f26:	f815 3c01 	ldrb.w	r3, [r5, #-1]
  406f2a:	2b30      	cmp	r3, #48	; 0x30
  406f2c:	f105 32ff 	add.w	r2, r5, #4294967295
  406f30:	d0f8      	beq.n	406f24 <_dtoa_r+0xb7c>
  406f32:	e4f5      	b.n	406920 <_dtoa_r+0x578>
  406f34:	9b04      	ldr	r3, [sp, #16]
  406f36:	425c      	negs	r4, r3
  406f38:	2c00      	cmp	r4, #0
  406f3a:	f000 80bf 	beq.w	4070bc <_dtoa_r+0xd14>
  406f3e:	4b8a      	ldr	r3, [pc, #552]	; (407168 <_dtoa_r+0xdc0>)
  406f40:	f004 020f 	and.w	r2, r4, #15
  406f44:	eb03 03c2 	add.w	r3, r3, r2, lsl #3
  406f48:	e9d3 2300 	ldrd	r2, r3, [r3]
  406f4c:	e9dd 010e 	ldrd	r0, r1, [sp, #56]	; 0x38
  406f50:	f002 f868 	bl	409024 <__aeabi_dmul>
  406f54:	1124      	asrs	r4, r4, #4
  406f56:	4606      	mov	r6, r0
  406f58:	460f      	mov	r7, r1
  406f5a:	f000 812a 	beq.w	4071b2 <_dtoa_r+0xe0a>
  406f5e:	4d83      	ldr	r5, [pc, #524]	; (40716c <_dtoa_r+0xdc4>)
  406f60:	f04f 0802 	mov.w	r8, #2
  406f64:	07e2      	lsls	r2, r4, #31
  406f66:	d509      	bpl.n	406f7c <_dtoa_r+0xbd4>
  406f68:	4630      	mov	r0, r6
  406f6a:	4639      	mov	r1, r7
  406f6c:	e9d5 2300 	ldrd	r2, r3, [r5]
  406f70:	f002 f858 	bl	409024 <__aeabi_dmul>
  406f74:	f108 0801 	add.w	r8, r8, #1
  406f78:	4606      	mov	r6, r0
  406f7a:	460f      	mov	r7, r1
  406f7c:	1064      	asrs	r4, r4, #1
  406f7e:	f105 0508 	add.w	r5, r5, #8
  406f82:	d1ef      	bne.n	406f64 <_dtoa_r+0xbbc>
  406f84:	e576      	b.n	406a74 <_dtoa_r+0x6cc>
  406f86:	9907      	ldr	r1, [sp, #28]
  406f88:	2230      	movs	r2, #48	; 0x30
  406f8a:	700a      	strb	r2, [r1, #0]
  406f8c:	9a04      	ldr	r2, [sp, #16]
  406f8e:	f815 4c01 	ldrb.w	r4, [r5, #-1]
  406f92:	3201      	adds	r2, #1
  406f94:	9204      	str	r2, [sp, #16]
  406f96:	f7ff bbd0 	b.w	40673a <_dtoa_r+0x392>
  406f9a:	6871      	ldr	r1, [r6, #4]
  406f9c:	4648      	mov	r0, r9
  406f9e:	f000 fefb 	bl	407d98 <_Balloc>
  406fa2:	6933      	ldr	r3, [r6, #16]
  406fa4:	1c9a      	adds	r2, r3, #2
  406fa6:	4605      	mov	r5, r0
  406fa8:	0092      	lsls	r2, r2, #2
  406faa:	f106 010c 	add.w	r1, r6, #12
  406fae:	300c      	adds	r0, #12
  406fb0:	f7fc fb3a 	bl	403628 <memcpy>
  406fb4:	4629      	mov	r1, r5
  406fb6:	2201      	movs	r2, #1
  406fb8:	4648      	mov	r0, r9
  406fba:	f001 f89d 	bl	4080f8 <__lshift>
  406fbe:	9005      	str	r0, [sp, #20]
  406fc0:	e670      	b.n	406ca4 <_dtoa_r+0x8fc>
  406fc2:	2b39      	cmp	r3, #57	; 0x39
  406fc4:	f8cd b014 	str.w	fp, [sp, #20]
  406fc8:	46d0      	mov	r8, sl
  406fca:	f000 80a3 	beq.w	407114 <_dtoa_r+0xd6c>
  406fce:	f103 0a01 	add.w	sl, r3, #1
  406fd2:	46b3      	mov	fp, r6
  406fd4:	f887 a000 	strb.w	sl, [r7]
  406fd8:	1c7d      	adds	r5, r7, #1
  406fda:	9e05      	ldr	r6, [sp, #20]
  406fdc:	9408      	str	r4, [sp, #32]
  406fde:	e49f      	b.n	406920 <_dtoa_r+0x578>
  406fe0:	465a      	mov	r2, fp
  406fe2:	46d0      	mov	r8, sl
  406fe4:	46b3      	mov	fp, r6
  406fe6:	469a      	mov	sl, r3
  406fe8:	4616      	mov	r6, r2
  406fea:	e47d      	b.n	4068e8 <_dtoa_r+0x540>
  406fec:	495e      	ldr	r1, [pc, #376]	; (407168 <_dtoa_r+0xdc0>)
  406fee:	f108 3aff 	add.w	sl, r8, #4294967295
  406ff2:	eb01 01ca 	add.w	r1, r1, sl, lsl #3
  406ff6:	4622      	mov	r2, r4
  406ff8:	462b      	mov	r3, r5
  406ffa:	e9d1 0100 	ldrd	r0, r1, [r1]
  406ffe:	f002 f811 	bl	409024 <__aeabi_dmul>
  407002:	e9cd 0112 	strd	r0, r1, [sp, #72]	; 0x48
  407006:	4639      	mov	r1, r7
  407008:	4630      	mov	r0, r6
  40700a:	f002 fabb 	bl	409584 <__aeabi_d2iz>
  40700e:	4604      	mov	r4, r0
  407010:	f001 ffa2 	bl	408f58 <__aeabi_i2d>
  407014:	4602      	mov	r2, r0
  407016:	460b      	mov	r3, r1
  407018:	4630      	mov	r0, r6
  40701a:	4639      	mov	r1, r7
  40701c:	f001 fe4e 	bl	408cbc <__aeabi_dsub>
  407020:	9a07      	ldr	r2, [sp, #28]
  407022:	3430      	adds	r4, #48	; 0x30
  407024:	f1b8 0f01 	cmp.w	r8, #1
  407028:	4606      	mov	r6, r0
  40702a:	460f      	mov	r7, r1
  40702c:	7014      	strb	r4, [r2, #0]
  40702e:	f102 0501 	add.w	r5, r2, #1
  407032:	d01e      	beq.n	407072 <_dtoa_r+0xcca>
  407034:	9b07      	ldr	r3, [sp, #28]
  407036:	eb03 0b08 	add.w	fp, r3, r8
  40703a:	46a8      	mov	r8, r5
  40703c:	2200      	movs	r2, #0
  40703e:	4b4c      	ldr	r3, [pc, #304]	; (407170 <_dtoa_r+0xdc8>)
  407040:	4630      	mov	r0, r6
  407042:	4639      	mov	r1, r7
  407044:	f001 ffee 	bl	409024 <__aeabi_dmul>
  407048:	460f      	mov	r7, r1
  40704a:	4606      	mov	r6, r0
  40704c:	f002 fa9a 	bl	409584 <__aeabi_d2iz>
  407050:	4604      	mov	r4, r0
  407052:	f001 ff81 	bl	408f58 <__aeabi_i2d>
  407056:	3430      	adds	r4, #48	; 0x30
  407058:	4602      	mov	r2, r0
  40705a:	460b      	mov	r3, r1
  40705c:	4630      	mov	r0, r6
  40705e:	4639      	mov	r1, r7
  407060:	f001 fe2c 	bl	408cbc <__aeabi_dsub>
  407064:	f808 4b01 	strb.w	r4, [r8], #1
  407068:	45c3      	cmp	fp, r8
  40706a:	4606      	mov	r6, r0
  40706c:	460f      	mov	r7, r1
  40706e:	d1e5      	bne.n	40703c <_dtoa_r+0xc94>
  407070:	4455      	add	r5, sl
  407072:	2200      	movs	r2, #0
  407074:	4b3f      	ldr	r3, [pc, #252]	; (407174 <_dtoa_r+0xdcc>)
  407076:	e9dd 0112 	ldrd	r0, r1, [sp, #72]	; 0x48
  40707a:	f001 fe21 	bl	408cc0 <__adddf3>
  40707e:	4632      	mov	r2, r6
  407080:	463b      	mov	r3, r7
  407082:	f002 fa41 	bl	409508 <__aeabi_dcmplt>
  407086:	2800      	cmp	r0, #0
  407088:	d04c      	beq.n	407124 <_dtoa_r+0xd7c>
  40708a:	9b11      	ldr	r3, [sp, #68]	; 0x44
  40708c:	9304      	str	r3, [sp, #16]
  40708e:	f815 4c01 	ldrb.w	r4, [r5, #-1]
  407092:	f7ff bb46 	b.w	406722 <_dtoa_r+0x37a>
  407096:	f04f 0800 	mov.w	r8, #0
  40709a:	4646      	mov	r6, r8
  40709c:	e6a8      	b.n	406df0 <_dtoa_r+0xa48>
  40709e:	9b05      	ldr	r3, [sp, #20]
  4070a0:	9a06      	ldr	r2, [sp, #24]
  4070a2:	1a9d      	subs	r5, r3, r2
  4070a4:	2300      	movs	r3, #0
  4070a6:	f7ff bb72 	b.w	40678e <_dtoa_r+0x3e6>
  4070aa:	2700      	movs	r7, #0
  4070ac:	e6ca      	b.n	406e44 <_dtoa_r+0xa9c>
  4070ae:	9b14      	ldr	r3, [sp, #80]	; 0x50
  4070b0:	9f0a      	ldr	r7, [sp, #40]	; 0x28
  4070b2:	9d05      	ldr	r5, [sp, #20]
  4070b4:	f1c3 0336 	rsb	r3, r3, #54	; 0x36
  4070b8:	f7ff bb69 	b.w	40678e <_dtoa_r+0x3e6>
  4070bc:	e9dd 670e 	ldrd	r6, r7, [sp, #56]	; 0x38
  4070c0:	f04f 0802 	mov.w	r8, #2
  4070c4:	e4d6      	b.n	406a74 <_dtoa_r+0x6cc>
  4070c6:	9408      	str	r4, [sp, #32]
  4070c8:	e5a0      	b.n	406c0c <_dtoa_r+0x864>
  4070ca:	9b06      	ldr	r3, [sp, #24]
  4070cc:	2b00      	cmp	r3, #0
  4070ce:	f43f aebf 	beq.w	406e50 <_dtoa_r+0xaa8>
  4070d2:	9b0d      	ldr	r3, [sp, #52]	; 0x34
  4070d4:	2b00      	cmp	r3, #0
  4070d6:	f77f aee3 	ble.w	406ea0 <_dtoa_r+0xaf8>
  4070da:	2200      	movs	r2, #0
  4070dc:	4b24      	ldr	r3, [pc, #144]	; (407170 <_dtoa_r+0xdc8>)
  4070de:	4630      	mov	r0, r6
  4070e0:	4639      	mov	r1, r7
  4070e2:	f001 ff9f 	bl	409024 <__aeabi_dmul>
  4070e6:	4606      	mov	r6, r0
  4070e8:	460f      	mov	r7, r1
  4070ea:	f108 0001 	add.w	r0, r8, #1
  4070ee:	f001 ff33 	bl	408f58 <__aeabi_i2d>
  4070f2:	4632      	mov	r2, r6
  4070f4:	463b      	mov	r3, r7
  4070f6:	f001 ff95 	bl	409024 <__aeabi_dmul>
  4070fa:	2200      	movs	r2, #0
  4070fc:	4b18      	ldr	r3, [pc, #96]	; (407160 <_dtoa_r+0xdb8>)
  4070fe:	f001 fddf 	bl	408cc0 <__adddf3>
  407102:	9a04      	ldr	r2, [sp, #16]
  407104:	f8dd 8034 	ldr.w	r8, [sp, #52]	; 0x34
  407108:	3a01      	subs	r2, #1
  40710a:	4604      	mov	r4, r0
  40710c:	f1a1 7550 	sub.w	r5, r1, #54525952	; 0x3400000
  407110:	9211      	str	r2, [sp, #68]	; 0x44
  407112:	e4d0      	b.n	406ab6 <_dtoa_r+0x70e>
  407114:	2239      	movs	r2, #57	; 0x39
  407116:	46b3      	mov	fp, r6
  407118:	9408      	str	r4, [sp, #32]
  40711a:	9e05      	ldr	r6, [sp, #20]
  40711c:	703a      	strb	r2, [r7, #0]
  40711e:	1c7d      	adds	r5, r7, #1
  407120:	f7ff bbf0 	b.w	406904 <_dtoa_r+0x55c>
  407124:	e9dd 2312 	ldrd	r2, r3, [sp, #72]	; 0x48
  407128:	2000      	movs	r0, #0
  40712a:	4912      	ldr	r1, [pc, #72]	; (407174 <_dtoa_r+0xdcc>)
  40712c:	f001 fdc6 	bl	408cbc <__aeabi_dsub>
  407130:	4632      	mov	r2, r6
  407132:	463b      	mov	r3, r7
  407134:	f002 fa06 	bl	409544 <__aeabi_dcmpgt>
  407138:	b908      	cbnz	r0, 40713e <_dtoa_r+0xd96>
  40713a:	e6b1      	b.n	406ea0 <_dtoa_r+0xaf8>
  40713c:	4615      	mov	r5, r2
  40713e:	f815 3c01 	ldrb.w	r3, [r5, #-1]
  407142:	2b30      	cmp	r3, #48	; 0x30
  407144:	f105 32ff 	add.w	r2, r5, #4294967295
  407148:	d0f8      	beq.n	40713c <_dtoa_r+0xd94>
  40714a:	e530      	b.n	406bae <_dtoa_r+0x806>
  40714c:	9b11      	ldr	r3, [sp, #68]	; 0x44
  40714e:	9304      	str	r3, [sp, #16]
  407150:	f7ff bae7 	b.w	406722 <_dtoa_r+0x37a>
  407154:	f1ba 0f00 	cmp.w	sl, #0
  407158:	f47f ad7a 	bne.w	406c50 <_dtoa_r+0x8a8>
  40715c:	e661      	b.n	406e22 <_dtoa_r+0xa7a>
  40715e:	bf00      	nop
  407160:	401c0000 	.word	0x401c0000
  407164:	40140000 	.word	0x40140000
  407168:	00409ac0 	.word	0x00409ac0
  40716c:	00409b88 	.word	0x00409b88
  407170:	40240000 	.word	0x40240000
  407174:	3fe00000 	.word	0x3fe00000
  407178:	2b39      	cmp	r3, #57	; 0x39
  40717a:	f8cd b014 	str.w	fp, [sp, #20]
  40717e:	46d0      	mov	r8, sl
  407180:	f8dd b008 	ldr.w	fp, [sp, #8]
  407184:	469a      	mov	sl, r3
  407186:	d0c5      	beq.n	407114 <_dtoa_r+0xd6c>
  407188:	f1bb 0f00 	cmp.w	fp, #0
  40718c:	f73f aebc 	bgt.w	406f08 <_dtoa_r+0xb60>
  407190:	e6bc      	b.n	406f0c <_dtoa_r+0xb64>
  407192:	f47f aebb 	bne.w	406f0c <_dtoa_r+0xb64>
  407196:	f01a 0f01 	tst.w	sl, #1
  40719a:	f43f aeb7 	beq.w	406f0c <_dtoa_r+0xb64>
  40719e:	e6af      	b.n	406f00 <_dtoa_r+0xb58>
  4071a0:	f04f 0800 	mov.w	r8, #0
  4071a4:	4646      	mov	r6, r8
  4071a6:	e531      	b.n	406c0c <_dtoa_r+0x864>
  4071a8:	9b20      	ldr	r3, [sp, #128]	; 0x80
  4071aa:	2b02      	cmp	r3, #2
  4071ac:	dc21      	bgt.n	4071f2 <_dtoa_r+0xe4a>
  4071ae:	9b0d      	ldr	r3, [sp, #52]	; 0x34
  4071b0:	e604      	b.n	406dbc <_dtoa_r+0xa14>
  4071b2:	f04f 0802 	mov.w	r8, #2
  4071b6:	e45d      	b.n	406a74 <_dtoa_r+0x6cc>
  4071b8:	9b20      	ldr	r3, [sp, #128]	; 0x80
  4071ba:	2b02      	cmp	r3, #2
  4071bc:	dc19      	bgt.n	4071f2 <_dtoa_r+0xe4a>
  4071be:	9b0d      	ldr	r3, [sp, #52]	; 0x34
  4071c0:	e563      	b.n	406c8a <_dtoa_r+0x8e2>
  4071c2:	2400      	movs	r4, #0
  4071c4:	f8c9 4044 	str.w	r4, [r9, #68]	; 0x44
  4071c8:	4621      	mov	r1, r4
  4071ca:	4648      	mov	r0, r9
  4071cc:	f000 fde4 	bl	407d98 <_Balloc>
  4071d0:	f04f 33ff 	mov.w	r3, #4294967295
  4071d4:	9306      	str	r3, [sp, #24]
  4071d6:	930d      	str	r3, [sp, #52]	; 0x34
  4071d8:	2301      	movs	r3, #1
  4071da:	9007      	str	r0, [sp, #28]
  4071dc:	9421      	str	r4, [sp, #132]	; 0x84
  4071de:	f8c9 0040 	str.w	r0, [r9, #64]	; 0x40
  4071e2:	9309      	str	r3, [sp, #36]	; 0x24
  4071e4:	f7ff b9e9 	b.w	4065ba <_dtoa_r+0x212>
  4071e8:	f43f ab3d 	beq.w	406866 <_dtoa_r+0x4be>
  4071ec:	f1c0 003c 	rsb	r0, r0, #60	; 0x3c
  4071f0:	e522      	b.n	406c38 <_dtoa_r+0x890>
  4071f2:	9b0d      	ldr	r3, [sp, #52]	; 0x34
  4071f4:	9306      	str	r3, [sp, #24]
  4071f6:	e5e9      	b.n	406dcc <_dtoa_r+0xa24>
  4071f8:	2501      	movs	r5, #1
  4071fa:	f7ff b9a8 	b.w	40654e <_dtoa_r+0x1a6>
  4071fe:	bf00      	nop

00407200 <__sflush_r>:
  407200:	f9b1 300c 	ldrsh.w	r3, [r1, #12]
  407204:	b29a      	uxth	r2, r3
  407206:	e92d 41f0 	stmdb	sp!, {r4, r5, r6, r7, r8, lr}
  40720a:	460d      	mov	r5, r1
  40720c:	0711      	lsls	r1, r2, #28
  40720e:	4680      	mov	r8, r0
  407210:	d43c      	bmi.n	40728c <__sflush_r+0x8c>
  407212:	686a      	ldr	r2, [r5, #4]
  407214:	f443 6300 	orr.w	r3, r3, #2048	; 0x800
  407218:	2a00      	cmp	r2, #0
  40721a:	81ab      	strh	r3, [r5, #12]
  40721c:	dd73      	ble.n	407306 <__sflush_r+0x106>
  40721e:	6aac      	ldr	r4, [r5, #40]	; 0x28
  407220:	2c00      	cmp	r4, #0
  407222:	d04b      	beq.n	4072bc <__sflush_r+0xbc>
  407224:	b29b      	uxth	r3, r3
  407226:	f403 5280 	and.w	r2, r3, #4096	; 0x1000
  40722a:	2100      	movs	r1, #0
  40722c:	b292      	uxth	r2, r2
  40722e:	f8d8 6000 	ldr.w	r6, [r8]
  407232:	f8c8 1000 	str.w	r1, [r8]
  407236:	2a00      	cmp	r2, #0
  407238:	d069      	beq.n	40730e <__sflush_r+0x10e>
  40723a:	6d2a      	ldr	r2, [r5, #80]	; 0x50
  40723c:	075f      	lsls	r7, r3, #29
  40723e:	d505      	bpl.n	40724c <__sflush_r+0x4c>
  407240:	6869      	ldr	r1, [r5, #4]
  407242:	6b2b      	ldr	r3, [r5, #48]	; 0x30
  407244:	1a52      	subs	r2, r2, r1
  407246:	b10b      	cbz	r3, 40724c <__sflush_r+0x4c>
  407248:	6beb      	ldr	r3, [r5, #60]	; 0x3c
  40724a:	1ad2      	subs	r2, r2, r3
  40724c:	2300      	movs	r3, #0
  40724e:	69e9      	ldr	r1, [r5, #28]
  407250:	4640      	mov	r0, r8
  407252:	47a0      	blx	r4
  407254:	1c44      	adds	r4, r0, #1
  407256:	d03c      	beq.n	4072d2 <__sflush_r+0xd2>
  407258:	f9b5 300c 	ldrsh.w	r3, [r5, #12]
  40725c:	692a      	ldr	r2, [r5, #16]
  40725e:	602a      	str	r2, [r5, #0]
  407260:	f423 6300 	bic.w	r3, r3, #2048	; 0x800
  407264:	2200      	movs	r2, #0
  407266:	81ab      	strh	r3, [r5, #12]
  407268:	04db      	lsls	r3, r3, #19
  40726a:	606a      	str	r2, [r5, #4]
  40726c:	d449      	bmi.n	407302 <__sflush_r+0x102>
  40726e:	6b29      	ldr	r1, [r5, #48]	; 0x30
  407270:	f8c8 6000 	str.w	r6, [r8]
  407274:	b311      	cbz	r1, 4072bc <__sflush_r+0xbc>
  407276:	f105 0340 	add.w	r3, r5, #64	; 0x40
  40727a:	4299      	cmp	r1, r3
  40727c:	d002      	beq.n	407284 <__sflush_r+0x84>
  40727e:	4640      	mov	r0, r8
  407280:	f000 f9c0 	bl	407604 <_free_r>
  407284:	2000      	movs	r0, #0
  407286:	6328      	str	r0, [r5, #48]	; 0x30
  407288:	e8bd 81f0 	ldmia.w	sp!, {r4, r5, r6, r7, r8, pc}
  40728c:	692e      	ldr	r6, [r5, #16]
  40728e:	b1ae      	cbz	r6, 4072bc <__sflush_r+0xbc>
  407290:	682c      	ldr	r4, [r5, #0]
  407292:	602e      	str	r6, [r5, #0]
  407294:	0790      	lsls	r0, r2, #30
  407296:	bf0c      	ite	eq
  407298:	696b      	ldreq	r3, [r5, #20]
  40729a:	2300      	movne	r3, #0
  40729c:	1ba4      	subs	r4, r4, r6
  40729e:	60ab      	str	r3, [r5, #8]
  4072a0:	e00a      	b.n	4072b8 <__sflush_r+0xb8>
  4072a2:	4623      	mov	r3, r4
  4072a4:	4632      	mov	r2, r6
  4072a6:	6a6f      	ldr	r7, [r5, #36]	; 0x24
  4072a8:	69e9      	ldr	r1, [r5, #28]
  4072aa:	4640      	mov	r0, r8
  4072ac:	47b8      	blx	r7
  4072ae:	2800      	cmp	r0, #0
  4072b0:	eba4 0400 	sub.w	r4, r4, r0
  4072b4:	4406      	add	r6, r0
  4072b6:	dd04      	ble.n	4072c2 <__sflush_r+0xc2>
  4072b8:	2c00      	cmp	r4, #0
  4072ba:	dcf2      	bgt.n	4072a2 <__sflush_r+0xa2>
  4072bc:	2000      	movs	r0, #0
  4072be:	e8bd 81f0 	ldmia.w	sp!, {r4, r5, r6, r7, r8, pc}
  4072c2:	89ab      	ldrh	r3, [r5, #12]
  4072c4:	f043 0340 	orr.w	r3, r3, #64	; 0x40
  4072c8:	81ab      	strh	r3, [r5, #12]
  4072ca:	f04f 30ff 	mov.w	r0, #4294967295
  4072ce:	e8bd 81f0 	ldmia.w	sp!, {r4, r5, r6, r7, r8, pc}
  4072d2:	f8d8 2000 	ldr.w	r2, [r8]
  4072d6:	2a1d      	cmp	r2, #29
  4072d8:	d8f3      	bhi.n	4072c2 <__sflush_r+0xc2>
  4072da:	4b1a      	ldr	r3, [pc, #104]	; (407344 <__sflush_r+0x144>)
  4072dc:	40d3      	lsrs	r3, r2
  4072de:	f003 0301 	and.w	r3, r3, #1
  4072e2:	f083 0401 	eor.w	r4, r3, #1
  4072e6:	2b00      	cmp	r3, #0
  4072e8:	d0eb      	beq.n	4072c2 <__sflush_r+0xc2>
  4072ea:	f9b5 300c 	ldrsh.w	r3, [r5, #12]
  4072ee:	6929      	ldr	r1, [r5, #16]
  4072f0:	6029      	str	r1, [r5, #0]
  4072f2:	f423 6300 	bic.w	r3, r3, #2048	; 0x800
  4072f6:	04d9      	lsls	r1, r3, #19
  4072f8:	606c      	str	r4, [r5, #4]
  4072fa:	81ab      	strh	r3, [r5, #12]
  4072fc:	d5b7      	bpl.n	40726e <__sflush_r+0x6e>
  4072fe:	2a00      	cmp	r2, #0
  407300:	d1b5      	bne.n	40726e <__sflush_r+0x6e>
  407302:	6528      	str	r0, [r5, #80]	; 0x50
  407304:	e7b3      	b.n	40726e <__sflush_r+0x6e>
  407306:	6bea      	ldr	r2, [r5, #60]	; 0x3c
  407308:	2a00      	cmp	r2, #0
  40730a:	dc88      	bgt.n	40721e <__sflush_r+0x1e>
  40730c:	e7d6      	b.n	4072bc <__sflush_r+0xbc>
  40730e:	2301      	movs	r3, #1
  407310:	69e9      	ldr	r1, [r5, #28]
  407312:	4640      	mov	r0, r8
  407314:	47a0      	blx	r4
  407316:	1c43      	adds	r3, r0, #1
  407318:	4602      	mov	r2, r0
  40731a:	d002      	beq.n	407322 <__sflush_r+0x122>
  40731c:	89ab      	ldrh	r3, [r5, #12]
  40731e:	6aac      	ldr	r4, [r5, #40]	; 0x28
  407320:	e78c      	b.n	40723c <__sflush_r+0x3c>
  407322:	f8d8 3000 	ldr.w	r3, [r8]
  407326:	2b00      	cmp	r3, #0
  407328:	d0f8      	beq.n	40731c <__sflush_r+0x11c>
  40732a:	2b1d      	cmp	r3, #29
  40732c:	d001      	beq.n	407332 <__sflush_r+0x132>
  40732e:	2b16      	cmp	r3, #22
  407330:	d102      	bne.n	407338 <__sflush_r+0x138>
  407332:	f8c8 6000 	str.w	r6, [r8]
  407336:	e7c1      	b.n	4072bc <__sflush_r+0xbc>
  407338:	89ab      	ldrh	r3, [r5, #12]
  40733a:	f043 0340 	orr.w	r3, r3, #64	; 0x40
  40733e:	81ab      	strh	r3, [r5, #12]
  407340:	e8bd 81f0 	ldmia.w	sp!, {r4, r5, r6, r7, r8, pc}
  407344:	20400001 	.word	0x20400001

00407348 <_fflush_r>:
  407348:	b510      	push	{r4, lr}
  40734a:	4604      	mov	r4, r0
  40734c:	b082      	sub	sp, #8
  40734e:	b108      	cbz	r0, 407354 <_fflush_r+0xc>
  407350:	6b83      	ldr	r3, [r0, #56]	; 0x38
  407352:	b153      	cbz	r3, 40736a <_fflush_r+0x22>
  407354:	f9b1 000c 	ldrsh.w	r0, [r1, #12]
  407358:	b908      	cbnz	r0, 40735e <_fflush_r+0x16>
  40735a:	b002      	add	sp, #8
  40735c:	bd10      	pop	{r4, pc}
  40735e:	4620      	mov	r0, r4
  407360:	b002      	add	sp, #8
  407362:	e8bd 4010 	ldmia.w	sp!, {r4, lr}
  407366:	f7ff bf4b 	b.w	407200 <__sflush_r>
  40736a:	9101      	str	r1, [sp, #4]
  40736c:	f000 f880 	bl	407470 <__sinit>
  407370:	9901      	ldr	r1, [sp, #4]
  407372:	e7ef      	b.n	407354 <_fflush_r+0xc>

00407374 <_cleanup_r>:
  407374:	4901      	ldr	r1, [pc, #4]	; (40737c <_cleanup_r+0x8>)
  407376:	f000 bbaf 	b.w	407ad8 <_fwalk_reent>
  40737a:	bf00      	nop
  40737c:	00408b8d 	.word	0x00408b8d

00407380 <__sinit.part.1>:
  407380:	e92d 4ff0 	stmdb	sp!, {r4, r5, r6, r7, r8, r9, sl, fp, lr}
  407384:	4b35      	ldr	r3, [pc, #212]	; (40745c <__sinit.part.1+0xdc>)
  407386:	6845      	ldr	r5, [r0, #4]
  407388:	63c3      	str	r3, [r0, #60]	; 0x3c
  40738a:	2400      	movs	r4, #0
  40738c:	4607      	mov	r7, r0
  40738e:	f500 723b 	add.w	r2, r0, #748	; 0x2ec
  407392:	2304      	movs	r3, #4
  407394:	2103      	movs	r1, #3
  407396:	f8c0 12e4 	str.w	r1, [r0, #740]	; 0x2e4
  40739a:	f8c0 22e8 	str.w	r2, [r0, #744]	; 0x2e8
  40739e:	f8c0 42e0 	str.w	r4, [r0, #736]	; 0x2e0
  4073a2:	b083      	sub	sp, #12
  4073a4:	602c      	str	r4, [r5, #0]
  4073a6:	606c      	str	r4, [r5, #4]
  4073a8:	60ac      	str	r4, [r5, #8]
  4073aa:	666c      	str	r4, [r5, #100]	; 0x64
  4073ac:	81ec      	strh	r4, [r5, #14]
  4073ae:	612c      	str	r4, [r5, #16]
  4073b0:	616c      	str	r4, [r5, #20]
  4073b2:	61ac      	str	r4, [r5, #24]
  4073b4:	81ab      	strh	r3, [r5, #12]
  4073b6:	4621      	mov	r1, r4
  4073b8:	f105 005c 	add.w	r0, r5, #92	; 0x5c
  4073bc:	2208      	movs	r2, #8
  4073be:	f7fc f9cd 	bl	40375c <memset>
  4073c2:	68be      	ldr	r6, [r7, #8]
  4073c4:	f8df b098 	ldr.w	fp, [pc, #152]	; 407460 <__sinit.part.1+0xe0>
  4073c8:	f8df a098 	ldr.w	sl, [pc, #152]	; 407464 <__sinit.part.1+0xe4>
  4073cc:	f8df 9098 	ldr.w	r9, [pc, #152]	; 407468 <__sinit.part.1+0xe8>
  4073d0:	f8df 8098 	ldr.w	r8, [pc, #152]	; 40746c <__sinit.part.1+0xec>
  4073d4:	f8c5 b020 	str.w	fp, [r5, #32]
  4073d8:	2301      	movs	r3, #1
  4073da:	2209      	movs	r2, #9
  4073dc:	f8c5 a024 	str.w	sl, [r5, #36]	; 0x24
  4073e0:	f8c5 9028 	str.w	r9, [r5, #40]	; 0x28
  4073e4:	f8c5 802c 	str.w	r8, [r5, #44]	; 0x2c
  4073e8:	61ed      	str	r5, [r5, #28]
  4073ea:	4621      	mov	r1, r4
  4073ec:	81f3      	strh	r3, [r6, #14]
  4073ee:	81b2      	strh	r2, [r6, #12]
  4073f0:	f106 005c 	add.w	r0, r6, #92	; 0x5c
  4073f4:	6034      	str	r4, [r6, #0]
  4073f6:	6074      	str	r4, [r6, #4]
  4073f8:	60b4      	str	r4, [r6, #8]
  4073fa:	6674      	str	r4, [r6, #100]	; 0x64
  4073fc:	6134      	str	r4, [r6, #16]
  4073fe:	6174      	str	r4, [r6, #20]
  407400:	61b4      	str	r4, [r6, #24]
  407402:	2208      	movs	r2, #8
  407404:	9301      	str	r3, [sp, #4]
  407406:	f7fc f9a9 	bl	40375c <memset>
  40740a:	68fd      	ldr	r5, [r7, #12]
  40740c:	61f6      	str	r6, [r6, #28]
  40740e:	2012      	movs	r0, #18
  407410:	2202      	movs	r2, #2
  407412:	f8c6 b020 	str.w	fp, [r6, #32]
  407416:	f8c6 a024 	str.w	sl, [r6, #36]	; 0x24
  40741a:	f8c6 9028 	str.w	r9, [r6, #40]	; 0x28
  40741e:	f8c6 802c 	str.w	r8, [r6, #44]	; 0x2c
  407422:	4621      	mov	r1, r4
  407424:	81a8      	strh	r0, [r5, #12]
  407426:	81ea      	strh	r2, [r5, #14]
  407428:	602c      	str	r4, [r5, #0]
  40742a:	606c      	str	r4, [r5, #4]
  40742c:	60ac      	str	r4, [r5, #8]
  40742e:	666c      	str	r4, [r5, #100]	; 0x64
  407430:	612c      	str	r4, [r5, #16]
  407432:	616c      	str	r4, [r5, #20]
  407434:	61ac      	str	r4, [r5, #24]
  407436:	f105 005c 	add.w	r0, r5, #92	; 0x5c
  40743a:	2208      	movs	r2, #8
  40743c:	f7fc f98e 	bl	40375c <memset>
  407440:	9b01      	ldr	r3, [sp, #4]
  407442:	61ed      	str	r5, [r5, #28]
  407444:	f8c5 b020 	str.w	fp, [r5, #32]
  407448:	f8c5 a024 	str.w	sl, [r5, #36]	; 0x24
  40744c:	f8c5 9028 	str.w	r9, [r5, #40]	; 0x28
  407450:	f8c5 802c 	str.w	r8, [r5, #44]	; 0x2c
  407454:	63bb      	str	r3, [r7, #56]	; 0x38
  407456:	b003      	add	sp, #12
  407458:	e8bd 8ff0 	ldmia.w	sp!, {r4, r5, r6, r7, r8, r9, sl, fp, pc}
  40745c:	00407375 	.word	0x00407375
  407460:	00408795 	.word	0x00408795
  407464:	004087b9 	.word	0x004087b9
  407468:	004087f5 	.word	0x004087f5
  40746c:	00408815 	.word	0x00408815

00407470 <__sinit>:
  407470:	6b83      	ldr	r3, [r0, #56]	; 0x38
  407472:	b103      	cbz	r3, 407476 <__sinit+0x6>
  407474:	4770      	bx	lr
  407476:	f7ff bf83 	b.w	407380 <__sinit.part.1>
  40747a:	bf00      	nop

0040747c <__sfp_lock_acquire>:
  40747c:	4770      	bx	lr
  40747e:	bf00      	nop

00407480 <__sfp_lock_release>:
  407480:	4770      	bx	lr
  407482:	bf00      	nop

00407484 <__libc_fini_array>:
  407484:	b538      	push	{r3, r4, r5, lr}
  407486:	4d07      	ldr	r5, [pc, #28]	; (4074a4 <__libc_fini_array+0x20>)
  407488:	4c07      	ldr	r4, [pc, #28]	; (4074a8 <__libc_fini_array+0x24>)
  40748a:	1b2c      	subs	r4, r5, r4
  40748c:	10a4      	asrs	r4, r4, #2
  40748e:	d005      	beq.n	40749c <__libc_fini_array+0x18>
  407490:	3c01      	subs	r4, #1
  407492:	f855 3d04 	ldr.w	r3, [r5, #-4]!
  407496:	4798      	blx	r3
  407498:	2c00      	cmp	r4, #0
  40749a:	d1f9      	bne.n	407490 <__libc_fini_array+0xc>
  40749c:	e8bd 4038 	ldmia.w	sp!, {r3, r4, r5, lr}
  4074a0:	f002 bb96 	b.w	409bd0 <_fini>
  4074a4:	00409be0 	.word	0x00409be0
  4074a8:	00409bdc 	.word	0x00409bdc

004074ac <__fputwc>:
  4074ac:	e92d 47f0 	stmdb	sp!, {r4, r5, r6, r7, r8, r9, sl, lr}
  4074b0:	b082      	sub	sp, #8
  4074b2:	4680      	mov	r8, r0
  4074b4:	4689      	mov	r9, r1
  4074b6:	4614      	mov	r4, r2
  4074b8:	f000 fb3c 	bl	407b34 <__locale_mb_cur_max>
  4074bc:	2801      	cmp	r0, #1
  4074be:	d033      	beq.n	407528 <__fputwc+0x7c>
  4074c0:	f104 035c 	add.w	r3, r4, #92	; 0x5c
  4074c4:	464a      	mov	r2, r9
  4074c6:	a901      	add	r1, sp, #4
  4074c8:	4640      	mov	r0, r8
  4074ca:	f001 fa7d 	bl	4089c8 <_wcrtomb_r>
  4074ce:	f1b0 3fff 	cmp.w	r0, #4294967295
  4074d2:	4682      	mov	sl, r0
  4074d4:	d021      	beq.n	40751a <__fputwc+0x6e>
  4074d6:	b388      	cbz	r0, 40753c <__fputwc+0x90>
  4074d8:	f89d 6004 	ldrb.w	r6, [sp, #4]
  4074dc:	2500      	movs	r5, #0
  4074de:	e008      	b.n	4074f2 <__fputwc+0x46>
  4074e0:	6823      	ldr	r3, [r4, #0]
  4074e2:	1c5a      	adds	r2, r3, #1
  4074e4:	6022      	str	r2, [r4, #0]
  4074e6:	701e      	strb	r6, [r3, #0]
  4074e8:	3501      	adds	r5, #1
  4074ea:	4555      	cmp	r5, sl
  4074ec:	d226      	bcs.n	40753c <__fputwc+0x90>
  4074ee:	ab01      	add	r3, sp, #4
  4074f0:	5d5e      	ldrb	r6, [r3, r5]
  4074f2:	68a3      	ldr	r3, [r4, #8]
  4074f4:	3b01      	subs	r3, #1
  4074f6:	2b00      	cmp	r3, #0
  4074f8:	60a3      	str	r3, [r4, #8]
  4074fa:	daf1      	bge.n	4074e0 <__fputwc+0x34>
  4074fc:	69a7      	ldr	r7, [r4, #24]
  4074fe:	42bb      	cmp	r3, r7
  407500:	4631      	mov	r1, r6
  407502:	4622      	mov	r2, r4
  407504:	4640      	mov	r0, r8
  407506:	db01      	blt.n	40750c <__fputwc+0x60>
  407508:	2e0a      	cmp	r6, #10
  40750a:	d1e9      	bne.n	4074e0 <__fputwc+0x34>
  40750c:	f001 fa06 	bl	40891c <__swbuf_r>
  407510:	1c43      	adds	r3, r0, #1
  407512:	d1e9      	bne.n	4074e8 <__fputwc+0x3c>
  407514:	b002      	add	sp, #8
  407516:	e8bd 87f0 	ldmia.w	sp!, {r4, r5, r6, r7, r8, r9, sl, pc}
  40751a:	89a3      	ldrh	r3, [r4, #12]
  40751c:	f043 0340 	orr.w	r3, r3, #64	; 0x40
  407520:	81a3      	strh	r3, [r4, #12]
  407522:	b002      	add	sp, #8
  407524:	e8bd 87f0 	ldmia.w	sp!, {r4, r5, r6, r7, r8, r9, sl, pc}
  407528:	f109 33ff 	add.w	r3, r9, #4294967295
  40752c:	2bfe      	cmp	r3, #254	; 0xfe
  40752e:	d8c7      	bhi.n	4074c0 <__fputwc+0x14>
  407530:	fa5f f689 	uxtb.w	r6, r9
  407534:	4682      	mov	sl, r0
  407536:	f88d 6004 	strb.w	r6, [sp, #4]
  40753a:	e7cf      	b.n	4074dc <__fputwc+0x30>
  40753c:	4648      	mov	r0, r9
  40753e:	b002      	add	sp, #8
  407540:	e8bd 87f0 	ldmia.w	sp!, {r4, r5, r6, r7, r8, r9, sl, pc}

00407544 <_fputwc_r>:
  407544:	f9b2 300c 	ldrsh.w	r3, [r2, #12]
  407548:	f413 5f00 	tst.w	r3, #8192	; 0x2000
  40754c:	d10a      	bne.n	407564 <_fputwc_r+0x20>
  40754e:	b410      	push	{r4}
  407550:	6e54      	ldr	r4, [r2, #100]	; 0x64
  407552:	f443 5300 	orr.w	r3, r3, #8192	; 0x2000
  407556:	f444 5400 	orr.w	r4, r4, #8192	; 0x2000
  40755a:	6654      	str	r4, [r2, #100]	; 0x64
  40755c:	8193      	strh	r3, [r2, #12]
  40755e:	bc10      	pop	{r4}
  407560:	f7ff bfa4 	b.w	4074ac <__fputwc>
  407564:	f7ff bfa2 	b.w	4074ac <__fputwc>

00407568 <_malloc_trim_r>:
  407568:	b5f8      	push	{r3, r4, r5, r6, r7, lr}
  40756a:	4f23      	ldr	r7, [pc, #140]	; (4075f8 <_malloc_trim_r+0x90>)
  40756c:	460c      	mov	r4, r1
  40756e:	4606      	mov	r6, r0
  407570:	f7fc f942 	bl	4037f8 <__malloc_lock>
  407574:	68bb      	ldr	r3, [r7, #8]
  407576:	685d      	ldr	r5, [r3, #4]
  407578:	f025 0503 	bic.w	r5, r5, #3
  40757c:	1b29      	subs	r1, r5, r4
  40757e:	f601 71ef 	addw	r1, r1, #4079	; 0xfef
  407582:	f421 617f 	bic.w	r1, r1, #4080	; 0xff0
  407586:	f021 010f 	bic.w	r1, r1, #15
  40758a:	f5a1 5480 	sub.w	r4, r1, #4096	; 0x1000
  40758e:	f5b4 5f80 	cmp.w	r4, #4096	; 0x1000
  407592:	db07      	blt.n	4075a4 <_malloc_trim_r+0x3c>
  407594:	2100      	movs	r1, #0
  407596:	4630      	mov	r0, r6
  407598:	f7fc f96e 	bl	403878 <_sbrk_r>
  40759c:	68bb      	ldr	r3, [r7, #8]
  40759e:	442b      	add	r3, r5
  4075a0:	4298      	cmp	r0, r3
  4075a2:	d004      	beq.n	4075ae <_malloc_trim_r+0x46>
  4075a4:	4630      	mov	r0, r6
  4075a6:	f7fc f929 	bl	4037fc <__malloc_unlock>
  4075aa:	2000      	movs	r0, #0
  4075ac:	bdf8      	pop	{r3, r4, r5, r6, r7, pc}
  4075ae:	4261      	negs	r1, r4
  4075b0:	4630      	mov	r0, r6
  4075b2:	f7fc f961 	bl	403878 <_sbrk_r>
  4075b6:	3001      	adds	r0, #1
  4075b8:	d00d      	beq.n	4075d6 <_malloc_trim_r+0x6e>
  4075ba:	4b10      	ldr	r3, [pc, #64]	; (4075fc <_malloc_trim_r+0x94>)
  4075bc:	68ba      	ldr	r2, [r7, #8]
  4075be:	6819      	ldr	r1, [r3, #0]
  4075c0:	1b2d      	subs	r5, r5, r4
  4075c2:	f045 0501 	orr.w	r5, r5, #1
  4075c6:	4630      	mov	r0, r6
  4075c8:	1b09      	subs	r1, r1, r4
  4075ca:	6055      	str	r5, [r2, #4]
  4075cc:	6019      	str	r1, [r3, #0]
  4075ce:	f7fc f915 	bl	4037fc <__malloc_unlock>
  4075d2:	2001      	movs	r0, #1
  4075d4:	bdf8      	pop	{r3, r4, r5, r6, r7, pc}
  4075d6:	2100      	movs	r1, #0
  4075d8:	4630      	mov	r0, r6
  4075da:	f7fc f94d 	bl	403878 <_sbrk_r>
  4075de:	68ba      	ldr	r2, [r7, #8]
  4075e0:	1a83      	subs	r3, r0, r2
  4075e2:	2b0f      	cmp	r3, #15
  4075e4:	ddde      	ble.n	4075a4 <_malloc_trim_r+0x3c>
  4075e6:	4c06      	ldr	r4, [pc, #24]	; (407600 <_malloc_trim_r+0x98>)
  4075e8:	4904      	ldr	r1, [pc, #16]	; (4075fc <_malloc_trim_r+0x94>)
  4075ea:	6824      	ldr	r4, [r4, #0]
  4075ec:	f043 0301 	orr.w	r3, r3, #1
  4075f0:	1b00      	subs	r0, r0, r4
  4075f2:	6053      	str	r3, [r2, #4]
  4075f4:	6008      	str	r0, [r1, #0]
  4075f6:	e7d5      	b.n	4075a4 <_malloc_trim_r+0x3c>
  4075f8:	2040043c 	.word	0x2040043c
  4075fc:	20400ba0 	.word	0x20400ba0
  407600:	20400848 	.word	0x20400848

00407604 <_free_r>:
  407604:	2900      	cmp	r1, #0
  407606:	d045      	beq.n	407694 <_free_r+0x90>
  407608:	e92d 41f0 	stmdb	sp!, {r4, r5, r6, r7, r8, lr}
  40760c:	460d      	mov	r5, r1
  40760e:	4680      	mov	r8, r0
  407610:	f7fc f8f2 	bl	4037f8 <__malloc_lock>
  407614:	f855 7c04 	ldr.w	r7, [r5, #-4]
  407618:	496a      	ldr	r1, [pc, #424]	; (4077c4 <_free_r+0x1c0>)
  40761a:	f027 0301 	bic.w	r3, r7, #1
  40761e:	f1a5 0408 	sub.w	r4, r5, #8
  407622:	18e2      	adds	r2, r4, r3
  407624:	688e      	ldr	r6, [r1, #8]
  407626:	6850      	ldr	r0, [r2, #4]
  407628:	42b2      	cmp	r2, r6
  40762a:	f020 0003 	bic.w	r0, r0, #3
  40762e:	d062      	beq.n	4076f6 <_free_r+0xf2>
  407630:	07fe      	lsls	r6, r7, #31
  407632:	6050      	str	r0, [r2, #4]
  407634:	d40b      	bmi.n	40764e <_free_r+0x4a>
  407636:	f855 7c08 	ldr.w	r7, [r5, #-8]
  40763a:	1be4      	subs	r4, r4, r7
  40763c:	f101 0e08 	add.w	lr, r1, #8
  407640:	68a5      	ldr	r5, [r4, #8]
  407642:	4575      	cmp	r5, lr
  407644:	443b      	add	r3, r7
  407646:	d06f      	beq.n	407728 <_free_r+0x124>
  407648:	68e7      	ldr	r7, [r4, #12]
  40764a:	60ef      	str	r7, [r5, #12]
  40764c:	60bd      	str	r5, [r7, #8]
  40764e:	1815      	adds	r5, r2, r0
  407650:	686d      	ldr	r5, [r5, #4]
  407652:	07ed      	lsls	r5, r5, #31
  407654:	d542      	bpl.n	4076dc <_free_r+0xd8>
  407656:	f043 0201 	orr.w	r2, r3, #1
  40765a:	6062      	str	r2, [r4, #4]
  40765c:	50e3      	str	r3, [r4, r3]
  40765e:	f5b3 7f00 	cmp.w	r3, #512	; 0x200
  407662:	d218      	bcs.n	407696 <_free_r+0x92>
  407664:	08db      	lsrs	r3, r3, #3
  407666:	1c5a      	adds	r2, r3, #1
  407668:	684d      	ldr	r5, [r1, #4]
  40766a:	f851 7032 	ldr.w	r7, [r1, r2, lsl #3]
  40766e:	60a7      	str	r7, [r4, #8]
  407670:	2001      	movs	r0, #1
  407672:	109b      	asrs	r3, r3, #2
  407674:	fa00 f303 	lsl.w	r3, r0, r3
  407678:	eb01 00c2 	add.w	r0, r1, r2, lsl #3
  40767c:	431d      	orrs	r5, r3
  40767e:	3808      	subs	r0, #8
  407680:	60e0      	str	r0, [r4, #12]
  407682:	604d      	str	r5, [r1, #4]
  407684:	f841 4032 	str.w	r4, [r1, r2, lsl #3]
  407688:	60fc      	str	r4, [r7, #12]
  40768a:	4640      	mov	r0, r8
  40768c:	e8bd 41f0 	ldmia.w	sp!, {r4, r5, r6, r7, r8, lr}
  407690:	f7fc b8b4 	b.w	4037fc <__malloc_unlock>
  407694:	4770      	bx	lr
  407696:	0a5a      	lsrs	r2, r3, #9
  407698:	2a04      	cmp	r2, #4
  40769a:	d853      	bhi.n	407744 <_free_r+0x140>
  40769c:	099a      	lsrs	r2, r3, #6
  40769e:	f102 0739 	add.w	r7, r2, #57	; 0x39
  4076a2:	007f      	lsls	r7, r7, #1
  4076a4:	f102 0538 	add.w	r5, r2, #56	; 0x38
  4076a8:	eb01 0087 	add.w	r0, r1, r7, lsl #2
  4076ac:	f851 2027 	ldr.w	r2, [r1, r7, lsl #2]
  4076b0:	4944      	ldr	r1, [pc, #272]	; (4077c4 <_free_r+0x1c0>)
  4076b2:	3808      	subs	r0, #8
  4076b4:	4290      	cmp	r0, r2
  4076b6:	d04d      	beq.n	407754 <_free_r+0x150>
  4076b8:	6851      	ldr	r1, [r2, #4]
  4076ba:	f021 0103 	bic.w	r1, r1, #3
  4076be:	428b      	cmp	r3, r1
  4076c0:	d202      	bcs.n	4076c8 <_free_r+0xc4>
  4076c2:	6892      	ldr	r2, [r2, #8]
  4076c4:	4290      	cmp	r0, r2
  4076c6:	d1f7      	bne.n	4076b8 <_free_r+0xb4>
  4076c8:	68d0      	ldr	r0, [r2, #12]
  4076ca:	60e0      	str	r0, [r4, #12]
  4076cc:	60a2      	str	r2, [r4, #8]
  4076ce:	6084      	str	r4, [r0, #8]
  4076d0:	60d4      	str	r4, [r2, #12]
  4076d2:	4640      	mov	r0, r8
  4076d4:	e8bd 41f0 	ldmia.w	sp!, {r4, r5, r6, r7, r8, lr}
  4076d8:	f7fc b890 	b.w	4037fc <__malloc_unlock>
  4076dc:	6895      	ldr	r5, [r2, #8]
  4076de:	4f3a      	ldr	r7, [pc, #232]	; (4077c8 <_free_r+0x1c4>)
  4076e0:	42bd      	cmp	r5, r7
  4076e2:	4403      	add	r3, r0
  4076e4:	d03f      	beq.n	407766 <_free_r+0x162>
  4076e6:	68d0      	ldr	r0, [r2, #12]
  4076e8:	60e8      	str	r0, [r5, #12]
  4076ea:	f043 0201 	orr.w	r2, r3, #1
  4076ee:	6085      	str	r5, [r0, #8]
  4076f0:	6062      	str	r2, [r4, #4]
  4076f2:	50e3      	str	r3, [r4, r3]
  4076f4:	e7b3      	b.n	40765e <_free_r+0x5a>
  4076f6:	07ff      	lsls	r7, r7, #31
  4076f8:	4403      	add	r3, r0
  4076fa:	d407      	bmi.n	40770c <_free_r+0x108>
  4076fc:	f855 2c08 	ldr.w	r2, [r5, #-8]
  407700:	1aa4      	subs	r4, r4, r2
  407702:	4413      	add	r3, r2
  407704:	68a0      	ldr	r0, [r4, #8]
  407706:	68e2      	ldr	r2, [r4, #12]
  407708:	60c2      	str	r2, [r0, #12]
  40770a:	6090      	str	r0, [r2, #8]
  40770c:	4a2f      	ldr	r2, [pc, #188]	; (4077cc <_free_r+0x1c8>)
  40770e:	6812      	ldr	r2, [r2, #0]
  407710:	f043 0001 	orr.w	r0, r3, #1
  407714:	4293      	cmp	r3, r2
  407716:	6060      	str	r0, [r4, #4]
  407718:	608c      	str	r4, [r1, #8]
  40771a:	d3b6      	bcc.n	40768a <_free_r+0x86>
  40771c:	4b2c      	ldr	r3, [pc, #176]	; (4077d0 <_free_r+0x1cc>)
  40771e:	4640      	mov	r0, r8
  407720:	6819      	ldr	r1, [r3, #0]
  407722:	f7ff ff21 	bl	407568 <_malloc_trim_r>
  407726:	e7b0      	b.n	40768a <_free_r+0x86>
  407728:	1811      	adds	r1, r2, r0
  40772a:	6849      	ldr	r1, [r1, #4]
  40772c:	07c9      	lsls	r1, r1, #31
  40772e:	d444      	bmi.n	4077ba <_free_r+0x1b6>
  407730:	6891      	ldr	r1, [r2, #8]
  407732:	68d2      	ldr	r2, [r2, #12]
  407734:	60ca      	str	r2, [r1, #12]
  407736:	4403      	add	r3, r0
  407738:	f043 0001 	orr.w	r0, r3, #1
  40773c:	6091      	str	r1, [r2, #8]
  40773e:	6060      	str	r0, [r4, #4]
  407740:	50e3      	str	r3, [r4, r3]
  407742:	e7a2      	b.n	40768a <_free_r+0x86>
  407744:	2a14      	cmp	r2, #20
  407746:	d817      	bhi.n	407778 <_free_r+0x174>
  407748:	f102 075c 	add.w	r7, r2, #92	; 0x5c
  40774c:	007f      	lsls	r7, r7, #1
  40774e:	f102 055b 	add.w	r5, r2, #91	; 0x5b
  407752:	e7a9      	b.n	4076a8 <_free_r+0xa4>
  407754:	10aa      	asrs	r2, r5, #2
  407756:	684b      	ldr	r3, [r1, #4]
  407758:	2501      	movs	r5, #1
  40775a:	fa05 f202 	lsl.w	r2, r5, r2
  40775e:	4313      	orrs	r3, r2
  407760:	604b      	str	r3, [r1, #4]
  407762:	4602      	mov	r2, r0
  407764:	e7b1      	b.n	4076ca <_free_r+0xc6>
  407766:	f043 0201 	orr.w	r2, r3, #1
  40776a:	614c      	str	r4, [r1, #20]
  40776c:	610c      	str	r4, [r1, #16]
  40776e:	60e5      	str	r5, [r4, #12]
  407770:	60a5      	str	r5, [r4, #8]
  407772:	6062      	str	r2, [r4, #4]
  407774:	50e3      	str	r3, [r4, r3]
  407776:	e788      	b.n	40768a <_free_r+0x86>
  407778:	2a54      	cmp	r2, #84	; 0x54
  40777a:	d806      	bhi.n	40778a <_free_r+0x186>
  40777c:	0b1a      	lsrs	r2, r3, #12
  40777e:	f102 076f 	add.w	r7, r2, #111	; 0x6f
  407782:	007f      	lsls	r7, r7, #1
  407784:	f102 056e 	add.w	r5, r2, #110	; 0x6e
  407788:	e78e      	b.n	4076a8 <_free_r+0xa4>
  40778a:	f5b2 7faa 	cmp.w	r2, #340	; 0x154
  40778e:	d806      	bhi.n	40779e <_free_r+0x19a>
  407790:	0bda      	lsrs	r2, r3, #15
  407792:	f102 0778 	add.w	r7, r2, #120	; 0x78
  407796:	007f      	lsls	r7, r7, #1
  407798:	f102 0577 	add.w	r5, r2, #119	; 0x77
  40779c:	e784      	b.n	4076a8 <_free_r+0xa4>
  40779e:	f240 5054 	movw	r0, #1364	; 0x554
  4077a2:	4282      	cmp	r2, r0
  4077a4:	d806      	bhi.n	4077b4 <_free_r+0x1b0>
  4077a6:	0c9a      	lsrs	r2, r3, #18
  4077a8:	f102 077d 	add.w	r7, r2, #125	; 0x7d
  4077ac:	007f      	lsls	r7, r7, #1
  4077ae:	f102 057c 	add.w	r5, r2, #124	; 0x7c
  4077b2:	e779      	b.n	4076a8 <_free_r+0xa4>
  4077b4:	27fe      	movs	r7, #254	; 0xfe
  4077b6:	257e      	movs	r5, #126	; 0x7e
  4077b8:	e776      	b.n	4076a8 <_free_r+0xa4>
  4077ba:	f043 0201 	orr.w	r2, r3, #1
  4077be:	6062      	str	r2, [r4, #4]
  4077c0:	50e3      	str	r3, [r4, r3]
  4077c2:	e762      	b.n	40768a <_free_r+0x86>
  4077c4:	2040043c 	.word	0x2040043c
  4077c8:	20400444 	.word	0x20400444
  4077cc:	20400844 	.word	0x20400844
  4077d0:	20400b9c 	.word	0x20400b9c

004077d4 <__sfvwrite_r>:
  4077d4:	6893      	ldr	r3, [r2, #8]
  4077d6:	2b00      	cmp	r3, #0
  4077d8:	d076      	beq.n	4078c8 <__sfvwrite_r+0xf4>
  4077da:	e92d 4ff0 	stmdb	sp!, {r4, r5, r6, r7, r8, r9, sl, fp, lr}
  4077de:	898b      	ldrh	r3, [r1, #12]
  4077e0:	b085      	sub	sp, #20
  4077e2:	460c      	mov	r4, r1
  4077e4:	0719      	lsls	r1, r3, #28
  4077e6:	9001      	str	r0, [sp, #4]
  4077e8:	4616      	mov	r6, r2
  4077ea:	d529      	bpl.n	407840 <__sfvwrite_r+0x6c>
  4077ec:	6922      	ldr	r2, [r4, #16]
  4077ee:	b33a      	cbz	r2, 407840 <__sfvwrite_r+0x6c>
  4077f0:	f003 0802 	and.w	r8, r3, #2
  4077f4:	fa1f f088 	uxth.w	r0, r8
  4077f8:	6835      	ldr	r5, [r6, #0]
  4077fa:	2800      	cmp	r0, #0
  4077fc:	d02f      	beq.n	40785e <__sfvwrite_r+0x8a>
  4077fe:	f04f 0900 	mov.w	r9, #0
  407802:	4fb4      	ldr	r7, [pc, #720]	; (407ad4 <__sfvwrite_r+0x300>)
  407804:	46c8      	mov	r8, r9
  407806:	46b2      	mov	sl, r6
  407808:	45b8      	cmp	r8, r7
  40780a:	4643      	mov	r3, r8
  40780c:	464a      	mov	r2, r9
  40780e:	bf28      	it	cs
  407810:	463b      	movcs	r3, r7
  407812:	9801      	ldr	r0, [sp, #4]
  407814:	f1b8 0f00 	cmp.w	r8, #0
  407818:	d050      	beq.n	4078bc <__sfvwrite_r+0xe8>
  40781a:	69e1      	ldr	r1, [r4, #28]
  40781c:	6a66      	ldr	r6, [r4, #36]	; 0x24
  40781e:	47b0      	blx	r6
  407820:	2800      	cmp	r0, #0
  407822:	dd71      	ble.n	407908 <__sfvwrite_r+0x134>
  407824:	f8da 3008 	ldr.w	r3, [sl, #8]
  407828:	1a1b      	subs	r3, r3, r0
  40782a:	4481      	add	r9, r0
  40782c:	ebc0 0808 	rsb	r8, r0, r8
  407830:	f8ca 3008 	str.w	r3, [sl, #8]
  407834:	2b00      	cmp	r3, #0
  407836:	d1e7      	bne.n	407808 <__sfvwrite_r+0x34>
  407838:	2000      	movs	r0, #0
  40783a:	b005      	add	sp, #20
  40783c:	e8bd 8ff0 	ldmia.w	sp!, {r4, r5, r6, r7, r8, r9, sl, fp, pc}
  407840:	4621      	mov	r1, r4
  407842:	9801      	ldr	r0, [sp, #4]
  407844:	f7fe fca8 	bl	406198 <__swsetup_r>
  407848:	2800      	cmp	r0, #0
  40784a:	f040 813a 	bne.w	407ac2 <__sfvwrite_r+0x2ee>
  40784e:	89a3      	ldrh	r3, [r4, #12]
  407850:	6835      	ldr	r5, [r6, #0]
  407852:	f003 0802 	and.w	r8, r3, #2
  407856:	fa1f f088 	uxth.w	r0, r8
  40785a:	2800      	cmp	r0, #0
  40785c:	d1cf      	bne.n	4077fe <__sfvwrite_r+0x2a>
  40785e:	f013 0901 	ands.w	r9, r3, #1
  407862:	d15b      	bne.n	40791c <__sfvwrite_r+0x148>
  407864:	464f      	mov	r7, r9
  407866:	9602      	str	r6, [sp, #8]
  407868:	b31f      	cbz	r7, 4078b2 <__sfvwrite_r+0xde>
  40786a:	059a      	lsls	r2, r3, #22
  40786c:	f8d4 8008 	ldr.w	r8, [r4, #8]
  407870:	d52c      	bpl.n	4078cc <__sfvwrite_r+0xf8>
  407872:	4547      	cmp	r7, r8
  407874:	46c2      	mov	sl, r8
  407876:	f0c0 80a4 	bcc.w	4079c2 <__sfvwrite_r+0x1ee>
  40787a:	f413 6f90 	tst.w	r3, #1152	; 0x480
  40787e:	f040 80b1 	bne.w	4079e4 <__sfvwrite_r+0x210>
  407882:	6820      	ldr	r0, [r4, #0]
  407884:	4652      	mov	r2, sl
  407886:	4649      	mov	r1, r9
  407888:	f000 fa22 	bl	407cd0 <memmove>
  40788c:	68a0      	ldr	r0, [r4, #8]
  40788e:	6823      	ldr	r3, [r4, #0]
  407890:	ebc8 0000 	rsb	r0, r8, r0
  407894:	4453      	add	r3, sl
  407896:	60a0      	str	r0, [r4, #8]
  407898:	6023      	str	r3, [r4, #0]
  40789a:	4638      	mov	r0, r7
  40789c:	9a02      	ldr	r2, [sp, #8]
  40789e:	6893      	ldr	r3, [r2, #8]
  4078a0:	1a1b      	subs	r3, r3, r0
  4078a2:	4481      	add	r9, r0
  4078a4:	1a3f      	subs	r7, r7, r0
  4078a6:	6093      	str	r3, [r2, #8]
  4078a8:	2b00      	cmp	r3, #0
  4078aa:	d0c5      	beq.n	407838 <__sfvwrite_r+0x64>
  4078ac:	89a3      	ldrh	r3, [r4, #12]
  4078ae:	2f00      	cmp	r7, #0
  4078b0:	d1db      	bne.n	40786a <__sfvwrite_r+0x96>
  4078b2:	f8d5 9000 	ldr.w	r9, [r5]
  4078b6:	686f      	ldr	r7, [r5, #4]
  4078b8:	3508      	adds	r5, #8
  4078ba:	e7d5      	b.n	407868 <__sfvwrite_r+0x94>
  4078bc:	f8d5 9000 	ldr.w	r9, [r5]
  4078c0:	f8d5 8004 	ldr.w	r8, [r5, #4]
  4078c4:	3508      	adds	r5, #8
  4078c6:	e79f      	b.n	407808 <__sfvwrite_r+0x34>
  4078c8:	2000      	movs	r0, #0
  4078ca:	4770      	bx	lr
  4078cc:	6820      	ldr	r0, [r4, #0]
  4078ce:	6923      	ldr	r3, [r4, #16]
  4078d0:	4298      	cmp	r0, r3
  4078d2:	d803      	bhi.n	4078dc <__sfvwrite_r+0x108>
  4078d4:	6961      	ldr	r1, [r4, #20]
  4078d6:	428f      	cmp	r7, r1
  4078d8:	f080 80b7 	bcs.w	407a4a <__sfvwrite_r+0x276>
  4078dc:	45b8      	cmp	r8, r7
  4078de:	bf28      	it	cs
  4078e0:	46b8      	movcs	r8, r7
  4078e2:	4642      	mov	r2, r8
  4078e4:	4649      	mov	r1, r9
  4078e6:	f000 f9f3 	bl	407cd0 <memmove>
  4078ea:	68a3      	ldr	r3, [r4, #8]
  4078ec:	6822      	ldr	r2, [r4, #0]
  4078ee:	ebc8 0303 	rsb	r3, r8, r3
  4078f2:	4442      	add	r2, r8
  4078f4:	60a3      	str	r3, [r4, #8]
  4078f6:	6022      	str	r2, [r4, #0]
  4078f8:	2b00      	cmp	r3, #0
  4078fa:	d149      	bne.n	407990 <__sfvwrite_r+0x1bc>
  4078fc:	4621      	mov	r1, r4
  4078fe:	9801      	ldr	r0, [sp, #4]
  407900:	f7ff fd22 	bl	407348 <_fflush_r>
  407904:	2800      	cmp	r0, #0
  407906:	d043      	beq.n	407990 <__sfvwrite_r+0x1bc>
  407908:	f9b4 300c 	ldrsh.w	r3, [r4, #12]
  40790c:	f043 0340 	orr.w	r3, r3, #64	; 0x40
  407910:	f04f 30ff 	mov.w	r0, #4294967295
  407914:	81a3      	strh	r3, [r4, #12]
  407916:	b005      	add	sp, #20
  407918:	e8bd 8ff0 	ldmia.w	sp!, {r4, r5, r6, r7, r8, r9, sl, fp, pc}
  40791c:	4680      	mov	r8, r0
  40791e:	9002      	str	r0, [sp, #8]
  407920:	4682      	mov	sl, r0
  407922:	4681      	mov	r9, r0
  407924:	f1b9 0f00 	cmp.w	r9, #0
  407928:	d02a      	beq.n	407980 <__sfvwrite_r+0x1ac>
  40792a:	9b02      	ldr	r3, [sp, #8]
  40792c:	2b00      	cmp	r3, #0
  40792e:	d04c      	beq.n	4079ca <__sfvwrite_r+0x1f6>
  407930:	6820      	ldr	r0, [r4, #0]
  407932:	6923      	ldr	r3, [r4, #16]
  407934:	6962      	ldr	r2, [r4, #20]
  407936:	45c8      	cmp	r8, r9
  407938:	46c3      	mov	fp, r8
  40793a:	bf28      	it	cs
  40793c:	46cb      	movcs	fp, r9
  40793e:	4298      	cmp	r0, r3
  407940:	465f      	mov	r7, fp
  407942:	d904      	bls.n	40794e <__sfvwrite_r+0x17a>
  407944:	68a3      	ldr	r3, [r4, #8]
  407946:	4413      	add	r3, r2
  407948:	459b      	cmp	fp, r3
  40794a:	f300 8090 	bgt.w	407a6e <__sfvwrite_r+0x29a>
  40794e:	4593      	cmp	fp, r2
  407950:	db20      	blt.n	407994 <__sfvwrite_r+0x1c0>
  407952:	4613      	mov	r3, r2
  407954:	6a67      	ldr	r7, [r4, #36]	; 0x24
  407956:	69e1      	ldr	r1, [r4, #28]
  407958:	9801      	ldr	r0, [sp, #4]
  40795a:	4652      	mov	r2, sl
  40795c:	47b8      	blx	r7
  40795e:	1e07      	subs	r7, r0, #0
  407960:	ddd2      	ble.n	407908 <__sfvwrite_r+0x134>
  407962:	ebb8 0807 	subs.w	r8, r8, r7
  407966:	d023      	beq.n	4079b0 <__sfvwrite_r+0x1dc>
  407968:	68b3      	ldr	r3, [r6, #8]
  40796a:	1bdb      	subs	r3, r3, r7
  40796c:	44ba      	add	sl, r7
  40796e:	ebc7 0909 	rsb	r9, r7, r9
  407972:	60b3      	str	r3, [r6, #8]
  407974:	2b00      	cmp	r3, #0
  407976:	f43f af5f 	beq.w	407838 <__sfvwrite_r+0x64>
  40797a:	f1b9 0f00 	cmp.w	r9, #0
  40797e:	d1d4      	bne.n	40792a <__sfvwrite_r+0x156>
  407980:	2300      	movs	r3, #0
  407982:	f8d5 a000 	ldr.w	sl, [r5]
  407986:	f8d5 9004 	ldr.w	r9, [r5, #4]
  40798a:	9302      	str	r3, [sp, #8]
  40798c:	3508      	adds	r5, #8
  40798e:	e7c9      	b.n	407924 <__sfvwrite_r+0x150>
  407990:	4640      	mov	r0, r8
  407992:	e783      	b.n	40789c <__sfvwrite_r+0xc8>
  407994:	465a      	mov	r2, fp
  407996:	4651      	mov	r1, sl
  407998:	f000 f99a 	bl	407cd0 <memmove>
  40799c:	68a2      	ldr	r2, [r4, #8]
  40799e:	6823      	ldr	r3, [r4, #0]
  4079a0:	ebcb 0202 	rsb	r2, fp, r2
  4079a4:	445b      	add	r3, fp
  4079a6:	ebb8 0807 	subs.w	r8, r8, r7
  4079aa:	60a2      	str	r2, [r4, #8]
  4079ac:	6023      	str	r3, [r4, #0]
  4079ae:	d1db      	bne.n	407968 <__sfvwrite_r+0x194>
  4079b0:	4621      	mov	r1, r4
  4079b2:	9801      	ldr	r0, [sp, #4]
  4079b4:	f7ff fcc8 	bl	407348 <_fflush_r>
  4079b8:	2800      	cmp	r0, #0
  4079ba:	d1a5      	bne.n	407908 <__sfvwrite_r+0x134>
  4079bc:	f8cd 8008 	str.w	r8, [sp, #8]
  4079c0:	e7d2      	b.n	407968 <__sfvwrite_r+0x194>
  4079c2:	6820      	ldr	r0, [r4, #0]
  4079c4:	46b8      	mov	r8, r7
  4079c6:	46ba      	mov	sl, r7
  4079c8:	e75c      	b.n	407884 <__sfvwrite_r+0xb0>
  4079ca:	464a      	mov	r2, r9
  4079cc:	210a      	movs	r1, #10
  4079ce:	4650      	mov	r0, sl
  4079d0:	f000 f92e 	bl	407c30 <memchr>
  4079d4:	2800      	cmp	r0, #0
  4079d6:	d06f      	beq.n	407ab8 <__sfvwrite_r+0x2e4>
  4079d8:	3001      	adds	r0, #1
  4079da:	2301      	movs	r3, #1
  4079dc:	ebca 0800 	rsb	r8, sl, r0
  4079e0:	9302      	str	r3, [sp, #8]
  4079e2:	e7a5      	b.n	407930 <__sfvwrite_r+0x15c>
  4079e4:	6962      	ldr	r2, [r4, #20]
  4079e6:	6820      	ldr	r0, [r4, #0]
  4079e8:	6921      	ldr	r1, [r4, #16]
  4079ea:	eb02 0842 	add.w	r8, r2, r2, lsl #1
  4079ee:	ebc1 0a00 	rsb	sl, r1, r0
  4079f2:	eb08 78d8 	add.w	r8, r8, r8, lsr #31
  4079f6:	f10a 0001 	add.w	r0, sl, #1
  4079fa:	ea4f 0868 	mov.w	r8, r8, asr #1
  4079fe:	4438      	add	r0, r7
  407a00:	4540      	cmp	r0, r8
  407a02:	4642      	mov	r2, r8
  407a04:	bf84      	itt	hi
  407a06:	4680      	movhi	r8, r0
  407a08:	4642      	movhi	r2, r8
  407a0a:	055b      	lsls	r3, r3, #21
  407a0c:	d542      	bpl.n	407a94 <__sfvwrite_r+0x2c0>
  407a0e:	4611      	mov	r1, r2
  407a10:	9801      	ldr	r0, [sp, #4]
  407a12:	f7fb fb51 	bl	4030b8 <_malloc_r>
  407a16:	4683      	mov	fp, r0
  407a18:	2800      	cmp	r0, #0
  407a1a:	d055      	beq.n	407ac8 <__sfvwrite_r+0x2f4>
  407a1c:	4652      	mov	r2, sl
  407a1e:	6921      	ldr	r1, [r4, #16]
  407a20:	f7fb fe02 	bl	403628 <memcpy>
  407a24:	89a3      	ldrh	r3, [r4, #12]
  407a26:	f423 6390 	bic.w	r3, r3, #1152	; 0x480
  407a2a:	f043 0380 	orr.w	r3, r3, #128	; 0x80
  407a2e:	81a3      	strh	r3, [r4, #12]
  407a30:	ebca 0308 	rsb	r3, sl, r8
  407a34:	eb0b 000a 	add.w	r0, fp, sl
  407a38:	f8c4 8014 	str.w	r8, [r4, #20]
  407a3c:	f8c4 b010 	str.w	fp, [r4, #16]
  407a40:	6020      	str	r0, [r4, #0]
  407a42:	60a3      	str	r3, [r4, #8]
  407a44:	46b8      	mov	r8, r7
  407a46:	46ba      	mov	sl, r7
  407a48:	e71c      	b.n	407884 <__sfvwrite_r+0xb0>
  407a4a:	f06f 4300 	mvn.w	r3, #2147483648	; 0x80000000
  407a4e:	42bb      	cmp	r3, r7
  407a50:	bf28      	it	cs
  407a52:	463b      	movcs	r3, r7
  407a54:	464a      	mov	r2, r9
  407a56:	fb93 f3f1 	sdiv	r3, r3, r1
  407a5a:	9801      	ldr	r0, [sp, #4]
  407a5c:	6a66      	ldr	r6, [r4, #36]	; 0x24
  407a5e:	fb01 f303 	mul.w	r3, r1, r3
  407a62:	69e1      	ldr	r1, [r4, #28]
  407a64:	47b0      	blx	r6
  407a66:	2800      	cmp	r0, #0
  407a68:	f73f af18 	bgt.w	40789c <__sfvwrite_r+0xc8>
  407a6c:	e74c      	b.n	407908 <__sfvwrite_r+0x134>
  407a6e:	461a      	mov	r2, r3
  407a70:	4651      	mov	r1, sl
  407a72:	9303      	str	r3, [sp, #12]
  407a74:	f000 f92c 	bl	407cd0 <memmove>
  407a78:	6822      	ldr	r2, [r4, #0]
  407a7a:	9b03      	ldr	r3, [sp, #12]
  407a7c:	9801      	ldr	r0, [sp, #4]
  407a7e:	441a      	add	r2, r3
  407a80:	6022      	str	r2, [r4, #0]
  407a82:	4621      	mov	r1, r4
  407a84:	f7ff fc60 	bl	407348 <_fflush_r>
  407a88:	9b03      	ldr	r3, [sp, #12]
  407a8a:	2800      	cmp	r0, #0
  407a8c:	f47f af3c 	bne.w	407908 <__sfvwrite_r+0x134>
  407a90:	461f      	mov	r7, r3
  407a92:	e766      	b.n	407962 <__sfvwrite_r+0x18e>
  407a94:	9801      	ldr	r0, [sp, #4]
  407a96:	f000 fc8d 	bl	4083b4 <_realloc_r>
  407a9a:	4683      	mov	fp, r0
  407a9c:	2800      	cmp	r0, #0
  407a9e:	d1c7      	bne.n	407a30 <__sfvwrite_r+0x25c>
  407aa0:	9d01      	ldr	r5, [sp, #4]
  407aa2:	6921      	ldr	r1, [r4, #16]
  407aa4:	4628      	mov	r0, r5
  407aa6:	f7ff fdad 	bl	407604 <_free_r>
  407aaa:	f9b4 300c 	ldrsh.w	r3, [r4, #12]
  407aae:	220c      	movs	r2, #12
  407ab0:	f023 0380 	bic.w	r3, r3, #128	; 0x80
  407ab4:	602a      	str	r2, [r5, #0]
  407ab6:	e729      	b.n	40790c <__sfvwrite_r+0x138>
  407ab8:	2301      	movs	r3, #1
  407aba:	f109 0801 	add.w	r8, r9, #1
  407abe:	9302      	str	r3, [sp, #8]
  407ac0:	e736      	b.n	407930 <__sfvwrite_r+0x15c>
  407ac2:	f04f 30ff 	mov.w	r0, #4294967295
  407ac6:	e6b8      	b.n	40783a <__sfvwrite_r+0x66>
  407ac8:	9a01      	ldr	r2, [sp, #4]
  407aca:	230c      	movs	r3, #12
  407acc:	6013      	str	r3, [r2, #0]
  407ace:	f9b4 300c 	ldrsh.w	r3, [r4, #12]
  407ad2:	e71b      	b.n	40790c <__sfvwrite_r+0x138>
  407ad4:	7ffffc00 	.word	0x7ffffc00

00407ad8 <_fwalk_reent>:
  407ad8:	e92d 43f8 	stmdb	sp!, {r3, r4, r5, r6, r7, r8, r9, lr}
  407adc:	f510 7738 	adds.w	r7, r0, #736	; 0x2e0
  407ae0:	d01f      	beq.n	407b22 <_fwalk_reent+0x4a>
  407ae2:	4688      	mov	r8, r1
  407ae4:	4606      	mov	r6, r0
  407ae6:	f04f 0900 	mov.w	r9, #0
  407aea:	687d      	ldr	r5, [r7, #4]
  407aec:	68bc      	ldr	r4, [r7, #8]
  407aee:	3d01      	subs	r5, #1
  407af0:	d411      	bmi.n	407b16 <_fwalk_reent+0x3e>
  407af2:	89a3      	ldrh	r3, [r4, #12]
  407af4:	2b01      	cmp	r3, #1
  407af6:	f105 35ff 	add.w	r5, r5, #4294967295
  407afa:	d908      	bls.n	407b0e <_fwalk_reent+0x36>
  407afc:	f9b4 300e 	ldrsh.w	r3, [r4, #14]
  407b00:	3301      	adds	r3, #1
  407b02:	4621      	mov	r1, r4
  407b04:	4630      	mov	r0, r6
  407b06:	d002      	beq.n	407b0e <_fwalk_reent+0x36>
  407b08:	47c0      	blx	r8
  407b0a:	ea49 0900 	orr.w	r9, r9, r0
  407b0e:	1c6b      	adds	r3, r5, #1
  407b10:	f104 0468 	add.w	r4, r4, #104	; 0x68
  407b14:	d1ed      	bne.n	407af2 <_fwalk_reent+0x1a>
  407b16:	683f      	ldr	r7, [r7, #0]
  407b18:	2f00      	cmp	r7, #0
  407b1a:	d1e6      	bne.n	407aea <_fwalk_reent+0x12>
  407b1c:	4648      	mov	r0, r9
  407b1e:	e8bd 83f8 	ldmia.w	sp!, {r3, r4, r5, r6, r7, r8, r9, pc}
  407b22:	46b9      	mov	r9, r7
  407b24:	4648      	mov	r0, r9
  407b26:	e8bd 83f8 	ldmia.w	sp!, {r3, r4, r5, r6, r7, r8, r9, pc}
  407b2a:	bf00      	nop

00407b2c <__locale_charset>:
  407b2c:	4800      	ldr	r0, [pc, #0]	; (407b30 <__locale_charset+0x4>)
  407b2e:	4770      	bx	lr
  407b30:	20400884 	.word	0x20400884

00407b34 <__locale_mb_cur_max>:
  407b34:	4b01      	ldr	r3, [pc, #4]	; (407b3c <__locale_mb_cur_max+0x8>)
  407b36:	6818      	ldr	r0, [r3, #0]
  407b38:	4770      	bx	lr
  407b3a:	bf00      	nop
  407b3c:	204008a4 	.word	0x204008a4

00407b40 <_localeconv_r>:
  407b40:	4800      	ldr	r0, [pc, #0]	; (407b44 <_localeconv_r+0x4>)
  407b42:	4770      	bx	lr
  407b44:	2040084c 	.word	0x2040084c

00407b48 <__swhatbuf_r>:
  407b48:	b570      	push	{r4, r5, r6, lr}
  407b4a:	460d      	mov	r5, r1
  407b4c:	f9b1 100e 	ldrsh.w	r1, [r1, #14]
  407b50:	2900      	cmp	r1, #0
  407b52:	b090      	sub	sp, #64	; 0x40
  407b54:	4614      	mov	r4, r2
  407b56:	461e      	mov	r6, r3
  407b58:	db14      	blt.n	407b84 <__swhatbuf_r+0x3c>
  407b5a:	aa01      	add	r2, sp, #4
  407b5c:	f001 f858 	bl	408c10 <_fstat_r>
  407b60:	2800      	cmp	r0, #0
  407b62:	db0f      	blt.n	407b84 <__swhatbuf_r+0x3c>
  407b64:	9a02      	ldr	r2, [sp, #8]
  407b66:	f402 4270 	and.w	r2, r2, #61440	; 0xf000
  407b6a:	f5a2 5200 	sub.w	r2, r2, #8192	; 0x2000
  407b6e:	fab2 f282 	clz	r2, r2
  407b72:	0952      	lsrs	r2, r2, #5
  407b74:	f44f 6380 	mov.w	r3, #1024	; 0x400
  407b78:	f44f 6000 	mov.w	r0, #2048	; 0x800
  407b7c:	6032      	str	r2, [r6, #0]
  407b7e:	6023      	str	r3, [r4, #0]
  407b80:	b010      	add	sp, #64	; 0x40
  407b82:	bd70      	pop	{r4, r5, r6, pc}
  407b84:	89a8      	ldrh	r0, [r5, #12]
  407b86:	f000 0080 	and.w	r0, r0, #128	; 0x80
  407b8a:	b282      	uxth	r2, r0
  407b8c:	2000      	movs	r0, #0
  407b8e:	6030      	str	r0, [r6, #0]
  407b90:	b11a      	cbz	r2, 407b9a <__swhatbuf_r+0x52>
  407b92:	2340      	movs	r3, #64	; 0x40
  407b94:	6023      	str	r3, [r4, #0]
  407b96:	b010      	add	sp, #64	; 0x40
  407b98:	bd70      	pop	{r4, r5, r6, pc}
  407b9a:	f44f 6380 	mov.w	r3, #1024	; 0x400
  407b9e:	4610      	mov	r0, r2
  407ba0:	6023      	str	r3, [r4, #0]
  407ba2:	b010      	add	sp, #64	; 0x40
  407ba4:	bd70      	pop	{r4, r5, r6, pc}
  407ba6:	bf00      	nop

00407ba8 <__smakebuf_r>:
  407ba8:	898a      	ldrh	r2, [r1, #12]
  407baa:	0792      	lsls	r2, r2, #30
  407bac:	460b      	mov	r3, r1
  407bae:	d506      	bpl.n	407bbe <__smakebuf_r+0x16>
  407bb0:	f101 0243 	add.w	r2, r1, #67	; 0x43
  407bb4:	2101      	movs	r1, #1
  407bb6:	601a      	str	r2, [r3, #0]
  407bb8:	611a      	str	r2, [r3, #16]
  407bba:	6159      	str	r1, [r3, #20]
  407bbc:	4770      	bx	lr
  407bbe:	b5f0      	push	{r4, r5, r6, r7, lr}
  407bc0:	b083      	sub	sp, #12
  407bc2:	ab01      	add	r3, sp, #4
  407bc4:	466a      	mov	r2, sp
  407bc6:	460c      	mov	r4, r1
  407bc8:	4605      	mov	r5, r0
  407bca:	f7ff ffbd 	bl	407b48 <__swhatbuf_r>
  407bce:	9900      	ldr	r1, [sp, #0]
  407bd0:	4606      	mov	r6, r0
  407bd2:	4628      	mov	r0, r5
  407bd4:	f7fb fa70 	bl	4030b8 <_malloc_r>
  407bd8:	f9b4 300c 	ldrsh.w	r3, [r4, #12]
  407bdc:	b1d0      	cbz	r0, 407c14 <__smakebuf_r+0x6c>
  407bde:	9a01      	ldr	r2, [sp, #4]
  407be0:	4f12      	ldr	r7, [pc, #72]	; (407c2c <__smakebuf_r+0x84>)
  407be2:	9900      	ldr	r1, [sp, #0]
  407be4:	63ef      	str	r7, [r5, #60]	; 0x3c
  407be6:	f043 0380 	orr.w	r3, r3, #128	; 0x80
  407bea:	81a3      	strh	r3, [r4, #12]
  407bec:	6020      	str	r0, [r4, #0]
  407bee:	6120      	str	r0, [r4, #16]
  407bf0:	6161      	str	r1, [r4, #20]
  407bf2:	b91a      	cbnz	r2, 407bfc <__smakebuf_r+0x54>
  407bf4:	4333      	orrs	r3, r6
  407bf6:	81a3      	strh	r3, [r4, #12]
  407bf8:	b003      	add	sp, #12
  407bfa:	bdf0      	pop	{r4, r5, r6, r7, pc}
  407bfc:	4628      	mov	r0, r5
  407bfe:	f9b4 100e 	ldrsh.w	r1, [r4, #14]
  407c02:	f001 f819 	bl	408c38 <_isatty_r>
  407c06:	f9b4 300c 	ldrsh.w	r3, [r4, #12]
  407c0a:	2800      	cmp	r0, #0
  407c0c:	d0f2      	beq.n	407bf4 <__smakebuf_r+0x4c>
  407c0e:	f043 0301 	orr.w	r3, r3, #1
  407c12:	e7ef      	b.n	407bf4 <__smakebuf_r+0x4c>
  407c14:	059a      	lsls	r2, r3, #22
  407c16:	d4ef      	bmi.n	407bf8 <__smakebuf_r+0x50>
  407c18:	f104 0243 	add.w	r2, r4, #67	; 0x43
  407c1c:	f043 0302 	orr.w	r3, r3, #2
  407c20:	2101      	movs	r1, #1
  407c22:	81a3      	strh	r3, [r4, #12]
  407c24:	6022      	str	r2, [r4, #0]
  407c26:	6122      	str	r2, [r4, #16]
  407c28:	6161      	str	r1, [r4, #20]
  407c2a:	e7e5      	b.n	407bf8 <__smakebuf_r+0x50>
  407c2c:	00407375 	.word	0x00407375

00407c30 <memchr>:
  407c30:	f001 01ff 	and.w	r1, r1, #255	; 0xff
  407c34:	2a10      	cmp	r2, #16
  407c36:	db2b      	blt.n	407c90 <memchr+0x60>
  407c38:	f010 0f07 	tst.w	r0, #7
  407c3c:	d008      	beq.n	407c50 <memchr+0x20>
  407c3e:	f810 3b01 	ldrb.w	r3, [r0], #1
  407c42:	3a01      	subs	r2, #1
  407c44:	428b      	cmp	r3, r1
  407c46:	d02d      	beq.n	407ca4 <memchr+0x74>
  407c48:	f010 0f07 	tst.w	r0, #7
  407c4c:	b342      	cbz	r2, 407ca0 <memchr+0x70>
  407c4e:	d1f6      	bne.n	407c3e <memchr+0xe>
  407c50:	b4f0      	push	{r4, r5, r6, r7}
  407c52:	ea41 2101 	orr.w	r1, r1, r1, lsl #8
  407c56:	ea41 4101 	orr.w	r1, r1, r1, lsl #16
  407c5a:	f022 0407 	bic.w	r4, r2, #7
  407c5e:	f07f 0700 	mvns.w	r7, #0
  407c62:	2300      	movs	r3, #0
  407c64:	e8f0 5602 	ldrd	r5, r6, [r0], #8
  407c68:	3c08      	subs	r4, #8
  407c6a:	ea85 0501 	eor.w	r5, r5, r1
  407c6e:	ea86 0601 	eor.w	r6, r6, r1
  407c72:	fa85 f547 	uadd8	r5, r5, r7
  407c76:	faa3 f587 	sel	r5, r3, r7
  407c7a:	fa86 f647 	uadd8	r6, r6, r7
  407c7e:	faa5 f687 	sel	r6, r5, r7
  407c82:	b98e      	cbnz	r6, 407ca8 <memchr+0x78>
  407c84:	d1ee      	bne.n	407c64 <memchr+0x34>
  407c86:	bcf0      	pop	{r4, r5, r6, r7}
  407c88:	f001 01ff 	and.w	r1, r1, #255	; 0xff
  407c8c:	f002 0207 	and.w	r2, r2, #7
  407c90:	b132      	cbz	r2, 407ca0 <memchr+0x70>
  407c92:	f810 3b01 	ldrb.w	r3, [r0], #1
  407c96:	3a01      	subs	r2, #1
  407c98:	ea83 0301 	eor.w	r3, r3, r1
  407c9c:	b113      	cbz	r3, 407ca4 <memchr+0x74>
  407c9e:	d1f8      	bne.n	407c92 <memchr+0x62>
  407ca0:	2000      	movs	r0, #0
  407ca2:	4770      	bx	lr
  407ca4:	3801      	subs	r0, #1
  407ca6:	4770      	bx	lr
  407ca8:	2d00      	cmp	r5, #0
  407caa:	bf06      	itte	eq
  407cac:	4635      	moveq	r5, r6
  407cae:	3803      	subeq	r0, #3
  407cb0:	3807      	subne	r0, #7
  407cb2:	f015 0f01 	tst.w	r5, #1
  407cb6:	d107      	bne.n	407cc8 <memchr+0x98>
  407cb8:	3001      	adds	r0, #1
  407cba:	f415 7f80 	tst.w	r5, #256	; 0x100
  407cbe:	bf02      	ittt	eq
  407cc0:	3001      	addeq	r0, #1
  407cc2:	f415 3fc0 	tsteq.w	r5, #98304	; 0x18000
  407cc6:	3001      	addeq	r0, #1
  407cc8:	bcf0      	pop	{r4, r5, r6, r7}
  407cca:	3801      	subs	r0, #1
  407ccc:	4770      	bx	lr
  407cce:	bf00      	nop

00407cd0 <memmove>:
  407cd0:	4288      	cmp	r0, r1
  407cd2:	b5f0      	push	{r4, r5, r6, r7, lr}
  407cd4:	d90d      	bls.n	407cf2 <memmove+0x22>
  407cd6:	188b      	adds	r3, r1, r2
  407cd8:	4298      	cmp	r0, r3
  407cda:	d20a      	bcs.n	407cf2 <memmove+0x22>
  407cdc:	1881      	adds	r1, r0, r2
  407cde:	2a00      	cmp	r2, #0
  407ce0:	d051      	beq.n	407d86 <memmove+0xb6>
  407ce2:	1a9a      	subs	r2, r3, r2
  407ce4:	f813 4d01 	ldrb.w	r4, [r3, #-1]!
  407ce8:	f801 4d01 	strb.w	r4, [r1, #-1]!
  407cec:	4293      	cmp	r3, r2
  407cee:	d1f9      	bne.n	407ce4 <memmove+0x14>
  407cf0:	bdf0      	pop	{r4, r5, r6, r7, pc}
  407cf2:	2a0f      	cmp	r2, #15
  407cf4:	d948      	bls.n	407d88 <memmove+0xb8>
  407cf6:	ea41 0300 	orr.w	r3, r1, r0
  407cfa:	079b      	lsls	r3, r3, #30
  407cfc:	d146      	bne.n	407d8c <memmove+0xbc>
  407cfe:	f100 0410 	add.w	r4, r0, #16
  407d02:	f101 0310 	add.w	r3, r1, #16
  407d06:	4615      	mov	r5, r2
  407d08:	f853 6c10 	ldr.w	r6, [r3, #-16]
  407d0c:	f844 6c10 	str.w	r6, [r4, #-16]
  407d10:	f853 6c0c 	ldr.w	r6, [r3, #-12]
  407d14:	f844 6c0c 	str.w	r6, [r4, #-12]
  407d18:	f853 6c08 	ldr.w	r6, [r3, #-8]
  407d1c:	f844 6c08 	str.w	r6, [r4, #-8]
  407d20:	3d10      	subs	r5, #16
  407d22:	f853 6c04 	ldr.w	r6, [r3, #-4]
  407d26:	f844 6c04 	str.w	r6, [r4, #-4]
  407d2a:	2d0f      	cmp	r5, #15
  407d2c:	f103 0310 	add.w	r3, r3, #16
  407d30:	f104 0410 	add.w	r4, r4, #16
  407d34:	d8e8      	bhi.n	407d08 <memmove+0x38>
  407d36:	f1a2 0310 	sub.w	r3, r2, #16
  407d3a:	f023 030f 	bic.w	r3, r3, #15
  407d3e:	f002 0e0f 	and.w	lr, r2, #15
  407d42:	3310      	adds	r3, #16
  407d44:	f1be 0f03 	cmp.w	lr, #3
  407d48:	4419      	add	r1, r3
  407d4a:	4403      	add	r3, r0
  407d4c:	d921      	bls.n	407d92 <memmove+0xc2>
  407d4e:	1f1e      	subs	r6, r3, #4
  407d50:	460d      	mov	r5, r1
  407d52:	4674      	mov	r4, lr
  407d54:	3c04      	subs	r4, #4
  407d56:	f855 7b04 	ldr.w	r7, [r5], #4
  407d5a:	f846 7f04 	str.w	r7, [r6, #4]!
  407d5e:	2c03      	cmp	r4, #3
  407d60:	d8f8      	bhi.n	407d54 <memmove+0x84>
  407d62:	f1ae 0404 	sub.w	r4, lr, #4
  407d66:	f024 0403 	bic.w	r4, r4, #3
  407d6a:	3404      	adds	r4, #4
  407d6c:	4423      	add	r3, r4
  407d6e:	4421      	add	r1, r4
  407d70:	f002 0203 	and.w	r2, r2, #3
  407d74:	b162      	cbz	r2, 407d90 <memmove+0xc0>
  407d76:	3b01      	subs	r3, #1
  407d78:	440a      	add	r2, r1
  407d7a:	f811 4b01 	ldrb.w	r4, [r1], #1
  407d7e:	f803 4f01 	strb.w	r4, [r3, #1]!
  407d82:	428a      	cmp	r2, r1
  407d84:	d1f9      	bne.n	407d7a <memmove+0xaa>
  407d86:	bdf0      	pop	{r4, r5, r6, r7, pc}
  407d88:	4603      	mov	r3, r0
  407d8a:	e7f3      	b.n	407d74 <memmove+0xa4>
  407d8c:	4603      	mov	r3, r0
  407d8e:	e7f2      	b.n	407d76 <memmove+0xa6>
  407d90:	bdf0      	pop	{r4, r5, r6, r7, pc}
  407d92:	4672      	mov	r2, lr
  407d94:	e7ee      	b.n	407d74 <memmove+0xa4>
  407d96:	bf00      	nop

00407d98 <_Balloc>:
  407d98:	6cc3      	ldr	r3, [r0, #76]	; 0x4c
  407d9a:	b570      	push	{r4, r5, r6, lr}
  407d9c:	4605      	mov	r5, r0
  407d9e:	460c      	mov	r4, r1
  407da0:	b14b      	cbz	r3, 407db6 <_Balloc+0x1e>
  407da2:	f853 0024 	ldr.w	r0, [r3, r4, lsl #2]
  407da6:	b180      	cbz	r0, 407dca <_Balloc+0x32>
  407da8:	6802      	ldr	r2, [r0, #0]
  407daa:	f843 2024 	str.w	r2, [r3, r4, lsl #2]
  407dae:	2300      	movs	r3, #0
  407db0:	6103      	str	r3, [r0, #16]
  407db2:	60c3      	str	r3, [r0, #12]
  407db4:	bd70      	pop	{r4, r5, r6, pc}
  407db6:	2221      	movs	r2, #33	; 0x21
  407db8:	2104      	movs	r1, #4
  407dba:	f000 fea5 	bl	408b08 <_calloc_r>
  407dbe:	64e8      	str	r0, [r5, #76]	; 0x4c
  407dc0:	4603      	mov	r3, r0
  407dc2:	2800      	cmp	r0, #0
  407dc4:	d1ed      	bne.n	407da2 <_Balloc+0xa>
  407dc6:	2000      	movs	r0, #0
  407dc8:	bd70      	pop	{r4, r5, r6, pc}
  407dca:	2101      	movs	r1, #1
  407dcc:	fa01 f604 	lsl.w	r6, r1, r4
  407dd0:	1d72      	adds	r2, r6, #5
  407dd2:	4628      	mov	r0, r5
  407dd4:	0092      	lsls	r2, r2, #2
  407dd6:	f000 fe97 	bl	408b08 <_calloc_r>
  407dda:	2800      	cmp	r0, #0
  407ddc:	d0f3      	beq.n	407dc6 <_Balloc+0x2e>
  407dde:	6044      	str	r4, [r0, #4]
  407de0:	6086      	str	r6, [r0, #8]
  407de2:	e7e4      	b.n	407dae <_Balloc+0x16>

00407de4 <_Bfree>:
  407de4:	b131      	cbz	r1, 407df4 <_Bfree+0x10>
  407de6:	6cc3      	ldr	r3, [r0, #76]	; 0x4c
  407de8:	684a      	ldr	r2, [r1, #4]
  407dea:	f853 0022 	ldr.w	r0, [r3, r2, lsl #2]
  407dee:	6008      	str	r0, [r1, #0]
  407df0:	f843 1022 	str.w	r1, [r3, r2, lsl #2]
  407df4:	4770      	bx	lr
  407df6:	bf00      	nop

00407df8 <__multadd>:
  407df8:	b5f0      	push	{r4, r5, r6, r7, lr}
  407dfa:	690c      	ldr	r4, [r1, #16]
  407dfc:	b083      	sub	sp, #12
  407dfe:	460d      	mov	r5, r1
  407e00:	4606      	mov	r6, r0
  407e02:	f101 0e14 	add.w	lr, r1, #20
  407e06:	2700      	movs	r7, #0
  407e08:	f8de 0000 	ldr.w	r0, [lr]
  407e0c:	b281      	uxth	r1, r0
  407e0e:	fb02 3101 	mla	r1, r2, r1, r3
  407e12:	0c0b      	lsrs	r3, r1, #16
  407e14:	0c00      	lsrs	r0, r0, #16
  407e16:	fb02 3300 	mla	r3, r2, r0, r3
  407e1a:	b289      	uxth	r1, r1
  407e1c:	3701      	adds	r7, #1
  407e1e:	eb01 4103 	add.w	r1, r1, r3, lsl #16
  407e22:	42bc      	cmp	r4, r7
  407e24:	f84e 1b04 	str.w	r1, [lr], #4
  407e28:	ea4f 4313 	mov.w	r3, r3, lsr #16
  407e2c:	dcec      	bgt.n	407e08 <__multadd+0x10>
  407e2e:	b13b      	cbz	r3, 407e40 <__multadd+0x48>
  407e30:	68aa      	ldr	r2, [r5, #8]
  407e32:	4294      	cmp	r4, r2
  407e34:	da07      	bge.n	407e46 <__multadd+0x4e>
  407e36:	eb05 0284 	add.w	r2, r5, r4, lsl #2
  407e3a:	3401      	adds	r4, #1
  407e3c:	6153      	str	r3, [r2, #20]
  407e3e:	612c      	str	r4, [r5, #16]
  407e40:	4628      	mov	r0, r5
  407e42:	b003      	add	sp, #12
  407e44:	bdf0      	pop	{r4, r5, r6, r7, pc}
  407e46:	6869      	ldr	r1, [r5, #4]
  407e48:	9301      	str	r3, [sp, #4]
  407e4a:	3101      	adds	r1, #1
  407e4c:	4630      	mov	r0, r6
  407e4e:	f7ff ffa3 	bl	407d98 <_Balloc>
  407e52:	692a      	ldr	r2, [r5, #16]
  407e54:	3202      	adds	r2, #2
  407e56:	f105 010c 	add.w	r1, r5, #12
  407e5a:	4607      	mov	r7, r0
  407e5c:	0092      	lsls	r2, r2, #2
  407e5e:	300c      	adds	r0, #12
  407e60:	f7fb fbe2 	bl	403628 <memcpy>
  407e64:	6cf2      	ldr	r2, [r6, #76]	; 0x4c
  407e66:	6869      	ldr	r1, [r5, #4]
  407e68:	9b01      	ldr	r3, [sp, #4]
  407e6a:	f852 0021 	ldr.w	r0, [r2, r1, lsl #2]
  407e6e:	6028      	str	r0, [r5, #0]
  407e70:	f842 5021 	str.w	r5, [r2, r1, lsl #2]
  407e74:	463d      	mov	r5, r7
  407e76:	e7de      	b.n	407e36 <__multadd+0x3e>

00407e78 <__hi0bits>:
  407e78:	0c03      	lsrs	r3, r0, #16
  407e7a:	041b      	lsls	r3, r3, #16
  407e7c:	b9b3      	cbnz	r3, 407eac <__hi0bits+0x34>
  407e7e:	0400      	lsls	r0, r0, #16
  407e80:	2310      	movs	r3, #16
  407e82:	f010 4f7f 	tst.w	r0, #4278190080	; 0xff000000
  407e86:	bf04      	itt	eq
  407e88:	0200      	lsleq	r0, r0, #8
  407e8a:	3308      	addeq	r3, #8
  407e8c:	f010 4f70 	tst.w	r0, #4026531840	; 0xf0000000
  407e90:	bf04      	itt	eq
  407e92:	0100      	lsleq	r0, r0, #4
  407e94:	3304      	addeq	r3, #4
  407e96:	f010 4f40 	tst.w	r0, #3221225472	; 0xc0000000
  407e9a:	bf04      	itt	eq
  407e9c:	0080      	lsleq	r0, r0, #2
  407e9e:	3302      	addeq	r3, #2
  407ea0:	2800      	cmp	r0, #0
  407ea2:	db07      	blt.n	407eb4 <__hi0bits+0x3c>
  407ea4:	0042      	lsls	r2, r0, #1
  407ea6:	d403      	bmi.n	407eb0 <__hi0bits+0x38>
  407ea8:	2020      	movs	r0, #32
  407eaa:	4770      	bx	lr
  407eac:	2300      	movs	r3, #0
  407eae:	e7e8      	b.n	407e82 <__hi0bits+0xa>
  407eb0:	1c58      	adds	r0, r3, #1
  407eb2:	4770      	bx	lr
  407eb4:	4618      	mov	r0, r3
  407eb6:	4770      	bx	lr

00407eb8 <__lo0bits>:
  407eb8:	6803      	ldr	r3, [r0, #0]
  407eba:	f013 0207 	ands.w	r2, r3, #7
  407ebe:	d007      	beq.n	407ed0 <__lo0bits+0x18>
  407ec0:	07d9      	lsls	r1, r3, #31
  407ec2:	d420      	bmi.n	407f06 <__lo0bits+0x4e>
  407ec4:	079a      	lsls	r2, r3, #30
  407ec6:	d420      	bmi.n	407f0a <__lo0bits+0x52>
  407ec8:	089b      	lsrs	r3, r3, #2
  407eca:	6003      	str	r3, [r0, #0]
  407ecc:	2002      	movs	r0, #2
  407ece:	4770      	bx	lr
  407ed0:	b299      	uxth	r1, r3
  407ed2:	b909      	cbnz	r1, 407ed8 <__lo0bits+0x20>
  407ed4:	0c1b      	lsrs	r3, r3, #16
  407ed6:	2210      	movs	r2, #16
  407ed8:	f013 0fff 	tst.w	r3, #255	; 0xff
  407edc:	bf04      	itt	eq
  407ede:	0a1b      	lsreq	r3, r3, #8
  407ee0:	3208      	addeq	r2, #8
  407ee2:	0719      	lsls	r1, r3, #28
  407ee4:	bf04      	itt	eq
  407ee6:	091b      	lsreq	r3, r3, #4
  407ee8:	3204      	addeq	r2, #4
  407eea:	0799      	lsls	r1, r3, #30
  407eec:	bf04      	itt	eq
  407eee:	089b      	lsreq	r3, r3, #2
  407ef0:	3202      	addeq	r2, #2
  407ef2:	07d9      	lsls	r1, r3, #31
  407ef4:	d404      	bmi.n	407f00 <__lo0bits+0x48>
  407ef6:	085b      	lsrs	r3, r3, #1
  407ef8:	d101      	bne.n	407efe <__lo0bits+0x46>
  407efa:	2020      	movs	r0, #32
  407efc:	4770      	bx	lr
  407efe:	3201      	adds	r2, #1
  407f00:	6003      	str	r3, [r0, #0]
  407f02:	4610      	mov	r0, r2
  407f04:	4770      	bx	lr
  407f06:	2000      	movs	r0, #0
  407f08:	4770      	bx	lr
  407f0a:	085b      	lsrs	r3, r3, #1
  407f0c:	6003      	str	r3, [r0, #0]
  407f0e:	2001      	movs	r0, #1
  407f10:	4770      	bx	lr
  407f12:	bf00      	nop

00407f14 <__i2b>:
  407f14:	b510      	push	{r4, lr}
  407f16:	460c      	mov	r4, r1
  407f18:	2101      	movs	r1, #1
  407f1a:	f7ff ff3d 	bl	407d98 <_Balloc>
  407f1e:	2201      	movs	r2, #1
  407f20:	6144      	str	r4, [r0, #20]
  407f22:	6102      	str	r2, [r0, #16]
  407f24:	bd10      	pop	{r4, pc}
  407f26:	bf00      	nop

00407f28 <__multiply>:
  407f28:	e92d 4ff0 	stmdb	sp!, {r4, r5, r6, r7, r8, r9, sl, fp, lr}
  407f2c:	690d      	ldr	r5, [r1, #16]
  407f2e:	6917      	ldr	r7, [r2, #16]
  407f30:	42bd      	cmp	r5, r7
  407f32:	b083      	sub	sp, #12
  407f34:	460c      	mov	r4, r1
  407f36:	4616      	mov	r6, r2
  407f38:	da04      	bge.n	407f44 <__multiply+0x1c>
  407f3a:	462a      	mov	r2, r5
  407f3c:	4634      	mov	r4, r6
  407f3e:	463d      	mov	r5, r7
  407f40:	460e      	mov	r6, r1
  407f42:	4617      	mov	r7, r2
  407f44:	68a3      	ldr	r3, [r4, #8]
  407f46:	6861      	ldr	r1, [r4, #4]
  407f48:	eb05 0807 	add.w	r8, r5, r7
  407f4c:	4598      	cmp	r8, r3
  407f4e:	bfc8      	it	gt
  407f50:	3101      	addgt	r1, #1
  407f52:	f7ff ff21 	bl	407d98 <_Balloc>
  407f56:	f100 0c14 	add.w	ip, r0, #20
  407f5a:	eb0c 0988 	add.w	r9, ip, r8, lsl #2
  407f5e:	45cc      	cmp	ip, r9
  407f60:	9000      	str	r0, [sp, #0]
  407f62:	d205      	bcs.n	407f70 <__multiply+0x48>
  407f64:	4663      	mov	r3, ip
  407f66:	2100      	movs	r1, #0
  407f68:	f843 1b04 	str.w	r1, [r3], #4
  407f6c:	4599      	cmp	r9, r3
  407f6e:	d8fb      	bhi.n	407f68 <__multiply+0x40>
  407f70:	f106 0214 	add.w	r2, r6, #20
  407f74:	eb02 0a87 	add.w	sl, r2, r7, lsl #2
  407f78:	f104 0314 	add.w	r3, r4, #20
  407f7c:	4552      	cmp	r2, sl
  407f7e:	eb03 0e85 	add.w	lr, r3, r5, lsl #2
  407f82:	d254      	bcs.n	40802e <__multiply+0x106>
  407f84:	f8cd 9004 	str.w	r9, [sp, #4]
  407f88:	4699      	mov	r9, r3
  407f8a:	f852 3b04 	ldr.w	r3, [r2], #4
  407f8e:	fa1f fb83 	uxth.w	fp, r3
  407f92:	f1bb 0f00 	cmp.w	fp, #0
  407f96:	d020      	beq.n	407fda <__multiply+0xb2>
  407f98:	2000      	movs	r0, #0
  407f9a:	464f      	mov	r7, r9
  407f9c:	4666      	mov	r6, ip
  407f9e:	4605      	mov	r5, r0
  407fa0:	e000      	b.n	407fa4 <__multiply+0x7c>
  407fa2:	461e      	mov	r6, r3
  407fa4:	f857 4b04 	ldr.w	r4, [r7], #4
  407fa8:	6830      	ldr	r0, [r6, #0]
  407faa:	b2a1      	uxth	r1, r4
  407fac:	b283      	uxth	r3, r0
  407fae:	fb0b 3101 	mla	r1, fp, r1, r3
  407fb2:	0c24      	lsrs	r4, r4, #16
  407fb4:	0c00      	lsrs	r0, r0, #16
  407fb6:	194b      	adds	r3, r1, r5
  407fb8:	fb0b 0004 	mla	r0, fp, r4, r0
  407fbc:	eb00 4013 	add.w	r0, r0, r3, lsr #16
  407fc0:	b299      	uxth	r1, r3
  407fc2:	4633      	mov	r3, r6
  407fc4:	ea41 4100 	orr.w	r1, r1, r0, lsl #16
  407fc8:	45be      	cmp	lr, r7
  407fca:	ea4f 4510 	mov.w	r5, r0, lsr #16
  407fce:	f843 1b04 	str.w	r1, [r3], #4
  407fd2:	d8e6      	bhi.n	407fa2 <__multiply+0x7a>
  407fd4:	6075      	str	r5, [r6, #4]
  407fd6:	f852 3c04 	ldr.w	r3, [r2, #-4]
  407fda:	ea5f 4b13 	movs.w	fp, r3, lsr #16
  407fde:	d020      	beq.n	408022 <__multiply+0xfa>
  407fe0:	f8dc 3000 	ldr.w	r3, [ip]
  407fe4:	4667      	mov	r7, ip
  407fe6:	4618      	mov	r0, r3
  407fe8:	464d      	mov	r5, r9
  407fea:	2100      	movs	r1, #0
  407fec:	e000      	b.n	407ff0 <__multiply+0xc8>
  407fee:	4637      	mov	r7, r6
  407ff0:	882c      	ldrh	r4, [r5, #0]
  407ff2:	0c00      	lsrs	r0, r0, #16
  407ff4:	fb0b 0004 	mla	r0, fp, r4, r0
  407ff8:	4401      	add	r1, r0
  407ffa:	b29c      	uxth	r4, r3
  407ffc:	463e      	mov	r6, r7
  407ffe:	ea44 4301 	orr.w	r3, r4, r1, lsl #16
  408002:	f846 3b04 	str.w	r3, [r6], #4
  408006:	6878      	ldr	r0, [r7, #4]
  408008:	f855 4b04 	ldr.w	r4, [r5], #4
  40800c:	b283      	uxth	r3, r0
  40800e:	0c24      	lsrs	r4, r4, #16
  408010:	fb0b 3404 	mla	r4, fp, r4, r3
  408014:	eb04 4311 	add.w	r3, r4, r1, lsr #16
  408018:	45ae      	cmp	lr, r5
  40801a:	ea4f 4113 	mov.w	r1, r3, lsr #16
  40801e:	d8e6      	bhi.n	407fee <__multiply+0xc6>
  408020:	607b      	str	r3, [r7, #4]
  408022:	4592      	cmp	sl, r2
  408024:	f10c 0c04 	add.w	ip, ip, #4
  408028:	d8af      	bhi.n	407f8a <__multiply+0x62>
  40802a:	f8dd 9004 	ldr.w	r9, [sp, #4]
  40802e:	f1b8 0f00 	cmp.w	r8, #0
  408032:	dd0b      	ble.n	40804c <__multiply+0x124>
  408034:	f859 3c04 	ldr.w	r3, [r9, #-4]
  408038:	f1a9 0904 	sub.w	r9, r9, #4
  40803c:	b11b      	cbz	r3, 408046 <__multiply+0x11e>
  40803e:	e005      	b.n	40804c <__multiply+0x124>
  408040:	f859 3d04 	ldr.w	r3, [r9, #-4]!
  408044:	b913      	cbnz	r3, 40804c <__multiply+0x124>
  408046:	f1b8 0801 	subs.w	r8, r8, #1
  40804a:	d1f9      	bne.n	408040 <__multiply+0x118>
  40804c:	9800      	ldr	r0, [sp, #0]
  40804e:	f8c0 8010 	str.w	r8, [r0, #16]
  408052:	b003      	add	sp, #12
  408054:	e8bd 8ff0 	ldmia.w	sp!, {r4, r5, r6, r7, r8, r9, sl, fp, pc}

00408058 <__pow5mult>:
  408058:	f012 0303 	ands.w	r3, r2, #3
  40805c:	e92d 41f0 	stmdb	sp!, {r4, r5, r6, r7, r8, lr}
  408060:	4614      	mov	r4, r2
  408062:	4607      	mov	r7, r0
  408064:	d12e      	bne.n	4080c4 <__pow5mult+0x6c>
  408066:	460e      	mov	r6, r1
  408068:	10a4      	asrs	r4, r4, #2
  40806a:	d01c      	beq.n	4080a6 <__pow5mult+0x4e>
  40806c:	6cbd      	ldr	r5, [r7, #72]	; 0x48
  40806e:	b395      	cbz	r5, 4080d6 <__pow5mult+0x7e>
  408070:	07e3      	lsls	r3, r4, #31
  408072:	f04f 0800 	mov.w	r8, #0
  408076:	d406      	bmi.n	408086 <__pow5mult+0x2e>
  408078:	1064      	asrs	r4, r4, #1
  40807a:	d014      	beq.n	4080a6 <__pow5mult+0x4e>
  40807c:	6828      	ldr	r0, [r5, #0]
  40807e:	b1a8      	cbz	r0, 4080ac <__pow5mult+0x54>
  408080:	4605      	mov	r5, r0
  408082:	07e3      	lsls	r3, r4, #31
  408084:	d5f8      	bpl.n	408078 <__pow5mult+0x20>
  408086:	462a      	mov	r2, r5
  408088:	4631      	mov	r1, r6
  40808a:	4638      	mov	r0, r7
  40808c:	f7ff ff4c 	bl	407f28 <__multiply>
  408090:	b1b6      	cbz	r6, 4080c0 <__pow5mult+0x68>
  408092:	6872      	ldr	r2, [r6, #4]
  408094:	6cfb      	ldr	r3, [r7, #76]	; 0x4c
  408096:	1064      	asrs	r4, r4, #1
  408098:	f853 1022 	ldr.w	r1, [r3, r2, lsl #2]
  40809c:	6031      	str	r1, [r6, #0]
  40809e:	f843 6022 	str.w	r6, [r3, r2, lsl #2]
  4080a2:	4606      	mov	r6, r0
  4080a4:	d1ea      	bne.n	40807c <__pow5mult+0x24>
  4080a6:	4630      	mov	r0, r6
  4080a8:	e8bd 81f0 	ldmia.w	sp!, {r4, r5, r6, r7, r8, pc}
  4080ac:	462a      	mov	r2, r5
  4080ae:	4629      	mov	r1, r5
  4080b0:	4638      	mov	r0, r7
  4080b2:	f7ff ff39 	bl	407f28 <__multiply>
  4080b6:	6028      	str	r0, [r5, #0]
  4080b8:	f8c0 8000 	str.w	r8, [r0]
  4080bc:	4605      	mov	r5, r0
  4080be:	e7e0      	b.n	408082 <__pow5mult+0x2a>
  4080c0:	4606      	mov	r6, r0
  4080c2:	e7d9      	b.n	408078 <__pow5mult+0x20>
  4080c4:	1e5a      	subs	r2, r3, #1
  4080c6:	4d0b      	ldr	r5, [pc, #44]	; (4080f4 <__pow5mult+0x9c>)
  4080c8:	2300      	movs	r3, #0
  4080ca:	f855 2022 	ldr.w	r2, [r5, r2, lsl #2]
  4080ce:	f7ff fe93 	bl	407df8 <__multadd>
  4080d2:	4606      	mov	r6, r0
  4080d4:	e7c8      	b.n	408068 <__pow5mult+0x10>
  4080d6:	2101      	movs	r1, #1
  4080d8:	4638      	mov	r0, r7
  4080da:	f7ff fe5d 	bl	407d98 <_Balloc>
  4080de:	f240 2171 	movw	r1, #625	; 0x271
  4080e2:	2201      	movs	r2, #1
  4080e4:	2300      	movs	r3, #0
  4080e6:	6141      	str	r1, [r0, #20]
  4080e8:	6102      	str	r2, [r0, #16]
  4080ea:	4605      	mov	r5, r0
  4080ec:	64b8      	str	r0, [r7, #72]	; 0x48
  4080ee:	6003      	str	r3, [r0, #0]
  4080f0:	e7be      	b.n	408070 <__pow5mult+0x18>
  4080f2:	bf00      	nop
  4080f4:	00409bb0 	.word	0x00409bb0

004080f8 <__lshift>:
  4080f8:	e92d 47f0 	stmdb	sp!, {r4, r5, r6, r7, r8, r9, sl, lr}
  4080fc:	4691      	mov	r9, r2
  4080fe:	690a      	ldr	r2, [r1, #16]
  408100:	688b      	ldr	r3, [r1, #8]
  408102:	ea4f 1469 	mov.w	r4, r9, asr #5
  408106:	eb04 0802 	add.w	r8, r4, r2
  40810a:	f108 0501 	add.w	r5, r8, #1
  40810e:	429d      	cmp	r5, r3
  408110:	460e      	mov	r6, r1
  408112:	4682      	mov	sl, r0
  408114:	6849      	ldr	r1, [r1, #4]
  408116:	dd04      	ble.n	408122 <__lshift+0x2a>
  408118:	005b      	lsls	r3, r3, #1
  40811a:	429d      	cmp	r5, r3
  40811c:	f101 0101 	add.w	r1, r1, #1
  408120:	dcfa      	bgt.n	408118 <__lshift+0x20>
  408122:	4650      	mov	r0, sl
  408124:	f7ff fe38 	bl	407d98 <_Balloc>
  408128:	2c00      	cmp	r4, #0
  40812a:	f100 0214 	add.w	r2, r0, #20
  40812e:	dd38      	ble.n	4081a2 <__lshift+0xaa>
  408130:	eb02 0384 	add.w	r3, r2, r4, lsl #2
  408134:	2100      	movs	r1, #0
  408136:	f842 1b04 	str.w	r1, [r2], #4
  40813a:	4293      	cmp	r3, r2
  40813c:	d1fb      	bne.n	408136 <__lshift+0x3e>
  40813e:	6934      	ldr	r4, [r6, #16]
  408140:	f106 0114 	add.w	r1, r6, #20
  408144:	f019 091f 	ands.w	r9, r9, #31
  408148:	eb01 0e84 	add.w	lr, r1, r4, lsl #2
  40814c:	d021      	beq.n	408192 <__lshift+0x9a>
  40814e:	f1c9 0220 	rsb	r2, r9, #32
  408152:	2400      	movs	r4, #0
  408154:	680f      	ldr	r7, [r1, #0]
  408156:	fa07 fc09 	lsl.w	ip, r7, r9
  40815a:	ea4c 0404 	orr.w	r4, ip, r4
  40815e:	469c      	mov	ip, r3
  408160:	f843 4b04 	str.w	r4, [r3], #4
  408164:	f851 4b04 	ldr.w	r4, [r1], #4
  408168:	458e      	cmp	lr, r1
  40816a:	fa24 f402 	lsr.w	r4, r4, r2
  40816e:	d8f1      	bhi.n	408154 <__lshift+0x5c>
  408170:	f8cc 4004 	str.w	r4, [ip, #4]
  408174:	b10c      	cbz	r4, 40817a <__lshift+0x82>
  408176:	f108 0502 	add.w	r5, r8, #2
  40817a:	f8da 304c 	ldr.w	r3, [sl, #76]	; 0x4c
  40817e:	6872      	ldr	r2, [r6, #4]
  408180:	3d01      	subs	r5, #1
  408182:	f853 1022 	ldr.w	r1, [r3, r2, lsl #2]
  408186:	6105      	str	r5, [r0, #16]
  408188:	6031      	str	r1, [r6, #0]
  40818a:	f843 6022 	str.w	r6, [r3, r2, lsl #2]
  40818e:	e8bd 87f0 	ldmia.w	sp!, {r4, r5, r6, r7, r8, r9, sl, pc}
  408192:	3b04      	subs	r3, #4
  408194:	f851 2b04 	ldr.w	r2, [r1], #4
  408198:	f843 2f04 	str.w	r2, [r3, #4]!
  40819c:	458e      	cmp	lr, r1
  40819e:	d8f9      	bhi.n	408194 <__lshift+0x9c>
  4081a0:	e7eb      	b.n	40817a <__lshift+0x82>
  4081a2:	4613      	mov	r3, r2
  4081a4:	e7cb      	b.n	40813e <__lshift+0x46>
  4081a6:	bf00      	nop

004081a8 <__mcmp>:
  4081a8:	6902      	ldr	r2, [r0, #16]
  4081aa:	690b      	ldr	r3, [r1, #16]
  4081ac:	1ad2      	subs	r2, r2, r3
  4081ae:	d112      	bne.n	4081d6 <__mcmp+0x2e>
  4081b0:	009b      	lsls	r3, r3, #2
  4081b2:	3014      	adds	r0, #20
  4081b4:	3114      	adds	r1, #20
  4081b6:	4419      	add	r1, r3
  4081b8:	b410      	push	{r4}
  4081ba:	4403      	add	r3, r0
  4081bc:	e001      	b.n	4081c2 <__mcmp+0x1a>
  4081be:	4298      	cmp	r0, r3
  4081c0:	d20b      	bcs.n	4081da <__mcmp+0x32>
  4081c2:	f853 4d04 	ldr.w	r4, [r3, #-4]!
  4081c6:	f851 2d04 	ldr.w	r2, [r1, #-4]!
  4081ca:	4294      	cmp	r4, r2
  4081cc:	d0f7      	beq.n	4081be <__mcmp+0x16>
  4081ce:	d307      	bcc.n	4081e0 <__mcmp+0x38>
  4081d0:	2001      	movs	r0, #1
  4081d2:	bc10      	pop	{r4}
  4081d4:	4770      	bx	lr
  4081d6:	4610      	mov	r0, r2
  4081d8:	4770      	bx	lr
  4081da:	2000      	movs	r0, #0
  4081dc:	bc10      	pop	{r4}
  4081de:	4770      	bx	lr
  4081e0:	f04f 30ff 	mov.w	r0, #4294967295
  4081e4:	e7f5      	b.n	4081d2 <__mcmp+0x2a>
  4081e6:	bf00      	nop

004081e8 <__mdiff>:
  4081e8:	e92d 43f8 	stmdb	sp!, {r3, r4, r5, r6, r7, r8, r9, lr}
  4081ec:	690b      	ldr	r3, [r1, #16]
  4081ee:	460f      	mov	r7, r1
  4081f0:	6911      	ldr	r1, [r2, #16]
  4081f2:	1a5b      	subs	r3, r3, r1
  4081f4:	2b00      	cmp	r3, #0
  4081f6:	4690      	mov	r8, r2
  4081f8:	d117      	bne.n	40822a <__mdiff+0x42>
  4081fa:	0089      	lsls	r1, r1, #2
  4081fc:	f107 0214 	add.w	r2, r7, #20
  408200:	f108 0514 	add.w	r5, r8, #20
  408204:	1853      	adds	r3, r2, r1
  408206:	4429      	add	r1, r5
  408208:	e001      	b.n	40820e <__mdiff+0x26>
  40820a:	429a      	cmp	r2, r3
  40820c:	d25e      	bcs.n	4082cc <__mdiff+0xe4>
  40820e:	f853 6d04 	ldr.w	r6, [r3, #-4]!
  408212:	f851 4d04 	ldr.w	r4, [r1, #-4]!
  408216:	42a6      	cmp	r6, r4
  408218:	d0f7      	beq.n	40820a <__mdiff+0x22>
  40821a:	d260      	bcs.n	4082de <__mdiff+0xf6>
  40821c:	463b      	mov	r3, r7
  40821e:	4614      	mov	r4, r2
  408220:	4647      	mov	r7, r8
  408222:	f04f 0901 	mov.w	r9, #1
  408226:	4698      	mov	r8, r3
  408228:	e006      	b.n	408238 <__mdiff+0x50>
  40822a:	db5d      	blt.n	4082e8 <__mdiff+0x100>
  40822c:	f107 0514 	add.w	r5, r7, #20
  408230:	f102 0414 	add.w	r4, r2, #20
  408234:	f04f 0900 	mov.w	r9, #0
  408238:	6879      	ldr	r1, [r7, #4]
  40823a:	f7ff fdad 	bl	407d98 <_Balloc>
  40823e:	f8d8 3010 	ldr.w	r3, [r8, #16]
  408242:	693e      	ldr	r6, [r7, #16]
  408244:	f8c0 900c 	str.w	r9, [r0, #12]
  408248:	eb04 0c83 	add.w	ip, r4, r3, lsl #2
  40824c:	46a6      	mov	lr, r4
  40824e:	eb05 0786 	add.w	r7, r5, r6, lsl #2
  408252:	f100 0414 	add.w	r4, r0, #20
  408256:	2300      	movs	r3, #0
  408258:	f85e 1b04 	ldr.w	r1, [lr], #4
  40825c:	f855 8b04 	ldr.w	r8, [r5], #4
  408260:	b28a      	uxth	r2, r1
  408262:	fa13 f388 	uxtah	r3, r3, r8
  408266:	0c09      	lsrs	r1, r1, #16
  408268:	1a9a      	subs	r2, r3, r2
  40826a:	ebc1 4318 	rsb	r3, r1, r8, lsr #16
  40826e:	eb03 4322 	add.w	r3, r3, r2, asr #16
  408272:	b292      	uxth	r2, r2
  408274:	ea42 4203 	orr.w	r2, r2, r3, lsl #16
  408278:	45f4      	cmp	ip, lr
  40827a:	f844 2b04 	str.w	r2, [r4], #4
  40827e:	ea4f 4323 	mov.w	r3, r3, asr #16
  408282:	d8e9      	bhi.n	408258 <__mdiff+0x70>
  408284:	42af      	cmp	r7, r5
  408286:	d917      	bls.n	4082b8 <__mdiff+0xd0>
  408288:	46a4      	mov	ip, r4
  40828a:	4629      	mov	r1, r5
  40828c:	f851 eb04 	ldr.w	lr, [r1], #4
  408290:	fa13 f28e 	uxtah	r2, r3, lr
  408294:	1413      	asrs	r3, r2, #16
  408296:	eb03 431e 	add.w	r3, r3, lr, lsr #16
  40829a:	b292      	uxth	r2, r2
  40829c:	ea42 4203 	orr.w	r2, r2, r3, lsl #16
  4082a0:	428f      	cmp	r7, r1
  4082a2:	f84c 2b04 	str.w	r2, [ip], #4
  4082a6:	ea4f 4323 	mov.w	r3, r3, asr #16
  4082aa:	d8ef      	bhi.n	40828c <__mdiff+0xa4>
  4082ac:	43ed      	mvns	r5, r5
  4082ae:	443d      	add	r5, r7
  4082b0:	f025 0503 	bic.w	r5, r5, #3
  4082b4:	3504      	adds	r5, #4
  4082b6:	442c      	add	r4, r5
  4082b8:	3c04      	subs	r4, #4
  4082ba:	b922      	cbnz	r2, 4082c6 <__mdiff+0xde>
  4082bc:	f854 3d04 	ldr.w	r3, [r4, #-4]!
  4082c0:	3e01      	subs	r6, #1
  4082c2:	2b00      	cmp	r3, #0
  4082c4:	d0fa      	beq.n	4082bc <__mdiff+0xd4>
  4082c6:	6106      	str	r6, [r0, #16]
  4082c8:	e8bd 83f8 	ldmia.w	sp!, {r3, r4, r5, r6, r7, r8, r9, pc}
  4082cc:	2100      	movs	r1, #0
  4082ce:	f7ff fd63 	bl	407d98 <_Balloc>
  4082d2:	2201      	movs	r2, #1
  4082d4:	2300      	movs	r3, #0
  4082d6:	6102      	str	r2, [r0, #16]
  4082d8:	6143      	str	r3, [r0, #20]
  4082da:	e8bd 83f8 	ldmia.w	sp!, {r3, r4, r5, r6, r7, r8, r9, pc}
  4082de:	462c      	mov	r4, r5
  4082e0:	f04f 0900 	mov.w	r9, #0
  4082e4:	4615      	mov	r5, r2
  4082e6:	e7a7      	b.n	408238 <__mdiff+0x50>
  4082e8:	463b      	mov	r3, r7
  4082ea:	f107 0414 	add.w	r4, r7, #20
  4082ee:	f108 0514 	add.w	r5, r8, #20
  4082f2:	4647      	mov	r7, r8
  4082f4:	f04f 0901 	mov.w	r9, #1
  4082f8:	4698      	mov	r8, r3
  4082fa:	e79d      	b.n	408238 <__mdiff+0x50>

004082fc <__d2b>:
  4082fc:	e92d 41f0 	stmdb	sp!, {r4, r5, r6, r7, r8, lr}
  408300:	b082      	sub	sp, #8
  408302:	2101      	movs	r1, #1
  408304:	461c      	mov	r4, r3
  408306:	f3c3 570a 	ubfx	r7, r3, #20, #11
  40830a:	4615      	mov	r5, r2
  40830c:	9e08      	ldr	r6, [sp, #32]
  40830e:	f7ff fd43 	bl	407d98 <_Balloc>
  408312:	f3c4 0413 	ubfx	r4, r4, #0, #20
  408316:	4680      	mov	r8, r0
  408318:	b10f      	cbz	r7, 40831e <__d2b+0x22>
  40831a:	f444 1480 	orr.w	r4, r4, #1048576	; 0x100000
  40831e:	9401      	str	r4, [sp, #4]
  408320:	b31d      	cbz	r5, 40836a <__d2b+0x6e>
  408322:	a802      	add	r0, sp, #8
  408324:	f840 5d08 	str.w	r5, [r0, #-8]!
  408328:	f7ff fdc6 	bl	407eb8 <__lo0bits>
  40832c:	2800      	cmp	r0, #0
  40832e:	d134      	bne.n	40839a <__d2b+0x9e>
  408330:	e89d 000c 	ldmia.w	sp, {r2, r3}
  408334:	f8c8 2014 	str.w	r2, [r8, #20]
  408338:	2b00      	cmp	r3, #0
  40833a:	bf0c      	ite	eq
  40833c:	2101      	moveq	r1, #1
  40833e:	2102      	movne	r1, #2
  408340:	f8c8 3018 	str.w	r3, [r8, #24]
  408344:	f8c8 1010 	str.w	r1, [r8, #16]
  408348:	b9df      	cbnz	r7, 408382 <__d2b+0x86>
  40834a:	eb08 0381 	add.w	r3, r8, r1, lsl #2
  40834e:	f2a0 4032 	subw	r0, r0, #1074	; 0x432
  408352:	6030      	str	r0, [r6, #0]
  408354:	6918      	ldr	r0, [r3, #16]
  408356:	f7ff fd8f 	bl	407e78 <__hi0bits>
  40835a:	9b09      	ldr	r3, [sp, #36]	; 0x24
  40835c:	ebc0 1041 	rsb	r0, r0, r1, lsl #5
  408360:	6018      	str	r0, [r3, #0]
  408362:	4640      	mov	r0, r8
  408364:	b002      	add	sp, #8
  408366:	e8bd 81f0 	ldmia.w	sp!, {r4, r5, r6, r7, r8, pc}
  40836a:	a801      	add	r0, sp, #4
  40836c:	f7ff fda4 	bl	407eb8 <__lo0bits>
  408370:	9b01      	ldr	r3, [sp, #4]
  408372:	f8c8 3014 	str.w	r3, [r8, #20]
  408376:	2101      	movs	r1, #1
  408378:	3020      	adds	r0, #32
  40837a:	f8c8 1010 	str.w	r1, [r8, #16]
  40837e:	2f00      	cmp	r7, #0
  408380:	d0e3      	beq.n	40834a <__d2b+0x4e>
  408382:	9b09      	ldr	r3, [sp, #36]	; 0x24
  408384:	f2a7 4733 	subw	r7, r7, #1075	; 0x433
  408388:	4407      	add	r7, r0
  40838a:	f1c0 0035 	rsb	r0, r0, #53	; 0x35
  40838e:	6037      	str	r7, [r6, #0]
  408390:	6018      	str	r0, [r3, #0]
  408392:	4640      	mov	r0, r8
  408394:	b002      	add	sp, #8
  408396:	e8bd 81f0 	ldmia.w	sp!, {r4, r5, r6, r7, r8, pc}
  40839a:	e89d 000c 	ldmia.w	sp, {r2, r3}
  40839e:	f1c0 0120 	rsb	r1, r0, #32
  4083a2:	fa03 f101 	lsl.w	r1, r3, r1
  4083a6:	430a      	orrs	r2, r1
  4083a8:	40c3      	lsrs	r3, r0
  4083aa:	9301      	str	r3, [sp, #4]
  4083ac:	f8c8 2014 	str.w	r2, [r8, #20]
  4083b0:	e7c2      	b.n	408338 <__d2b+0x3c>
  4083b2:	bf00      	nop

004083b4 <_realloc_r>:
  4083b4:	e92d 4ff0 	stmdb	sp!, {r4, r5, r6, r7, r8, r9, sl, fp, lr}
  4083b8:	4617      	mov	r7, r2
  4083ba:	b083      	sub	sp, #12
  4083bc:	2900      	cmp	r1, #0
  4083be:	f000 80c1 	beq.w	408544 <_realloc_r+0x190>
  4083c2:	460e      	mov	r6, r1
  4083c4:	4681      	mov	r9, r0
  4083c6:	f107 050b 	add.w	r5, r7, #11
  4083ca:	f7fb fa15 	bl	4037f8 <__malloc_lock>
  4083ce:	f856 ec04 	ldr.w	lr, [r6, #-4]
  4083d2:	2d16      	cmp	r5, #22
  4083d4:	f02e 0403 	bic.w	r4, lr, #3
  4083d8:	f1a6 0808 	sub.w	r8, r6, #8
  4083dc:	d840      	bhi.n	408460 <_realloc_r+0xac>
  4083de:	2210      	movs	r2, #16
  4083e0:	4615      	mov	r5, r2
  4083e2:	42af      	cmp	r7, r5
  4083e4:	d841      	bhi.n	40846a <_realloc_r+0xb6>
  4083e6:	4294      	cmp	r4, r2
  4083e8:	da75      	bge.n	4084d6 <_realloc_r+0x122>
  4083ea:	4bc9      	ldr	r3, [pc, #804]	; (408710 <_realloc_r+0x35c>)
  4083ec:	6899      	ldr	r1, [r3, #8]
  4083ee:	eb08 0004 	add.w	r0, r8, r4
  4083f2:	4288      	cmp	r0, r1
  4083f4:	6841      	ldr	r1, [r0, #4]
  4083f6:	f000 80d9 	beq.w	4085ac <_realloc_r+0x1f8>
  4083fa:	f021 0301 	bic.w	r3, r1, #1
  4083fe:	4403      	add	r3, r0
  408400:	685b      	ldr	r3, [r3, #4]
  408402:	07db      	lsls	r3, r3, #31
  408404:	d57d      	bpl.n	408502 <_realloc_r+0x14e>
  408406:	f01e 0f01 	tst.w	lr, #1
  40840a:	d035      	beq.n	408478 <_realloc_r+0xc4>
  40840c:	4639      	mov	r1, r7
  40840e:	4648      	mov	r0, r9
  408410:	f7fa fe52 	bl	4030b8 <_malloc_r>
  408414:	4607      	mov	r7, r0
  408416:	b1e0      	cbz	r0, 408452 <_realloc_r+0x9e>
  408418:	f856 3c04 	ldr.w	r3, [r6, #-4]
  40841c:	f023 0301 	bic.w	r3, r3, #1
  408420:	4443      	add	r3, r8
  408422:	f1a0 0208 	sub.w	r2, r0, #8
  408426:	429a      	cmp	r2, r3
  408428:	f000 8144 	beq.w	4086b4 <_realloc_r+0x300>
  40842c:	1f22      	subs	r2, r4, #4
  40842e:	2a24      	cmp	r2, #36	; 0x24
  408430:	f200 8131 	bhi.w	408696 <_realloc_r+0x2e2>
  408434:	2a13      	cmp	r2, #19
  408436:	f200 8104 	bhi.w	408642 <_realloc_r+0x28e>
  40843a:	4603      	mov	r3, r0
  40843c:	4632      	mov	r2, r6
  40843e:	6811      	ldr	r1, [r2, #0]
  408440:	6019      	str	r1, [r3, #0]
  408442:	6851      	ldr	r1, [r2, #4]
  408444:	6059      	str	r1, [r3, #4]
  408446:	6892      	ldr	r2, [r2, #8]
  408448:	609a      	str	r2, [r3, #8]
  40844a:	4631      	mov	r1, r6
  40844c:	4648      	mov	r0, r9
  40844e:	f7ff f8d9 	bl	407604 <_free_r>
  408452:	4648      	mov	r0, r9
  408454:	f7fb f9d2 	bl	4037fc <__malloc_unlock>
  408458:	4638      	mov	r0, r7
  40845a:	b003      	add	sp, #12
  40845c:	e8bd 8ff0 	ldmia.w	sp!, {r4, r5, r6, r7, r8, r9, sl, fp, pc}
  408460:	f025 0507 	bic.w	r5, r5, #7
  408464:	2d00      	cmp	r5, #0
  408466:	462a      	mov	r2, r5
  408468:	dabb      	bge.n	4083e2 <_realloc_r+0x2e>
  40846a:	230c      	movs	r3, #12
  40846c:	2000      	movs	r0, #0
  40846e:	f8c9 3000 	str.w	r3, [r9]
  408472:	b003      	add	sp, #12
  408474:	e8bd 8ff0 	ldmia.w	sp!, {r4, r5, r6, r7, r8, r9, sl, fp, pc}
  408478:	f856 3c08 	ldr.w	r3, [r6, #-8]
  40847c:	ebc3 0a08 	rsb	sl, r3, r8
  408480:	f8da 3004 	ldr.w	r3, [sl, #4]
  408484:	f023 0c03 	bic.w	ip, r3, #3
  408488:	eb04 030c 	add.w	r3, r4, ip
  40848c:	4293      	cmp	r3, r2
  40848e:	dbbd      	blt.n	40840c <_realloc_r+0x58>
  408490:	4657      	mov	r7, sl
  408492:	f8da 100c 	ldr.w	r1, [sl, #12]
  408496:	f857 0f08 	ldr.w	r0, [r7, #8]!
  40849a:	1f22      	subs	r2, r4, #4
  40849c:	2a24      	cmp	r2, #36	; 0x24
  40849e:	60c1      	str	r1, [r0, #12]
  4084a0:	6088      	str	r0, [r1, #8]
  4084a2:	f200 8117 	bhi.w	4086d4 <_realloc_r+0x320>
  4084a6:	2a13      	cmp	r2, #19
  4084a8:	f240 8112 	bls.w	4086d0 <_realloc_r+0x31c>
  4084ac:	6831      	ldr	r1, [r6, #0]
  4084ae:	f8ca 1008 	str.w	r1, [sl, #8]
  4084b2:	6871      	ldr	r1, [r6, #4]
  4084b4:	f8ca 100c 	str.w	r1, [sl, #12]
  4084b8:	2a1b      	cmp	r2, #27
  4084ba:	f200 812b 	bhi.w	408714 <_realloc_r+0x360>
  4084be:	3608      	adds	r6, #8
  4084c0:	f10a 0210 	add.w	r2, sl, #16
  4084c4:	6831      	ldr	r1, [r6, #0]
  4084c6:	6011      	str	r1, [r2, #0]
  4084c8:	6871      	ldr	r1, [r6, #4]
  4084ca:	6051      	str	r1, [r2, #4]
  4084cc:	68b1      	ldr	r1, [r6, #8]
  4084ce:	6091      	str	r1, [r2, #8]
  4084d0:	463e      	mov	r6, r7
  4084d2:	461c      	mov	r4, r3
  4084d4:	46d0      	mov	r8, sl
  4084d6:	1b63      	subs	r3, r4, r5
  4084d8:	2b0f      	cmp	r3, #15
  4084da:	d81d      	bhi.n	408518 <_realloc_r+0x164>
  4084dc:	f8d8 3004 	ldr.w	r3, [r8, #4]
  4084e0:	f003 0301 	and.w	r3, r3, #1
  4084e4:	4323      	orrs	r3, r4
  4084e6:	4444      	add	r4, r8
  4084e8:	f8c8 3004 	str.w	r3, [r8, #4]
  4084ec:	6863      	ldr	r3, [r4, #4]
  4084ee:	f043 0301 	orr.w	r3, r3, #1
  4084f2:	6063      	str	r3, [r4, #4]
  4084f4:	4648      	mov	r0, r9
  4084f6:	f7fb f981 	bl	4037fc <__malloc_unlock>
  4084fa:	4630      	mov	r0, r6
  4084fc:	b003      	add	sp, #12
  4084fe:	e8bd 8ff0 	ldmia.w	sp!, {r4, r5, r6, r7, r8, r9, sl, fp, pc}
  408502:	f021 0103 	bic.w	r1, r1, #3
  408506:	4421      	add	r1, r4
  408508:	4291      	cmp	r1, r2
  40850a:	db21      	blt.n	408550 <_realloc_r+0x19c>
  40850c:	68c3      	ldr	r3, [r0, #12]
  40850e:	6882      	ldr	r2, [r0, #8]
  408510:	460c      	mov	r4, r1
  408512:	60d3      	str	r3, [r2, #12]
  408514:	609a      	str	r2, [r3, #8]
  408516:	e7de      	b.n	4084d6 <_realloc_r+0x122>
  408518:	f8d8 2004 	ldr.w	r2, [r8, #4]
  40851c:	eb08 0105 	add.w	r1, r8, r5
  408520:	f002 0201 	and.w	r2, r2, #1
  408524:	4315      	orrs	r5, r2
  408526:	f043 0201 	orr.w	r2, r3, #1
  40852a:	440b      	add	r3, r1
  40852c:	f8c8 5004 	str.w	r5, [r8, #4]
  408530:	604a      	str	r2, [r1, #4]
  408532:	685a      	ldr	r2, [r3, #4]
  408534:	f042 0201 	orr.w	r2, r2, #1
  408538:	3108      	adds	r1, #8
  40853a:	605a      	str	r2, [r3, #4]
  40853c:	4648      	mov	r0, r9
  40853e:	f7ff f861 	bl	407604 <_free_r>
  408542:	e7d7      	b.n	4084f4 <_realloc_r+0x140>
  408544:	4611      	mov	r1, r2
  408546:	b003      	add	sp, #12
  408548:	e8bd 4ff0 	ldmia.w	sp!, {r4, r5, r6, r7, r8, r9, sl, fp, lr}
  40854c:	f7fa bdb4 	b.w	4030b8 <_malloc_r>
  408550:	f01e 0f01 	tst.w	lr, #1
  408554:	f47f af5a 	bne.w	40840c <_realloc_r+0x58>
  408558:	f856 3c08 	ldr.w	r3, [r6, #-8]
  40855c:	ebc3 0a08 	rsb	sl, r3, r8
  408560:	f8da 3004 	ldr.w	r3, [sl, #4]
  408564:	f023 0c03 	bic.w	ip, r3, #3
  408568:	eb01 0e0c 	add.w	lr, r1, ip
  40856c:	4596      	cmp	lr, r2
  40856e:	db8b      	blt.n	408488 <_realloc_r+0xd4>
  408570:	68c3      	ldr	r3, [r0, #12]
  408572:	6882      	ldr	r2, [r0, #8]
  408574:	4657      	mov	r7, sl
  408576:	60d3      	str	r3, [r2, #12]
  408578:	609a      	str	r2, [r3, #8]
  40857a:	f857 1f08 	ldr.w	r1, [r7, #8]!
  40857e:	f8da 300c 	ldr.w	r3, [sl, #12]
  408582:	60cb      	str	r3, [r1, #12]
  408584:	1f22      	subs	r2, r4, #4
  408586:	2a24      	cmp	r2, #36	; 0x24
  408588:	6099      	str	r1, [r3, #8]
  40858a:	f200 8099 	bhi.w	4086c0 <_realloc_r+0x30c>
  40858e:	2a13      	cmp	r2, #19
  408590:	d962      	bls.n	408658 <_realloc_r+0x2a4>
  408592:	6833      	ldr	r3, [r6, #0]
  408594:	f8ca 3008 	str.w	r3, [sl, #8]
  408598:	6873      	ldr	r3, [r6, #4]
  40859a:	f8ca 300c 	str.w	r3, [sl, #12]
  40859e:	2a1b      	cmp	r2, #27
  4085a0:	f200 80a0 	bhi.w	4086e4 <_realloc_r+0x330>
  4085a4:	3608      	adds	r6, #8
  4085a6:	f10a 0310 	add.w	r3, sl, #16
  4085aa:	e056      	b.n	40865a <_realloc_r+0x2a6>
  4085ac:	f021 0b03 	bic.w	fp, r1, #3
  4085b0:	44a3      	add	fp, r4
  4085b2:	f105 0010 	add.w	r0, r5, #16
  4085b6:	4583      	cmp	fp, r0
  4085b8:	da59      	bge.n	40866e <_realloc_r+0x2ba>
  4085ba:	f01e 0f01 	tst.w	lr, #1
  4085be:	f47f af25 	bne.w	40840c <_realloc_r+0x58>
  4085c2:	f856 1c08 	ldr.w	r1, [r6, #-8]
  4085c6:	ebc1 0a08 	rsb	sl, r1, r8
  4085ca:	f8da 1004 	ldr.w	r1, [sl, #4]
  4085ce:	f021 0c03 	bic.w	ip, r1, #3
  4085d2:	44e3      	add	fp, ip
  4085d4:	4558      	cmp	r0, fp
  4085d6:	f73f af57 	bgt.w	408488 <_realloc_r+0xd4>
  4085da:	4657      	mov	r7, sl
  4085dc:	f8da 100c 	ldr.w	r1, [sl, #12]
  4085e0:	f857 0f08 	ldr.w	r0, [r7, #8]!
  4085e4:	1f22      	subs	r2, r4, #4
  4085e6:	2a24      	cmp	r2, #36	; 0x24
  4085e8:	60c1      	str	r1, [r0, #12]
  4085ea:	6088      	str	r0, [r1, #8]
  4085ec:	f200 80b4 	bhi.w	408758 <_realloc_r+0x3a4>
  4085f0:	2a13      	cmp	r2, #19
  4085f2:	f240 80a5 	bls.w	408740 <_realloc_r+0x38c>
  4085f6:	6831      	ldr	r1, [r6, #0]
  4085f8:	f8ca 1008 	str.w	r1, [sl, #8]
  4085fc:	6871      	ldr	r1, [r6, #4]
  4085fe:	f8ca 100c 	str.w	r1, [sl, #12]
  408602:	2a1b      	cmp	r2, #27
  408604:	f200 80af 	bhi.w	408766 <_realloc_r+0x3b2>
  408608:	3608      	adds	r6, #8
  40860a:	f10a 0210 	add.w	r2, sl, #16
  40860e:	6831      	ldr	r1, [r6, #0]
  408610:	6011      	str	r1, [r2, #0]
  408612:	6871      	ldr	r1, [r6, #4]
  408614:	6051      	str	r1, [r2, #4]
  408616:	68b1      	ldr	r1, [r6, #8]
  408618:	6091      	str	r1, [r2, #8]
  40861a:	eb0a 0105 	add.w	r1, sl, r5
  40861e:	ebc5 020b 	rsb	r2, r5, fp
  408622:	f042 0201 	orr.w	r2, r2, #1
  408626:	6099      	str	r1, [r3, #8]
  408628:	604a      	str	r2, [r1, #4]
  40862a:	f8da 3004 	ldr.w	r3, [sl, #4]
  40862e:	f003 0301 	and.w	r3, r3, #1
  408632:	431d      	orrs	r5, r3
  408634:	4648      	mov	r0, r9
  408636:	f8ca 5004 	str.w	r5, [sl, #4]
  40863a:	f7fb f8df 	bl	4037fc <__malloc_unlock>
  40863e:	4638      	mov	r0, r7
  408640:	e75c      	b.n	4084fc <_realloc_r+0x148>
  408642:	6833      	ldr	r3, [r6, #0]
  408644:	6003      	str	r3, [r0, #0]
  408646:	6873      	ldr	r3, [r6, #4]
  408648:	6043      	str	r3, [r0, #4]
  40864a:	2a1b      	cmp	r2, #27
  40864c:	d827      	bhi.n	40869e <_realloc_r+0x2ea>
  40864e:	f100 0308 	add.w	r3, r0, #8
  408652:	f106 0208 	add.w	r2, r6, #8
  408656:	e6f2      	b.n	40843e <_realloc_r+0x8a>
  408658:	463b      	mov	r3, r7
  40865a:	6832      	ldr	r2, [r6, #0]
  40865c:	601a      	str	r2, [r3, #0]
  40865e:	6872      	ldr	r2, [r6, #4]
  408660:	605a      	str	r2, [r3, #4]
  408662:	68b2      	ldr	r2, [r6, #8]
  408664:	609a      	str	r2, [r3, #8]
  408666:	463e      	mov	r6, r7
  408668:	4674      	mov	r4, lr
  40866a:	46d0      	mov	r8, sl
  40866c:	e733      	b.n	4084d6 <_realloc_r+0x122>
  40866e:	eb08 0105 	add.w	r1, r8, r5
  408672:	ebc5 0b0b 	rsb	fp, r5, fp
  408676:	f04b 0201 	orr.w	r2, fp, #1
  40867a:	6099      	str	r1, [r3, #8]
  40867c:	604a      	str	r2, [r1, #4]
  40867e:	f856 3c04 	ldr.w	r3, [r6, #-4]
  408682:	f003 0301 	and.w	r3, r3, #1
  408686:	431d      	orrs	r5, r3
  408688:	4648      	mov	r0, r9
  40868a:	f846 5c04 	str.w	r5, [r6, #-4]
  40868e:	f7fb f8b5 	bl	4037fc <__malloc_unlock>
  408692:	4630      	mov	r0, r6
  408694:	e732      	b.n	4084fc <_realloc_r+0x148>
  408696:	4631      	mov	r1, r6
  408698:	f7ff fb1a 	bl	407cd0 <memmove>
  40869c:	e6d5      	b.n	40844a <_realloc_r+0x96>
  40869e:	68b3      	ldr	r3, [r6, #8]
  4086a0:	6083      	str	r3, [r0, #8]
  4086a2:	68f3      	ldr	r3, [r6, #12]
  4086a4:	60c3      	str	r3, [r0, #12]
  4086a6:	2a24      	cmp	r2, #36	; 0x24
  4086a8:	d028      	beq.n	4086fc <_realloc_r+0x348>
  4086aa:	f100 0310 	add.w	r3, r0, #16
  4086ae:	f106 0210 	add.w	r2, r6, #16
  4086b2:	e6c4      	b.n	40843e <_realloc_r+0x8a>
  4086b4:	f850 3c04 	ldr.w	r3, [r0, #-4]
  4086b8:	f023 0303 	bic.w	r3, r3, #3
  4086bc:	441c      	add	r4, r3
  4086be:	e70a      	b.n	4084d6 <_realloc_r+0x122>
  4086c0:	4631      	mov	r1, r6
  4086c2:	4638      	mov	r0, r7
  4086c4:	4674      	mov	r4, lr
  4086c6:	46d0      	mov	r8, sl
  4086c8:	f7ff fb02 	bl	407cd0 <memmove>
  4086cc:	463e      	mov	r6, r7
  4086ce:	e702      	b.n	4084d6 <_realloc_r+0x122>
  4086d0:	463a      	mov	r2, r7
  4086d2:	e6f7      	b.n	4084c4 <_realloc_r+0x110>
  4086d4:	4631      	mov	r1, r6
  4086d6:	4638      	mov	r0, r7
  4086d8:	461c      	mov	r4, r3
  4086da:	46d0      	mov	r8, sl
  4086dc:	f7ff faf8 	bl	407cd0 <memmove>
  4086e0:	463e      	mov	r6, r7
  4086e2:	e6f8      	b.n	4084d6 <_realloc_r+0x122>
  4086e4:	68b3      	ldr	r3, [r6, #8]
  4086e6:	f8ca 3010 	str.w	r3, [sl, #16]
  4086ea:	68f3      	ldr	r3, [r6, #12]
  4086ec:	f8ca 3014 	str.w	r3, [sl, #20]
  4086f0:	2a24      	cmp	r2, #36	; 0x24
  4086f2:	d01b      	beq.n	40872c <_realloc_r+0x378>
  4086f4:	3610      	adds	r6, #16
  4086f6:	f10a 0318 	add.w	r3, sl, #24
  4086fa:	e7ae      	b.n	40865a <_realloc_r+0x2a6>
  4086fc:	6933      	ldr	r3, [r6, #16]
  4086fe:	6103      	str	r3, [r0, #16]
  408700:	6973      	ldr	r3, [r6, #20]
  408702:	6143      	str	r3, [r0, #20]
  408704:	f106 0218 	add.w	r2, r6, #24
  408708:	f100 0318 	add.w	r3, r0, #24
  40870c:	e697      	b.n	40843e <_realloc_r+0x8a>
  40870e:	bf00      	nop
  408710:	2040043c 	.word	0x2040043c
  408714:	68b1      	ldr	r1, [r6, #8]
  408716:	f8ca 1010 	str.w	r1, [sl, #16]
  40871a:	68f1      	ldr	r1, [r6, #12]
  40871c:	f8ca 1014 	str.w	r1, [sl, #20]
  408720:	2a24      	cmp	r2, #36	; 0x24
  408722:	d00f      	beq.n	408744 <_realloc_r+0x390>
  408724:	3610      	adds	r6, #16
  408726:	f10a 0218 	add.w	r2, sl, #24
  40872a:	e6cb      	b.n	4084c4 <_realloc_r+0x110>
  40872c:	6933      	ldr	r3, [r6, #16]
  40872e:	f8ca 3018 	str.w	r3, [sl, #24]
  408732:	6973      	ldr	r3, [r6, #20]
  408734:	f8ca 301c 	str.w	r3, [sl, #28]
  408738:	3618      	adds	r6, #24
  40873a:	f10a 0320 	add.w	r3, sl, #32
  40873e:	e78c      	b.n	40865a <_realloc_r+0x2a6>
  408740:	463a      	mov	r2, r7
  408742:	e764      	b.n	40860e <_realloc_r+0x25a>
  408744:	6932      	ldr	r2, [r6, #16]
  408746:	f8ca 2018 	str.w	r2, [sl, #24]
  40874a:	6972      	ldr	r2, [r6, #20]
  40874c:	f8ca 201c 	str.w	r2, [sl, #28]
  408750:	3618      	adds	r6, #24
  408752:	f10a 0220 	add.w	r2, sl, #32
  408756:	e6b5      	b.n	4084c4 <_realloc_r+0x110>
  408758:	4631      	mov	r1, r6
  40875a:	4638      	mov	r0, r7
  40875c:	9301      	str	r3, [sp, #4]
  40875e:	f7ff fab7 	bl	407cd0 <memmove>
  408762:	9b01      	ldr	r3, [sp, #4]
  408764:	e759      	b.n	40861a <_realloc_r+0x266>
  408766:	68b1      	ldr	r1, [r6, #8]
  408768:	f8ca 1010 	str.w	r1, [sl, #16]
  40876c:	68f1      	ldr	r1, [r6, #12]
  40876e:	f8ca 1014 	str.w	r1, [sl, #20]
  408772:	2a24      	cmp	r2, #36	; 0x24
  408774:	d003      	beq.n	40877e <_realloc_r+0x3ca>
  408776:	3610      	adds	r6, #16
  408778:	f10a 0218 	add.w	r2, sl, #24
  40877c:	e747      	b.n	40860e <_realloc_r+0x25a>
  40877e:	6932      	ldr	r2, [r6, #16]
  408780:	f8ca 2018 	str.w	r2, [sl, #24]
  408784:	6972      	ldr	r2, [r6, #20]
  408786:	f8ca 201c 	str.w	r2, [sl, #28]
  40878a:	3618      	adds	r6, #24
  40878c:	f10a 0220 	add.w	r2, sl, #32
  408790:	e73d      	b.n	40860e <_realloc_r+0x25a>
  408792:	bf00      	nop

00408794 <__sread>:
  408794:	b510      	push	{r4, lr}
  408796:	460c      	mov	r4, r1
  408798:	f9b1 100e 	ldrsh.w	r1, [r1, #14]
  40879c:	f000 fa74 	bl	408c88 <_read_r>
  4087a0:	2800      	cmp	r0, #0
  4087a2:	db03      	blt.n	4087ac <__sread+0x18>
  4087a4:	6d23      	ldr	r3, [r4, #80]	; 0x50
  4087a6:	4403      	add	r3, r0
  4087a8:	6523      	str	r3, [r4, #80]	; 0x50
  4087aa:	bd10      	pop	{r4, pc}
  4087ac:	89a3      	ldrh	r3, [r4, #12]
  4087ae:	f423 5380 	bic.w	r3, r3, #4096	; 0x1000
  4087b2:	81a3      	strh	r3, [r4, #12]
  4087b4:	bd10      	pop	{r4, pc}
  4087b6:	bf00      	nop

004087b8 <__swrite>:
  4087b8:	e92d 41f0 	stmdb	sp!, {r4, r5, r6, r7, r8, lr}
  4087bc:	4616      	mov	r6, r2
  4087be:	f9b1 200c 	ldrsh.w	r2, [r1, #12]
  4087c2:	461f      	mov	r7, r3
  4087c4:	05d3      	lsls	r3, r2, #23
  4087c6:	460c      	mov	r4, r1
  4087c8:	4605      	mov	r5, r0
  4087ca:	d507      	bpl.n	4087dc <__swrite+0x24>
  4087cc:	2200      	movs	r2, #0
  4087ce:	2302      	movs	r3, #2
  4087d0:	f9b1 100e 	ldrsh.w	r1, [r1, #14]
  4087d4:	f000 fa42 	bl	408c5c <_lseek_r>
  4087d8:	f9b4 200c 	ldrsh.w	r2, [r4, #12]
  4087dc:	f9b4 100e 	ldrsh.w	r1, [r4, #14]
  4087e0:	f422 5280 	bic.w	r2, r2, #4096	; 0x1000
  4087e4:	81a2      	strh	r2, [r4, #12]
  4087e6:	463b      	mov	r3, r7
  4087e8:	4632      	mov	r2, r6
  4087ea:	4628      	mov	r0, r5
  4087ec:	e8bd 41f0 	ldmia.w	sp!, {r4, r5, r6, r7, r8, lr}
  4087f0:	f000 b922 	b.w	408a38 <_write_r>

004087f4 <__sseek>:
  4087f4:	b510      	push	{r4, lr}
  4087f6:	460c      	mov	r4, r1
  4087f8:	f9b1 100e 	ldrsh.w	r1, [r1, #14]
  4087fc:	f000 fa2e 	bl	408c5c <_lseek_r>
  408800:	89a3      	ldrh	r3, [r4, #12]
  408802:	1c42      	adds	r2, r0, #1
  408804:	bf0e      	itee	eq
  408806:	f423 5380 	biceq.w	r3, r3, #4096	; 0x1000
  40880a:	f443 5380 	orrne.w	r3, r3, #4096	; 0x1000
  40880e:	6520      	strne	r0, [r4, #80]	; 0x50
  408810:	81a3      	strh	r3, [r4, #12]
  408812:	bd10      	pop	{r4, pc}

00408814 <__sclose>:
  408814:	f9b1 100e 	ldrsh.w	r1, [r1, #14]
  408818:	f000 b9a6 	b.w	408b68 <_close_r>

0040881c <__ssprint_r>:
  40881c:	e92d 4ff0 	stmdb	sp!, {r4, r5, r6, r7, r8, r9, sl, fp, lr}
  408820:	6893      	ldr	r3, [r2, #8]
  408822:	b083      	sub	sp, #12
  408824:	4690      	mov	r8, r2
  408826:	2b00      	cmp	r3, #0
  408828:	d072      	beq.n	408910 <__ssprint_r+0xf4>
  40882a:	4683      	mov	fp, r0
  40882c:	f04f 0900 	mov.w	r9, #0
  408830:	6816      	ldr	r6, [r2, #0]
  408832:	6808      	ldr	r0, [r1, #0]
  408834:	688b      	ldr	r3, [r1, #8]
  408836:	460d      	mov	r5, r1
  408838:	464c      	mov	r4, r9
  40883a:	2c00      	cmp	r4, #0
  40883c:	d045      	beq.n	4088ca <__ssprint_r+0xae>
  40883e:	429c      	cmp	r4, r3
  408840:	461f      	mov	r7, r3
  408842:	469a      	mov	sl, r3
  408844:	d346      	bcc.n	4088d4 <__ssprint_r+0xb8>
  408846:	89ab      	ldrh	r3, [r5, #12]
  408848:	f413 6f90 	tst.w	r3, #1152	; 0x480
  40884c:	d02d      	beq.n	4088aa <__ssprint_r+0x8e>
  40884e:	696f      	ldr	r7, [r5, #20]
  408850:	6929      	ldr	r1, [r5, #16]
  408852:	eb07 0747 	add.w	r7, r7, r7, lsl #1
  408856:	ebc1 0a00 	rsb	sl, r1, r0
  40885a:	eb07 77d7 	add.w	r7, r7, r7, lsr #31
  40885e:	1c60      	adds	r0, r4, #1
  408860:	107f      	asrs	r7, r7, #1
  408862:	4450      	add	r0, sl
  408864:	42b8      	cmp	r0, r7
  408866:	463a      	mov	r2, r7
  408868:	bf84      	itt	hi
  40886a:	4607      	movhi	r7, r0
  40886c:	463a      	movhi	r2, r7
  40886e:	055b      	lsls	r3, r3, #21
  408870:	d533      	bpl.n	4088da <__ssprint_r+0xbe>
  408872:	4611      	mov	r1, r2
  408874:	4658      	mov	r0, fp
  408876:	f7fa fc1f 	bl	4030b8 <_malloc_r>
  40887a:	2800      	cmp	r0, #0
  40887c:	d037      	beq.n	4088ee <__ssprint_r+0xd2>
  40887e:	4652      	mov	r2, sl
  408880:	6929      	ldr	r1, [r5, #16]
  408882:	9001      	str	r0, [sp, #4]
  408884:	f7fa fed0 	bl	403628 <memcpy>
  408888:	89aa      	ldrh	r2, [r5, #12]
  40888a:	9b01      	ldr	r3, [sp, #4]
  40888c:	f422 6290 	bic.w	r2, r2, #1152	; 0x480
  408890:	f042 0280 	orr.w	r2, r2, #128	; 0x80
  408894:	81aa      	strh	r2, [r5, #12]
  408896:	ebca 0207 	rsb	r2, sl, r7
  40889a:	eb03 000a 	add.w	r0, r3, sl
  40889e:	616f      	str	r7, [r5, #20]
  4088a0:	612b      	str	r3, [r5, #16]
  4088a2:	6028      	str	r0, [r5, #0]
  4088a4:	60aa      	str	r2, [r5, #8]
  4088a6:	4627      	mov	r7, r4
  4088a8:	46a2      	mov	sl, r4
  4088aa:	4652      	mov	r2, sl
  4088ac:	4649      	mov	r1, r9
  4088ae:	f7ff fa0f 	bl	407cd0 <memmove>
  4088b2:	f8d8 2008 	ldr.w	r2, [r8, #8]
  4088b6:	68ab      	ldr	r3, [r5, #8]
  4088b8:	6828      	ldr	r0, [r5, #0]
  4088ba:	1bdb      	subs	r3, r3, r7
  4088bc:	4450      	add	r0, sl
  4088be:	1b14      	subs	r4, r2, r4
  4088c0:	60ab      	str	r3, [r5, #8]
  4088c2:	6028      	str	r0, [r5, #0]
  4088c4:	f8c8 4008 	str.w	r4, [r8, #8]
  4088c8:	b314      	cbz	r4, 408910 <__ssprint_r+0xf4>
  4088ca:	f8d6 9000 	ldr.w	r9, [r6]
  4088ce:	6874      	ldr	r4, [r6, #4]
  4088d0:	3608      	adds	r6, #8
  4088d2:	e7b2      	b.n	40883a <__ssprint_r+0x1e>
  4088d4:	4627      	mov	r7, r4
  4088d6:	46a2      	mov	sl, r4
  4088d8:	e7e7      	b.n	4088aa <__ssprint_r+0x8e>
  4088da:	4658      	mov	r0, fp
  4088dc:	f7ff fd6a 	bl	4083b4 <_realloc_r>
  4088e0:	4603      	mov	r3, r0
  4088e2:	2800      	cmp	r0, #0
  4088e4:	d1d7      	bne.n	408896 <__ssprint_r+0x7a>
  4088e6:	6929      	ldr	r1, [r5, #16]
  4088e8:	4658      	mov	r0, fp
  4088ea:	f7fe fe8b 	bl	407604 <_free_r>
  4088ee:	230c      	movs	r3, #12
  4088f0:	f8cb 3000 	str.w	r3, [fp]
  4088f4:	89ab      	ldrh	r3, [r5, #12]
  4088f6:	2200      	movs	r2, #0
  4088f8:	f043 0340 	orr.w	r3, r3, #64	; 0x40
  4088fc:	f04f 30ff 	mov.w	r0, #4294967295
  408900:	81ab      	strh	r3, [r5, #12]
  408902:	f8c8 2008 	str.w	r2, [r8, #8]
  408906:	f8c8 2004 	str.w	r2, [r8, #4]
  40890a:	b003      	add	sp, #12
  40890c:	e8bd 8ff0 	ldmia.w	sp!, {r4, r5, r6, r7, r8, r9, sl, fp, pc}
  408910:	2000      	movs	r0, #0
  408912:	f8c8 0004 	str.w	r0, [r8, #4]
  408916:	b003      	add	sp, #12
  408918:	e8bd 8ff0 	ldmia.w	sp!, {r4, r5, r6, r7, r8, r9, sl, fp, pc}

0040891c <__swbuf_r>:
  40891c:	b5f8      	push	{r3, r4, r5, r6, r7, lr}
  40891e:	460e      	mov	r6, r1
  408920:	4614      	mov	r4, r2
  408922:	4607      	mov	r7, r0
  408924:	b110      	cbz	r0, 40892c <__swbuf_r+0x10>
  408926:	6b83      	ldr	r3, [r0, #56]	; 0x38
  408928:	2b00      	cmp	r3, #0
  40892a:	d04a      	beq.n	4089c2 <__swbuf_r+0xa6>
  40892c:	f9b4 200c 	ldrsh.w	r2, [r4, #12]
  408930:	69a3      	ldr	r3, [r4, #24]
  408932:	60a3      	str	r3, [r4, #8]
  408934:	b291      	uxth	r1, r2
  408936:	0708      	lsls	r0, r1, #28
  408938:	d538      	bpl.n	4089ac <__swbuf_r+0x90>
  40893a:	6923      	ldr	r3, [r4, #16]
  40893c:	2b00      	cmp	r3, #0
  40893e:	d035      	beq.n	4089ac <__swbuf_r+0x90>
  408940:	0489      	lsls	r1, r1, #18
  408942:	b2f5      	uxtb	r5, r6
  408944:	d515      	bpl.n	408972 <__swbuf_r+0x56>
  408946:	6822      	ldr	r2, [r4, #0]
  408948:	6961      	ldr	r1, [r4, #20]
  40894a:	1ad3      	subs	r3, r2, r3
  40894c:	428b      	cmp	r3, r1
  40894e:	da1c      	bge.n	40898a <__swbuf_r+0x6e>
  408950:	3301      	adds	r3, #1
  408952:	68a1      	ldr	r1, [r4, #8]
  408954:	1c50      	adds	r0, r2, #1
  408956:	3901      	subs	r1, #1
  408958:	60a1      	str	r1, [r4, #8]
  40895a:	6020      	str	r0, [r4, #0]
  40895c:	7016      	strb	r6, [r2, #0]
  40895e:	6962      	ldr	r2, [r4, #20]
  408960:	429a      	cmp	r2, r3
  408962:	d01a      	beq.n	40899a <__swbuf_r+0x7e>
  408964:	89a3      	ldrh	r3, [r4, #12]
  408966:	07db      	lsls	r3, r3, #31
  408968:	d501      	bpl.n	40896e <__swbuf_r+0x52>
  40896a:	2d0a      	cmp	r5, #10
  40896c:	d015      	beq.n	40899a <__swbuf_r+0x7e>
  40896e:	4628      	mov	r0, r5
  408970:	bdf8      	pop	{r3, r4, r5, r6, r7, pc}
  408972:	6e61      	ldr	r1, [r4, #100]	; 0x64
  408974:	f442 5200 	orr.w	r2, r2, #8192	; 0x2000
  408978:	f421 5100 	bic.w	r1, r1, #8192	; 0x2000
  40897c:	81a2      	strh	r2, [r4, #12]
  40897e:	6822      	ldr	r2, [r4, #0]
  408980:	6661      	str	r1, [r4, #100]	; 0x64
  408982:	6961      	ldr	r1, [r4, #20]
  408984:	1ad3      	subs	r3, r2, r3
  408986:	428b      	cmp	r3, r1
  408988:	dbe2      	blt.n	408950 <__swbuf_r+0x34>
  40898a:	4621      	mov	r1, r4
  40898c:	4638      	mov	r0, r7
  40898e:	f7fe fcdb 	bl	407348 <_fflush_r>
  408992:	b940      	cbnz	r0, 4089a6 <__swbuf_r+0x8a>
  408994:	6822      	ldr	r2, [r4, #0]
  408996:	2301      	movs	r3, #1
  408998:	e7db      	b.n	408952 <__swbuf_r+0x36>
  40899a:	4621      	mov	r1, r4
  40899c:	4638      	mov	r0, r7
  40899e:	f7fe fcd3 	bl	407348 <_fflush_r>
  4089a2:	2800      	cmp	r0, #0
  4089a4:	d0e3      	beq.n	40896e <__swbuf_r+0x52>
  4089a6:	f04f 30ff 	mov.w	r0, #4294967295
  4089aa:	bdf8      	pop	{r3, r4, r5, r6, r7, pc}
  4089ac:	4621      	mov	r1, r4
  4089ae:	4638      	mov	r0, r7
  4089b0:	f7fd fbf2 	bl	406198 <__swsetup_r>
  4089b4:	2800      	cmp	r0, #0
  4089b6:	d1f6      	bne.n	4089a6 <__swbuf_r+0x8a>
  4089b8:	f9b4 200c 	ldrsh.w	r2, [r4, #12]
  4089bc:	6923      	ldr	r3, [r4, #16]
  4089be:	b291      	uxth	r1, r2
  4089c0:	e7be      	b.n	408940 <__swbuf_r+0x24>
  4089c2:	f7fe fd55 	bl	407470 <__sinit>
  4089c6:	e7b1      	b.n	40892c <__swbuf_r+0x10>

004089c8 <_wcrtomb_r>:
  4089c8:	e92d 41f0 	stmdb	sp!, {r4, r5, r6, r7, r8, lr}
  4089cc:	4605      	mov	r5, r0
  4089ce:	b086      	sub	sp, #24
  4089d0:	461e      	mov	r6, r3
  4089d2:	460c      	mov	r4, r1
  4089d4:	b1a1      	cbz	r1, 408a00 <_wcrtomb_r+0x38>
  4089d6:	4b10      	ldr	r3, [pc, #64]	; (408a18 <_wcrtomb_r+0x50>)
  4089d8:	4617      	mov	r7, r2
  4089da:	f8d3 8000 	ldr.w	r8, [r3]
  4089de:	f7ff f8a5 	bl	407b2c <__locale_charset>
  4089e2:	9600      	str	r6, [sp, #0]
  4089e4:	4603      	mov	r3, r0
  4089e6:	463a      	mov	r2, r7
  4089e8:	4621      	mov	r1, r4
  4089ea:	4628      	mov	r0, r5
  4089ec:	47c0      	blx	r8
  4089ee:	1c43      	adds	r3, r0, #1
  4089f0:	d103      	bne.n	4089fa <_wcrtomb_r+0x32>
  4089f2:	2200      	movs	r2, #0
  4089f4:	238a      	movs	r3, #138	; 0x8a
  4089f6:	6032      	str	r2, [r6, #0]
  4089f8:	602b      	str	r3, [r5, #0]
  4089fa:	b006      	add	sp, #24
  4089fc:	e8bd 81f0 	ldmia.w	sp!, {r4, r5, r6, r7, r8, pc}
  408a00:	4b05      	ldr	r3, [pc, #20]	; (408a18 <_wcrtomb_r+0x50>)
  408a02:	681f      	ldr	r7, [r3, #0]
  408a04:	f7ff f892 	bl	407b2c <__locale_charset>
  408a08:	9600      	str	r6, [sp, #0]
  408a0a:	4603      	mov	r3, r0
  408a0c:	4622      	mov	r2, r4
  408a0e:	a903      	add	r1, sp, #12
  408a10:	4628      	mov	r0, r5
  408a12:	47b8      	blx	r7
  408a14:	e7eb      	b.n	4089ee <_wcrtomb_r+0x26>
  408a16:	bf00      	nop
  408a18:	204008a8 	.word	0x204008a8

00408a1c <__ascii_wctomb>:
  408a1c:	b121      	cbz	r1, 408a28 <__ascii_wctomb+0xc>
  408a1e:	2aff      	cmp	r2, #255	; 0xff
  408a20:	d804      	bhi.n	408a2c <__ascii_wctomb+0x10>
  408a22:	700a      	strb	r2, [r1, #0]
  408a24:	2001      	movs	r0, #1
  408a26:	4770      	bx	lr
  408a28:	4608      	mov	r0, r1
  408a2a:	4770      	bx	lr
  408a2c:	238a      	movs	r3, #138	; 0x8a
  408a2e:	6003      	str	r3, [r0, #0]
  408a30:	f04f 30ff 	mov.w	r0, #4294967295
  408a34:	4770      	bx	lr
  408a36:	bf00      	nop

00408a38 <_write_r>:
  408a38:	b570      	push	{r4, r5, r6, lr}
  408a3a:	460d      	mov	r5, r1
  408a3c:	4c08      	ldr	r4, [pc, #32]	; (408a60 <_write_r+0x28>)
  408a3e:	4611      	mov	r1, r2
  408a40:	4606      	mov	r6, r0
  408a42:	461a      	mov	r2, r3
  408a44:	4628      	mov	r0, r5
  408a46:	2300      	movs	r3, #0
  408a48:	6023      	str	r3, [r4, #0]
  408a4a:	f7f7 fbfd 	bl	400248 <_write>
  408a4e:	1c43      	adds	r3, r0, #1
  408a50:	d000      	beq.n	408a54 <_write_r+0x1c>
  408a52:	bd70      	pop	{r4, r5, r6, pc}
  408a54:	6823      	ldr	r3, [r4, #0]
  408a56:	2b00      	cmp	r3, #0
  408a58:	d0fb      	beq.n	408a52 <_write_r+0x1a>
  408a5a:	6033      	str	r3, [r6, #0]
  408a5c:	bd70      	pop	{r4, r5, r6, pc}
  408a5e:	bf00      	nop
  408a60:	20400c14 	.word	0x20400c14

00408a64 <__register_exitproc>:
  408a64:	e92d 47f0 	stmdb	sp!, {r4, r5, r6, r7, r8, r9, sl, lr}
  408a68:	4c25      	ldr	r4, [pc, #148]	; (408b00 <__register_exitproc+0x9c>)
  408a6a:	6825      	ldr	r5, [r4, #0]
  408a6c:	f8d5 4148 	ldr.w	r4, [r5, #328]	; 0x148
  408a70:	4606      	mov	r6, r0
  408a72:	4688      	mov	r8, r1
  408a74:	4692      	mov	sl, r2
  408a76:	4699      	mov	r9, r3
  408a78:	b3c4      	cbz	r4, 408aec <__register_exitproc+0x88>
  408a7a:	6860      	ldr	r0, [r4, #4]
  408a7c:	281f      	cmp	r0, #31
  408a7e:	dc17      	bgt.n	408ab0 <__register_exitproc+0x4c>
  408a80:	1c43      	adds	r3, r0, #1
  408a82:	b176      	cbz	r6, 408aa2 <__register_exitproc+0x3e>
  408a84:	eb04 0580 	add.w	r5, r4, r0, lsl #2
  408a88:	2201      	movs	r2, #1
  408a8a:	f8c5 a088 	str.w	sl, [r5, #136]	; 0x88
  408a8e:	f8d4 1188 	ldr.w	r1, [r4, #392]	; 0x188
  408a92:	4082      	lsls	r2, r0
  408a94:	4311      	orrs	r1, r2
  408a96:	2e02      	cmp	r6, #2
  408a98:	f8c4 1188 	str.w	r1, [r4, #392]	; 0x188
  408a9c:	f8c5 9108 	str.w	r9, [r5, #264]	; 0x108
  408aa0:	d01e      	beq.n	408ae0 <__register_exitproc+0x7c>
  408aa2:	3002      	adds	r0, #2
  408aa4:	6063      	str	r3, [r4, #4]
  408aa6:	f844 8020 	str.w	r8, [r4, r0, lsl #2]
  408aaa:	2000      	movs	r0, #0
  408aac:	e8bd 87f0 	ldmia.w	sp!, {r4, r5, r6, r7, r8, r9, sl, pc}
  408ab0:	4b14      	ldr	r3, [pc, #80]	; (408b04 <__register_exitproc+0xa0>)
  408ab2:	b303      	cbz	r3, 408af6 <__register_exitproc+0x92>
  408ab4:	f44f 70c8 	mov.w	r0, #400	; 0x190
  408ab8:	f7fa faee 	bl	403098 <malloc>
  408abc:	4604      	mov	r4, r0
  408abe:	b1d0      	cbz	r0, 408af6 <__register_exitproc+0x92>
  408ac0:	f8d5 3148 	ldr.w	r3, [r5, #328]	; 0x148
  408ac4:	2700      	movs	r7, #0
  408ac6:	e880 0088 	stmia.w	r0, {r3, r7}
  408aca:	f8c5 4148 	str.w	r4, [r5, #328]	; 0x148
  408ace:	4638      	mov	r0, r7
  408ad0:	2301      	movs	r3, #1
  408ad2:	f8c4 7188 	str.w	r7, [r4, #392]	; 0x188
  408ad6:	f8c4 718c 	str.w	r7, [r4, #396]	; 0x18c
  408ada:	2e00      	cmp	r6, #0
  408adc:	d0e1      	beq.n	408aa2 <__register_exitproc+0x3e>
  408ade:	e7d1      	b.n	408a84 <__register_exitproc+0x20>
  408ae0:	f8d4 118c 	ldr.w	r1, [r4, #396]	; 0x18c
  408ae4:	430a      	orrs	r2, r1
  408ae6:	f8c4 218c 	str.w	r2, [r4, #396]	; 0x18c
  408aea:	e7da      	b.n	408aa2 <__register_exitproc+0x3e>
  408aec:	f505 74a6 	add.w	r4, r5, #332	; 0x14c
  408af0:	f8c5 4148 	str.w	r4, [r5, #328]	; 0x148
  408af4:	e7c1      	b.n	408a7a <__register_exitproc+0x16>
  408af6:	f04f 30ff 	mov.w	r0, #4294967295
  408afa:	e8bd 87f0 	ldmia.w	sp!, {r4, r5, r6, r7, r8, r9, sl, pc}
  408afe:	bf00      	nop
  408b00:	00409a14 	.word	0x00409a14
  408b04:	00403099 	.word	0x00403099

00408b08 <_calloc_r>:
  408b08:	b510      	push	{r4, lr}
  408b0a:	fb02 f101 	mul.w	r1, r2, r1
  408b0e:	f7fa fad3 	bl	4030b8 <_malloc_r>
  408b12:	4604      	mov	r4, r0
  408b14:	b1d8      	cbz	r0, 408b4e <_calloc_r+0x46>
  408b16:	f850 2c04 	ldr.w	r2, [r0, #-4]
  408b1a:	f022 0203 	bic.w	r2, r2, #3
  408b1e:	3a04      	subs	r2, #4
  408b20:	2a24      	cmp	r2, #36	; 0x24
  408b22:	d818      	bhi.n	408b56 <_calloc_r+0x4e>
  408b24:	2a13      	cmp	r2, #19
  408b26:	d914      	bls.n	408b52 <_calloc_r+0x4a>
  408b28:	2300      	movs	r3, #0
  408b2a:	2a1b      	cmp	r2, #27
  408b2c:	6003      	str	r3, [r0, #0]
  408b2e:	6043      	str	r3, [r0, #4]
  408b30:	d916      	bls.n	408b60 <_calloc_r+0x58>
  408b32:	2a24      	cmp	r2, #36	; 0x24
  408b34:	6083      	str	r3, [r0, #8]
  408b36:	60c3      	str	r3, [r0, #12]
  408b38:	bf11      	iteee	ne
  408b3a:	f100 0210 	addne.w	r2, r0, #16
  408b3e:	6103      	streq	r3, [r0, #16]
  408b40:	6143      	streq	r3, [r0, #20]
  408b42:	f100 0218 	addeq.w	r2, r0, #24
  408b46:	2300      	movs	r3, #0
  408b48:	6013      	str	r3, [r2, #0]
  408b4a:	6053      	str	r3, [r2, #4]
  408b4c:	6093      	str	r3, [r2, #8]
  408b4e:	4620      	mov	r0, r4
  408b50:	bd10      	pop	{r4, pc}
  408b52:	4602      	mov	r2, r0
  408b54:	e7f7      	b.n	408b46 <_calloc_r+0x3e>
  408b56:	2100      	movs	r1, #0
  408b58:	f7fa fe00 	bl	40375c <memset>
  408b5c:	4620      	mov	r0, r4
  408b5e:	bd10      	pop	{r4, pc}
  408b60:	f100 0208 	add.w	r2, r0, #8
  408b64:	e7ef      	b.n	408b46 <_calloc_r+0x3e>
  408b66:	bf00      	nop

00408b68 <_close_r>:
  408b68:	b538      	push	{r3, r4, r5, lr}
  408b6a:	4c07      	ldr	r4, [pc, #28]	; (408b88 <_close_r+0x20>)
  408b6c:	2300      	movs	r3, #0
  408b6e:	4605      	mov	r5, r0
  408b70:	4608      	mov	r0, r1
  408b72:	6023      	str	r3, [r4, #0]
  408b74:	f7f7 ffa4 	bl	400ac0 <_close>
  408b78:	1c43      	adds	r3, r0, #1
  408b7a:	d000      	beq.n	408b7e <_close_r+0x16>
  408b7c:	bd38      	pop	{r3, r4, r5, pc}
  408b7e:	6823      	ldr	r3, [r4, #0]
  408b80:	2b00      	cmp	r3, #0
  408b82:	d0fb      	beq.n	408b7c <_close_r+0x14>
  408b84:	602b      	str	r3, [r5, #0]
  408b86:	bd38      	pop	{r3, r4, r5, pc}
  408b88:	20400c14 	.word	0x20400c14

00408b8c <_fclose_r>:
  408b8c:	2900      	cmp	r1, #0
  408b8e:	d03d      	beq.n	408c0c <_fclose_r+0x80>
  408b90:	b570      	push	{r4, r5, r6, lr}
  408b92:	4605      	mov	r5, r0
  408b94:	460c      	mov	r4, r1
  408b96:	b108      	cbz	r0, 408b9c <_fclose_r+0x10>
  408b98:	6b83      	ldr	r3, [r0, #56]	; 0x38
  408b9a:	b37b      	cbz	r3, 408bfc <_fclose_r+0x70>
  408b9c:	f9b4 300c 	ldrsh.w	r3, [r4, #12]
  408ba0:	b90b      	cbnz	r3, 408ba6 <_fclose_r+0x1a>
  408ba2:	2000      	movs	r0, #0
  408ba4:	bd70      	pop	{r4, r5, r6, pc}
  408ba6:	4621      	mov	r1, r4
  408ba8:	4628      	mov	r0, r5
  408baa:	f7fe fb29 	bl	407200 <__sflush_r>
  408bae:	6ae3      	ldr	r3, [r4, #44]	; 0x2c
  408bb0:	4606      	mov	r6, r0
  408bb2:	b133      	cbz	r3, 408bc2 <_fclose_r+0x36>
  408bb4:	69e1      	ldr	r1, [r4, #28]
  408bb6:	4628      	mov	r0, r5
  408bb8:	4798      	blx	r3
  408bba:	2800      	cmp	r0, #0
  408bbc:	bfb8      	it	lt
  408bbe:	f04f 36ff 	movlt.w	r6, #4294967295
  408bc2:	89a3      	ldrh	r3, [r4, #12]
  408bc4:	061b      	lsls	r3, r3, #24
  408bc6:	d41c      	bmi.n	408c02 <_fclose_r+0x76>
  408bc8:	6b21      	ldr	r1, [r4, #48]	; 0x30
  408bca:	b141      	cbz	r1, 408bde <_fclose_r+0x52>
  408bcc:	f104 0340 	add.w	r3, r4, #64	; 0x40
  408bd0:	4299      	cmp	r1, r3
  408bd2:	d002      	beq.n	408bda <_fclose_r+0x4e>
  408bd4:	4628      	mov	r0, r5
  408bd6:	f7fe fd15 	bl	407604 <_free_r>
  408bda:	2300      	movs	r3, #0
  408bdc:	6323      	str	r3, [r4, #48]	; 0x30
  408bde:	6c61      	ldr	r1, [r4, #68]	; 0x44
  408be0:	b121      	cbz	r1, 408bec <_fclose_r+0x60>
  408be2:	4628      	mov	r0, r5
  408be4:	f7fe fd0e 	bl	407604 <_free_r>
  408be8:	2300      	movs	r3, #0
  408bea:	6463      	str	r3, [r4, #68]	; 0x44
  408bec:	f7fe fc46 	bl	40747c <__sfp_lock_acquire>
  408bf0:	2300      	movs	r3, #0
  408bf2:	81a3      	strh	r3, [r4, #12]
  408bf4:	f7fe fc44 	bl	407480 <__sfp_lock_release>
  408bf8:	4630      	mov	r0, r6
  408bfa:	bd70      	pop	{r4, r5, r6, pc}
  408bfc:	f7fe fc38 	bl	407470 <__sinit>
  408c00:	e7cc      	b.n	408b9c <_fclose_r+0x10>
  408c02:	6921      	ldr	r1, [r4, #16]
  408c04:	4628      	mov	r0, r5
  408c06:	f7fe fcfd 	bl	407604 <_free_r>
  408c0a:	e7dd      	b.n	408bc8 <_fclose_r+0x3c>
  408c0c:	2000      	movs	r0, #0
  408c0e:	4770      	bx	lr

00408c10 <_fstat_r>:
  408c10:	b538      	push	{r3, r4, r5, lr}
  408c12:	460b      	mov	r3, r1
  408c14:	4c07      	ldr	r4, [pc, #28]	; (408c34 <_fstat_r+0x24>)
  408c16:	4605      	mov	r5, r0
  408c18:	4611      	mov	r1, r2
  408c1a:	4618      	mov	r0, r3
  408c1c:	2300      	movs	r3, #0
  408c1e:	6023      	str	r3, [r4, #0]
  408c20:	f7f7 ff52 	bl	400ac8 <_fstat>
  408c24:	1c43      	adds	r3, r0, #1
  408c26:	d000      	beq.n	408c2a <_fstat_r+0x1a>
  408c28:	bd38      	pop	{r3, r4, r5, pc}
  408c2a:	6823      	ldr	r3, [r4, #0]
  408c2c:	2b00      	cmp	r3, #0
  408c2e:	d0fb      	beq.n	408c28 <_fstat_r+0x18>
  408c30:	602b      	str	r3, [r5, #0]
  408c32:	bd38      	pop	{r3, r4, r5, pc}
  408c34:	20400c14 	.word	0x20400c14

00408c38 <_isatty_r>:
  408c38:	b538      	push	{r3, r4, r5, lr}
  408c3a:	4c07      	ldr	r4, [pc, #28]	; (408c58 <_isatty_r+0x20>)
  408c3c:	2300      	movs	r3, #0
  408c3e:	4605      	mov	r5, r0
  408c40:	4608      	mov	r0, r1
  408c42:	6023      	str	r3, [r4, #0]
  408c44:	f7f7 ff46 	bl	400ad4 <_isatty>
  408c48:	1c43      	adds	r3, r0, #1
  408c4a:	d000      	beq.n	408c4e <_isatty_r+0x16>
  408c4c:	bd38      	pop	{r3, r4, r5, pc}
  408c4e:	6823      	ldr	r3, [r4, #0]
  408c50:	2b00      	cmp	r3, #0
  408c52:	d0fb      	beq.n	408c4c <_isatty_r+0x14>
  408c54:	602b      	str	r3, [r5, #0]
  408c56:	bd38      	pop	{r3, r4, r5, pc}
  408c58:	20400c14 	.word	0x20400c14

00408c5c <_lseek_r>:
  408c5c:	b570      	push	{r4, r5, r6, lr}
  408c5e:	460d      	mov	r5, r1
  408c60:	4c08      	ldr	r4, [pc, #32]	; (408c84 <_lseek_r+0x28>)
  408c62:	4611      	mov	r1, r2
  408c64:	4606      	mov	r6, r0
  408c66:	461a      	mov	r2, r3
  408c68:	4628      	mov	r0, r5
  408c6a:	2300      	movs	r3, #0
  408c6c:	6023      	str	r3, [r4, #0]
  408c6e:	f7f7 ff33 	bl	400ad8 <_lseek>
  408c72:	1c43      	adds	r3, r0, #1
  408c74:	d000      	beq.n	408c78 <_lseek_r+0x1c>
  408c76:	bd70      	pop	{r4, r5, r6, pc}
  408c78:	6823      	ldr	r3, [r4, #0]
  408c7a:	2b00      	cmp	r3, #0
  408c7c:	d0fb      	beq.n	408c76 <_lseek_r+0x1a>
  408c7e:	6033      	str	r3, [r6, #0]
  408c80:	bd70      	pop	{r4, r5, r6, pc}
  408c82:	bf00      	nop
  408c84:	20400c14 	.word	0x20400c14

00408c88 <_read_r>:
  408c88:	b570      	push	{r4, r5, r6, lr}
  408c8a:	460d      	mov	r5, r1
  408c8c:	4c08      	ldr	r4, [pc, #32]	; (408cb0 <_read_r+0x28>)
  408c8e:	4611      	mov	r1, r2
  408c90:	4606      	mov	r6, r0
  408c92:	461a      	mov	r2, r3
  408c94:	4628      	mov	r0, r5
  408c96:	2300      	movs	r3, #0
  408c98:	6023      	str	r3, [r4, #0]
  408c9a:	f7f7 fab7 	bl	40020c <_read>
  408c9e:	1c43      	adds	r3, r0, #1
  408ca0:	d000      	beq.n	408ca4 <_read_r+0x1c>
  408ca2:	bd70      	pop	{r4, r5, r6, pc}
  408ca4:	6823      	ldr	r3, [r4, #0]
  408ca6:	2b00      	cmp	r3, #0
  408ca8:	d0fb      	beq.n	408ca2 <_read_r+0x1a>
  408caa:	6033      	str	r3, [r6, #0]
  408cac:	bd70      	pop	{r4, r5, r6, pc}
  408cae:	bf00      	nop
  408cb0:	20400c14 	.word	0x20400c14

00408cb4 <__aeabi_drsub>:
  408cb4:	f081 4100 	eor.w	r1, r1, #2147483648	; 0x80000000
  408cb8:	e002      	b.n	408cc0 <__adddf3>
  408cba:	bf00      	nop

00408cbc <__aeabi_dsub>:
  408cbc:	f083 4300 	eor.w	r3, r3, #2147483648	; 0x80000000

00408cc0 <__adddf3>:
  408cc0:	b530      	push	{r4, r5, lr}
  408cc2:	ea4f 0441 	mov.w	r4, r1, lsl #1
  408cc6:	ea4f 0543 	mov.w	r5, r3, lsl #1
  408cca:	ea94 0f05 	teq	r4, r5
  408cce:	bf08      	it	eq
  408cd0:	ea90 0f02 	teqeq	r0, r2
  408cd4:	bf1f      	itttt	ne
  408cd6:	ea54 0c00 	orrsne.w	ip, r4, r0
  408cda:	ea55 0c02 	orrsne.w	ip, r5, r2
  408cde:	ea7f 5c64 	mvnsne.w	ip, r4, asr #21
  408ce2:	ea7f 5c65 	mvnsne.w	ip, r5, asr #21
  408ce6:	f000 80e2 	beq.w	408eae <__adddf3+0x1ee>
  408cea:	ea4f 5454 	mov.w	r4, r4, lsr #21
  408cee:	ebd4 5555 	rsbs	r5, r4, r5, lsr #21
  408cf2:	bfb8      	it	lt
  408cf4:	426d      	neglt	r5, r5
  408cf6:	dd0c      	ble.n	408d12 <__adddf3+0x52>
  408cf8:	442c      	add	r4, r5
  408cfa:	ea80 0202 	eor.w	r2, r0, r2
  408cfe:	ea81 0303 	eor.w	r3, r1, r3
  408d02:	ea82 0000 	eor.w	r0, r2, r0
  408d06:	ea83 0101 	eor.w	r1, r3, r1
  408d0a:	ea80 0202 	eor.w	r2, r0, r2
  408d0e:	ea81 0303 	eor.w	r3, r1, r3
  408d12:	2d36      	cmp	r5, #54	; 0x36
  408d14:	bf88      	it	hi
  408d16:	bd30      	pophi	{r4, r5, pc}
  408d18:	f011 4f00 	tst.w	r1, #2147483648	; 0x80000000
  408d1c:	ea4f 3101 	mov.w	r1, r1, lsl #12
  408d20:	f44f 1c80 	mov.w	ip, #1048576	; 0x100000
  408d24:	ea4c 3111 	orr.w	r1, ip, r1, lsr #12
  408d28:	d002      	beq.n	408d30 <__adddf3+0x70>
  408d2a:	4240      	negs	r0, r0
  408d2c:	eb61 0141 	sbc.w	r1, r1, r1, lsl #1
  408d30:	f013 4f00 	tst.w	r3, #2147483648	; 0x80000000
  408d34:	ea4f 3303 	mov.w	r3, r3, lsl #12
  408d38:	ea4c 3313 	orr.w	r3, ip, r3, lsr #12
  408d3c:	d002      	beq.n	408d44 <__adddf3+0x84>
  408d3e:	4252      	negs	r2, r2
  408d40:	eb63 0343 	sbc.w	r3, r3, r3, lsl #1
  408d44:	ea94 0f05 	teq	r4, r5
  408d48:	f000 80a7 	beq.w	408e9a <__adddf3+0x1da>
  408d4c:	f1a4 0401 	sub.w	r4, r4, #1
  408d50:	f1d5 0e20 	rsbs	lr, r5, #32
  408d54:	db0d      	blt.n	408d72 <__adddf3+0xb2>
  408d56:	fa02 fc0e 	lsl.w	ip, r2, lr
  408d5a:	fa22 f205 	lsr.w	r2, r2, r5
  408d5e:	1880      	adds	r0, r0, r2
  408d60:	f141 0100 	adc.w	r1, r1, #0
  408d64:	fa03 f20e 	lsl.w	r2, r3, lr
  408d68:	1880      	adds	r0, r0, r2
  408d6a:	fa43 f305 	asr.w	r3, r3, r5
  408d6e:	4159      	adcs	r1, r3
  408d70:	e00e      	b.n	408d90 <__adddf3+0xd0>
  408d72:	f1a5 0520 	sub.w	r5, r5, #32
  408d76:	f10e 0e20 	add.w	lr, lr, #32
  408d7a:	2a01      	cmp	r2, #1
  408d7c:	fa03 fc0e 	lsl.w	ip, r3, lr
  408d80:	bf28      	it	cs
  408d82:	f04c 0c02 	orrcs.w	ip, ip, #2
  408d86:	fa43 f305 	asr.w	r3, r3, r5
  408d8a:	18c0      	adds	r0, r0, r3
  408d8c:	eb51 71e3 	adcs.w	r1, r1, r3, asr #31
  408d90:	f001 4500 	and.w	r5, r1, #2147483648	; 0x80000000
  408d94:	d507      	bpl.n	408da6 <__adddf3+0xe6>
  408d96:	f04f 0e00 	mov.w	lr, #0
  408d9a:	f1dc 0c00 	rsbs	ip, ip, #0
  408d9e:	eb7e 0000 	sbcs.w	r0, lr, r0
  408da2:	eb6e 0101 	sbc.w	r1, lr, r1
  408da6:	f5b1 1f80 	cmp.w	r1, #1048576	; 0x100000
  408daa:	d31b      	bcc.n	408de4 <__adddf3+0x124>
  408dac:	f5b1 1f00 	cmp.w	r1, #2097152	; 0x200000
  408db0:	d30c      	bcc.n	408dcc <__adddf3+0x10c>
  408db2:	0849      	lsrs	r1, r1, #1
  408db4:	ea5f 0030 	movs.w	r0, r0, rrx
  408db8:	ea4f 0c3c 	mov.w	ip, ip, rrx
  408dbc:	f104 0401 	add.w	r4, r4, #1
  408dc0:	ea4f 5244 	mov.w	r2, r4, lsl #21
  408dc4:	f512 0f80 	cmn.w	r2, #4194304	; 0x400000
  408dc8:	f080 809a 	bcs.w	408f00 <__adddf3+0x240>
  408dcc:	f1bc 4f00 	cmp.w	ip, #2147483648	; 0x80000000
  408dd0:	bf08      	it	eq
  408dd2:	ea5f 0c50 	movseq.w	ip, r0, lsr #1
  408dd6:	f150 0000 	adcs.w	r0, r0, #0
  408dda:	eb41 5104 	adc.w	r1, r1, r4, lsl #20
  408dde:	ea41 0105 	orr.w	r1, r1, r5
  408de2:	bd30      	pop	{r4, r5, pc}
  408de4:	ea5f 0c4c 	movs.w	ip, ip, lsl #1
  408de8:	4140      	adcs	r0, r0
  408dea:	eb41 0101 	adc.w	r1, r1, r1
  408dee:	f411 1f80 	tst.w	r1, #1048576	; 0x100000
  408df2:	f1a4 0401 	sub.w	r4, r4, #1
  408df6:	d1e9      	bne.n	408dcc <__adddf3+0x10c>
  408df8:	f091 0f00 	teq	r1, #0
  408dfc:	bf04      	itt	eq
  408dfe:	4601      	moveq	r1, r0
  408e00:	2000      	moveq	r0, #0
  408e02:	fab1 f381 	clz	r3, r1
  408e06:	bf08      	it	eq
  408e08:	3320      	addeq	r3, #32
  408e0a:	f1a3 030b 	sub.w	r3, r3, #11
  408e0e:	f1b3 0220 	subs.w	r2, r3, #32
  408e12:	da0c      	bge.n	408e2e <__adddf3+0x16e>
  408e14:	320c      	adds	r2, #12
  408e16:	dd08      	ble.n	408e2a <__adddf3+0x16a>
  408e18:	f102 0c14 	add.w	ip, r2, #20
  408e1c:	f1c2 020c 	rsb	r2, r2, #12
  408e20:	fa01 f00c 	lsl.w	r0, r1, ip
  408e24:	fa21 f102 	lsr.w	r1, r1, r2
  408e28:	e00c      	b.n	408e44 <__adddf3+0x184>
  408e2a:	f102 0214 	add.w	r2, r2, #20
  408e2e:	bfd8      	it	le
  408e30:	f1c2 0c20 	rsble	ip, r2, #32
  408e34:	fa01 f102 	lsl.w	r1, r1, r2
  408e38:	fa20 fc0c 	lsr.w	ip, r0, ip
  408e3c:	bfdc      	itt	le
  408e3e:	ea41 010c 	orrle.w	r1, r1, ip
  408e42:	4090      	lslle	r0, r2
  408e44:	1ae4      	subs	r4, r4, r3
  408e46:	bfa2      	ittt	ge
  408e48:	eb01 5104 	addge.w	r1, r1, r4, lsl #20
  408e4c:	4329      	orrge	r1, r5
  408e4e:	bd30      	popge	{r4, r5, pc}
  408e50:	ea6f 0404 	mvn.w	r4, r4
  408e54:	3c1f      	subs	r4, #31
  408e56:	da1c      	bge.n	408e92 <__adddf3+0x1d2>
  408e58:	340c      	adds	r4, #12
  408e5a:	dc0e      	bgt.n	408e7a <__adddf3+0x1ba>
  408e5c:	f104 0414 	add.w	r4, r4, #20
  408e60:	f1c4 0220 	rsb	r2, r4, #32
  408e64:	fa20 f004 	lsr.w	r0, r0, r4
  408e68:	fa01 f302 	lsl.w	r3, r1, r2
  408e6c:	ea40 0003 	orr.w	r0, r0, r3
  408e70:	fa21 f304 	lsr.w	r3, r1, r4
  408e74:	ea45 0103 	orr.w	r1, r5, r3
  408e78:	bd30      	pop	{r4, r5, pc}
  408e7a:	f1c4 040c 	rsb	r4, r4, #12
  408e7e:	f1c4 0220 	rsb	r2, r4, #32
  408e82:	fa20 f002 	lsr.w	r0, r0, r2
  408e86:	fa01 f304 	lsl.w	r3, r1, r4
  408e8a:	ea40 0003 	orr.w	r0, r0, r3
  408e8e:	4629      	mov	r1, r5
  408e90:	bd30      	pop	{r4, r5, pc}
  408e92:	fa21 f004 	lsr.w	r0, r1, r4
  408e96:	4629      	mov	r1, r5
  408e98:	bd30      	pop	{r4, r5, pc}
  408e9a:	f094 0f00 	teq	r4, #0
  408e9e:	f483 1380 	eor.w	r3, r3, #1048576	; 0x100000
  408ea2:	bf06      	itte	eq
  408ea4:	f481 1180 	eoreq.w	r1, r1, #1048576	; 0x100000
  408ea8:	3401      	addeq	r4, #1
  408eaa:	3d01      	subne	r5, #1
  408eac:	e74e      	b.n	408d4c <__adddf3+0x8c>
  408eae:	ea7f 5c64 	mvns.w	ip, r4, asr #21
  408eb2:	bf18      	it	ne
  408eb4:	ea7f 5c65 	mvnsne.w	ip, r5, asr #21
  408eb8:	d029      	beq.n	408f0e <__adddf3+0x24e>
  408eba:	ea94 0f05 	teq	r4, r5
  408ebe:	bf08      	it	eq
  408ec0:	ea90 0f02 	teqeq	r0, r2
  408ec4:	d005      	beq.n	408ed2 <__adddf3+0x212>
  408ec6:	ea54 0c00 	orrs.w	ip, r4, r0
  408eca:	bf04      	itt	eq
  408ecc:	4619      	moveq	r1, r3
  408ece:	4610      	moveq	r0, r2
  408ed0:	bd30      	pop	{r4, r5, pc}
  408ed2:	ea91 0f03 	teq	r1, r3
  408ed6:	bf1e      	ittt	ne
  408ed8:	2100      	movne	r1, #0
  408eda:	2000      	movne	r0, #0
  408edc:	bd30      	popne	{r4, r5, pc}
  408ede:	ea5f 5c54 	movs.w	ip, r4, lsr #21
  408ee2:	d105      	bne.n	408ef0 <__adddf3+0x230>
  408ee4:	0040      	lsls	r0, r0, #1
  408ee6:	4149      	adcs	r1, r1
  408ee8:	bf28      	it	cs
  408eea:	f041 4100 	orrcs.w	r1, r1, #2147483648	; 0x80000000
  408eee:	bd30      	pop	{r4, r5, pc}
  408ef0:	f514 0480 	adds.w	r4, r4, #4194304	; 0x400000
  408ef4:	bf3c      	itt	cc
  408ef6:	f501 1180 	addcc.w	r1, r1, #1048576	; 0x100000
  408efa:	bd30      	popcc	{r4, r5, pc}
  408efc:	f001 4500 	and.w	r5, r1, #2147483648	; 0x80000000
  408f00:	f045 41fe 	orr.w	r1, r5, #2130706432	; 0x7f000000
  408f04:	f441 0170 	orr.w	r1, r1, #15728640	; 0xf00000
  408f08:	f04f 0000 	mov.w	r0, #0
  408f0c:	bd30      	pop	{r4, r5, pc}
  408f0e:	ea7f 5c64 	mvns.w	ip, r4, asr #21
  408f12:	bf1a      	itte	ne
  408f14:	4619      	movne	r1, r3
  408f16:	4610      	movne	r0, r2
  408f18:	ea7f 5c65 	mvnseq.w	ip, r5, asr #21
  408f1c:	bf1c      	itt	ne
  408f1e:	460b      	movne	r3, r1
  408f20:	4602      	movne	r2, r0
  408f22:	ea50 3401 	orrs.w	r4, r0, r1, lsl #12
  408f26:	bf06      	itte	eq
  408f28:	ea52 3503 	orrseq.w	r5, r2, r3, lsl #12
  408f2c:	ea91 0f03 	teqeq	r1, r3
  408f30:	f441 2100 	orrne.w	r1, r1, #524288	; 0x80000
  408f34:	bd30      	pop	{r4, r5, pc}
  408f36:	bf00      	nop

00408f38 <__aeabi_ui2d>:
  408f38:	f090 0f00 	teq	r0, #0
  408f3c:	bf04      	itt	eq
  408f3e:	2100      	moveq	r1, #0
  408f40:	4770      	bxeq	lr
  408f42:	b530      	push	{r4, r5, lr}
  408f44:	f44f 6480 	mov.w	r4, #1024	; 0x400
  408f48:	f104 0432 	add.w	r4, r4, #50	; 0x32
  408f4c:	f04f 0500 	mov.w	r5, #0
  408f50:	f04f 0100 	mov.w	r1, #0
  408f54:	e750      	b.n	408df8 <__adddf3+0x138>
  408f56:	bf00      	nop

00408f58 <__aeabi_i2d>:
  408f58:	f090 0f00 	teq	r0, #0
  408f5c:	bf04      	itt	eq
  408f5e:	2100      	moveq	r1, #0
  408f60:	4770      	bxeq	lr
  408f62:	b530      	push	{r4, r5, lr}
  408f64:	f44f 6480 	mov.w	r4, #1024	; 0x400
  408f68:	f104 0432 	add.w	r4, r4, #50	; 0x32
  408f6c:	f010 4500 	ands.w	r5, r0, #2147483648	; 0x80000000
  408f70:	bf48      	it	mi
  408f72:	4240      	negmi	r0, r0
  408f74:	f04f 0100 	mov.w	r1, #0
  408f78:	e73e      	b.n	408df8 <__adddf3+0x138>
  408f7a:	bf00      	nop

00408f7c <__aeabi_f2d>:
  408f7c:	0042      	lsls	r2, r0, #1
  408f7e:	ea4f 01e2 	mov.w	r1, r2, asr #3
  408f82:	ea4f 0131 	mov.w	r1, r1, rrx
  408f86:	ea4f 7002 	mov.w	r0, r2, lsl #28
  408f8a:	bf1f      	itttt	ne
  408f8c:	f012 437f 	andsne.w	r3, r2, #4278190080	; 0xff000000
  408f90:	f093 4f7f 	teqne	r3, #4278190080	; 0xff000000
  408f94:	f081 5160 	eorne.w	r1, r1, #939524096	; 0x38000000
  408f98:	4770      	bxne	lr
  408f9a:	f092 0f00 	teq	r2, #0
  408f9e:	bf14      	ite	ne
  408fa0:	f093 4f7f 	teqne	r3, #4278190080	; 0xff000000
  408fa4:	4770      	bxeq	lr
  408fa6:	b530      	push	{r4, r5, lr}
  408fa8:	f44f 7460 	mov.w	r4, #896	; 0x380
  408fac:	f001 4500 	and.w	r5, r1, #2147483648	; 0x80000000
  408fb0:	f021 4100 	bic.w	r1, r1, #2147483648	; 0x80000000
  408fb4:	e720      	b.n	408df8 <__adddf3+0x138>
  408fb6:	bf00      	nop

00408fb8 <__aeabi_ul2d>:
  408fb8:	ea50 0201 	orrs.w	r2, r0, r1
  408fbc:	bf08      	it	eq
  408fbe:	4770      	bxeq	lr
  408fc0:	b530      	push	{r4, r5, lr}
  408fc2:	f04f 0500 	mov.w	r5, #0
  408fc6:	e00a      	b.n	408fde <__aeabi_l2d+0x16>

00408fc8 <__aeabi_l2d>:
  408fc8:	ea50 0201 	orrs.w	r2, r0, r1
  408fcc:	bf08      	it	eq
  408fce:	4770      	bxeq	lr
  408fd0:	b530      	push	{r4, r5, lr}
  408fd2:	f011 4500 	ands.w	r5, r1, #2147483648	; 0x80000000
  408fd6:	d502      	bpl.n	408fde <__aeabi_l2d+0x16>
  408fd8:	4240      	negs	r0, r0
  408fda:	eb61 0141 	sbc.w	r1, r1, r1, lsl #1
  408fde:	f44f 6480 	mov.w	r4, #1024	; 0x400
  408fe2:	f104 0432 	add.w	r4, r4, #50	; 0x32
  408fe6:	ea5f 5c91 	movs.w	ip, r1, lsr #22
  408fea:	f43f aedc 	beq.w	408da6 <__adddf3+0xe6>
  408fee:	f04f 0203 	mov.w	r2, #3
  408ff2:	ea5f 0cdc 	movs.w	ip, ip, lsr #3
  408ff6:	bf18      	it	ne
  408ff8:	3203      	addne	r2, #3
  408ffa:	ea5f 0cdc 	movs.w	ip, ip, lsr #3
  408ffe:	bf18      	it	ne
  409000:	3203      	addne	r2, #3
  409002:	eb02 02dc 	add.w	r2, r2, ip, lsr #3
  409006:	f1c2 0320 	rsb	r3, r2, #32
  40900a:	fa00 fc03 	lsl.w	ip, r0, r3
  40900e:	fa20 f002 	lsr.w	r0, r0, r2
  409012:	fa01 fe03 	lsl.w	lr, r1, r3
  409016:	ea40 000e 	orr.w	r0, r0, lr
  40901a:	fa21 f102 	lsr.w	r1, r1, r2
  40901e:	4414      	add	r4, r2
  409020:	e6c1      	b.n	408da6 <__adddf3+0xe6>
  409022:	bf00      	nop

00409024 <__aeabi_dmul>:
  409024:	b570      	push	{r4, r5, r6, lr}
  409026:	f04f 0cff 	mov.w	ip, #255	; 0xff
  40902a:	f44c 6ce0 	orr.w	ip, ip, #1792	; 0x700
  40902e:	ea1c 5411 	ands.w	r4, ip, r1, lsr #20
  409032:	bf1d      	ittte	ne
  409034:	ea1c 5513 	andsne.w	r5, ip, r3, lsr #20
  409038:	ea94 0f0c 	teqne	r4, ip
  40903c:	ea95 0f0c 	teqne	r5, ip
  409040:	f000 f8de 	bleq	409200 <__aeabi_dmul+0x1dc>
  409044:	442c      	add	r4, r5
  409046:	ea81 0603 	eor.w	r6, r1, r3
  40904a:	ea21 514c 	bic.w	r1, r1, ip, lsl #21
  40904e:	ea23 534c 	bic.w	r3, r3, ip, lsl #21
  409052:	ea50 3501 	orrs.w	r5, r0, r1, lsl #12
  409056:	bf18      	it	ne
  409058:	ea52 3503 	orrsne.w	r5, r2, r3, lsl #12
  40905c:	f441 1180 	orr.w	r1, r1, #1048576	; 0x100000
  409060:	f443 1380 	orr.w	r3, r3, #1048576	; 0x100000
  409064:	d038      	beq.n	4090d8 <__aeabi_dmul+0xb4>
  409066:	fba0 ce02 	umull	ip, lr, r0, r2
  40906a:	f04f 0500 	mov.w	r5, #0
  40906e:	fbe1 e502 	umlal	lr, r5, r1, r2
  409072:	f006 4200 	and.w	r2, r6, #2147483648	; 0x80000000
  409076:	fbe0 e503 	umlal	lr, r5, r0, r3
  40907a:	f04f 0600 	mov.w	r6, #0
  40907e:	fbe1 5603 	umlal	r5, r6, r1, r3
  409082:	f09c 0f00 	teq	ip, #0
  409086:	bf18      	it	ne
  409088:	f04e 0e01 	orrne.w	lr, lr, #1
  40908c:	f1a4 04ff 	sub.w	r4, r4, #255	; 0xff
  409090:	f5b6 7f00 	cmp.w	r6, #512	; 0x200
  409094:	f564 7440 	sbc.w	r4, r4, #768	; 0x300
  409098:	d204      	bcs.n	4090a4 <__aeabi_dmul+0x80>
  40909a:	ea5f 0e4e 	movs.w	lr, lr, lsl #1
  40909e:	416d      	adcs	r5, r5
  4090a0:	eb46 0606 	adc.w	r6, r6, r6
  4090a4:	ea42 21c6 	orr.w	r1, r2, r6, lsl #11
  4090a8:	ea41 5155 	orr.w	r1, r1, r5, lsr #21
  4090ac:	ea4f 20c5 	mov.w	r0, r5, lsl #11
  4090b0:	ea40 505e 	orr.w	r0, r0, lr, lsr #21
  4090b4:	ea4f 2ece 	mov.w	lr, lr, lsl #11
  4090b8:	f1b4 0cfd 	subs.w	ip, r4, #253	; 0xfd
  4090bc:	bf88      	it	hi
  4090be:	f5bc 6fe0 	cmphi.w	ip, #1792	; 0x700
  4090c2:	d81e      	bhi.n	409102 <__aeabi_dmul+0xde>
  4090c4:	f1be 4f00 	cmp.w	lr, #2147483648	; 0x80000000
  4090c8:	bf08      	it	eq
  4090ca:	ea5f 0e50 	movseq.w	lr, r0, lsr #1
  4090ce:	f150 0000 	adcs.w	r0, r0, #0
  4090d2:	eb41 5104 	adc.w	r1, r1, r4, lsl #20
  4090d6:	bd70      	pop	{r4, r5, r6, pc}
  4090d8:	f006 4600 	and.w	r6, r6, #2147483648	; 0x80000000
  4090dc:	ea46 0101 	orr.w	r1, r6, r1
  4090e0:	ea40 0002 	orr.w	r0, r0, r2
  4090e4:	ea81 0103 	eor.w	r1, r1, r3
  4090e8:	ebb4 045c 	subs.w	r4, r4, ip, lsr #1
  4090ec:	bfc2      	ittt	gt
  4090ee:	ebd4 050c 	rsbsgt	r5, r4, ip
  4090f2:	ea41 5104 	orrgt.w	r1, r1, r4, lsl #20
  4090f6:	bd70      	popgt	{r4, r5, r6, pc}
  4090f8:	f441 1180 	orr.w	r1, r1, #1048576	; 0x100000
  4090fc:	f04f 0e00 	mov.w	lr, #0
  409100:	3c01      	subs	r4, #1
  409102:	f300 80ab 	bgt.w	40925c <__aeabi_dmul+0x238>
  409106:	f114 0f36 	cmn.w	r4, #54	; 0x36
  40910a:	bfde      	ittt	le
  40910c:	2000      	movle	r0, #0
  40910e:	f001 4100 	andle.w	r1, r1, #2147483648	; 0x80000000
  409112:	bd70      	pople	{r4, r5, r6, pc}
  409114:	f1c4 0400 	rsb	r4, r4, #0
  409118:	3c20      	subs	r4, #32
  40911a:	da35      	bge.n	409188 <__aeabi_dmul+0x164>
  40911c:	340c      	adds	r4, #12
  40911e:	dc1b      	bgt.n	409158 <__aeabi_dmul+0x134>
  409120:	f104 0414 	add.w	r4, r4, #20
  409124:	f1c4 0520 	rsb	r5, r4, #32
  409128:	fa00 f305 	lsl.w	r3, r0, r5
  40912c:	fa20 f004 	lsr.w	r0, r0, r4
  409130:	fa01 f205 	lsl.w	r2, r1, r5
  409134:	ea40 0002 	orr.w	r0, r0, r2
  409138:	f001 4200 	and.w	r2, r1, #2147483648	; 0x80000000
  40913c:	f021 4100 	bic.w	r1, r1, #2147483648	; 0x80000000
  409140:	eb10 70d3 	adds.w	r0, r0, r3, lsr #31
  409144:	fa21 f604 	lsr.w	r6, r1, r4
  409148:	eb42 0106 	adc.w	r1, r2, r6
  40914c:	ea5e 0e43 	orrs.w	lr, lr, r3, lsl #1
  409150:	bf08      	it	eq
  409152:	ea20 70d3 	biceq.w	r0, r0, r3, lsr #31
  409156:	bd70      	pop	{r4, r5, r6, pc}
  409158:	f1c4 040c 	rsb	r4, r4, #12
  40915c:	f1c4 0520 	rsb	r5, r4, #32
  409160:	fa00 f304 	lsl.w	r3, r0, r4
  409164:	fa20 f005 	lsr.w	r0, r0, r5
  409168:	fa01 f204 	lsl.w	r2, r1, r4
  40916c:	ea40 0002 	orr.w	r0, r0, r2
  409170:	f001 4100 	and.w	r1, r1, #2147483648	; 0x80000000
  409174:	eb10 70d3 	adds.w	r0, r0, r3, lsr #31
  409178:	f141 0100 	adc.w	r1, r1, #0
  40917c:	ea5e 0e43 	orrs.w	lr, lr, r3, lsl #1
  409180:	bf08      	it	eq
  409182:	ea20 70d3 	biceq.w	r0, r0, r3, lsr #31
  409186:	bd70      	pop	{r4, r5, r6, pc}
  409188:	f1c4 0520 	rsb	r5, r4, #32
  40918c:	fa00 f205 	lsl.w	r2, r0, r5
  409190:	ea4e 0e02 	orr.w	lr, lr, r2
  409194:	fa20 f304 	lsr.w	r3, r0, r4
  409198:	fa01 f205 	lsl.w	r2, r1, r5
  40919c:	ea43 0302 	orr.w	r3, r3, r2
  4091a0:	fa21 f004 	lsr.w	r0, r1, r4
  4091a4:	f001 4100 	and.w	r1, r1, #2147483648	; 0x80000000
  4091a8:	fa21 f204 	lsr.w	r2, r1, r4
  4091ac:	ea20 0002 	bic.w	r0, r0, r2
  4091b0:	eb00 70d3 	add.w	r0, r0, r3, lsr #31
  4091b4:	ea5e 0e43 	orrs.w	lr, lr, r3, lsl #1
  4091b8:	bf08      	it	eq
  4091ba:	ea20 70d3 	biceq.w	r0, r0, r3, lsr #31
  4091be:	bd70      	pop	{r4, r5, r6, pc}
  4091c0:	f094 0f00 	teq	r4, #0
  4091c4:	d10f      	bne.n	4091e6 <__aeabi_dmul+0x1c2>
  4091c6:	f001 4600 	and.w	r6, r1, #2147483648	; 0x80000000
  4091ca:	0040      	lsls	r0, r0, #1
  4091cc:	eb41 0101 	adc.w	r1, r1, r1
  4091d0:	f411 1f80 	tst.w	r1, #1048576	; 0x100000
  4091d4:	bf08      	it	eq
  4091d6:	3c01      	subeq	r4, #1
  4091d8:	d0f7      	beq.n	4091ca <__aeabi_dmul+0x1a6>
  4091da:	ea41 0106 	orr.w	r1, r1, r6
  4091de:	f095 0f00 	teq	r5, #0
  4091e2:	bf18      	it	ne
  4091e4:	4770      	bxne	lr
  4091e6:	f003 4600 	and.w	r6, r3, #2147483648	; 0x80000000
  4091ea:	0052      	lsls	r2, r2, #1
  4091ec:	eb43 0303 	adc.w	r3, r3, r3
  4091f0:	f413 1f80 	tst.w	r3, #1048576	; 0x100000
  4091f4:	bf08      	it	eq
  4091f6:	3d01      	subeq	r5, #1
  4091f8:	d0f7      	beq.n	4091ea <__aeabi_dmul+0x1c6>
  4091fa:	ea43 0306 	orr.w	r3, r3, r6
  4091fe:	4770      	bx	lr
  409200:	ea94 0f0c 	teq	r4, ip
  409204:	ea0c 5513 	and.w	r5, ip, r3, lsr #20
  409208:	bf18      	it	ne
  40920a:	ea95 0f0c 	teqne	r5, ip
  40920e:	d00c      	beq.n	40922a <__aeabi_dmul+0x206>
  409210:	ea50 0641 	orrs.w	r6, r0, r1, lsl #1
  409214:	bf18      	it	ne
  409216:	ea52 0643 	orrsne.w	r6, r2, r3, lsl #1
  40921a:	d1d1      	bne.n	4091c0 <__aeabi_dmul+0x19c>
  40921c:	ea81 0103 	eor.w	r1, r1, r3
  409220:	f001 4100 	and.w	r1, r1, #2147483648	; 0x80000000
  409224:	f04f 0000 	mov.w	r0, #0
  409228:	bd70      	pop	{r4, r5, r6, pc}
  40922a:	ea50 0641 	orrs.w	r6, r0, r1, lsl #1
  40922e:	bf06      	itte	eq
  409230:	4610      	moveq	r0, r2
  409232:	4619      	moveq	r1, r3
  409234:	ea52 0643 	orrsne.w	r6, r2, r3, lsl #1
  409238:	d019      	beq.n	40926e <__aeabi_dmul+0x24a>
  40923a:	ea94 0f0c 	teq	r4, ip
  40923e:	d102      	bne.n	409246 <__aeabi_dmul+0x222>
  409240:	ea50 3601 	orrs.w	r6, r0, r1, lsl #12
  409244:	d113      	bne.n	40926e <__aeabi_dmul+0x24a>
  409246:	ea95 0f0c 	teq	r5, ip
  40924a:	d105      	bne.n	409258 <__aeabi_dmul+0x234>
  40924c:	ea52 3603 	orrs.w	r6, r2, r3, lsl #12
  409250:	bf1c      	itt	ne
  409252:	4610      	movne	r0, r2
  409254:	4619      	movne	r1, r3
  409256:	d10a      	bne.n	40926e <__aeabi_dmul+0x24a>
  409258:	ea81 0103 	eor.w	r1, r1, r3
  40925c:	f001 4100 	and.w	r1, r1, #2147483648	; 0x80000000
  409260:	f041 41fe 	orr.w	r1, r1, #2130706432	; 0x7f000000
  409264:	f441 0170 	orr.w	r1, r1, #15728640	; 0xf00000
  409268:	f04f 0000 	mov.w	r0, #0
  40926c:	bd70      	pop	{r4, r5, r6, pc}
  40926e:	f041 41fe 	orr.w	r1, r1, #2130706432	; 0x7f000000
  409272:	f441 0178 	orr.w	r1, r1, #16252928	; 0xf80000
  409276:	bd70      	pop	{r4, r5, r6, pc}

00409278 <__aeabi_ddiv>:
  409278:	b570      	push	{r4, r5, r6, lr}
  40927a:	f04f 0cff 	mov.w	ip, #255	; 0xff
  40927e:	f44c 6ce0 	orr.w	ip, ip, #1792	; 0x700
  409282:	ea1c 5411 	ands.w	r4, ip, r1, lsr #20
  409286:	bf1d      	ittte	ne
  409288:	ea1c 5513 	andsne.w	r5, ip, r3, lsr #20
  40928c:	ea94 0f0c 	teqne	r4, ip
  409290:	ea95 0f0c 	teqne	r5, ip
  409294:	f000 f8a7 	bleq	4093e6 <__aeabi_ddiv+0x16e>
  409298:	eba4 0405 	sub.w	r4, r4, r5
  40929c:	ea81 0e03 	eor.w	lr, r1, r3
  4092a0:	ea52 3503 	orrs.w	r5, r2, r3, lsl #12
  4092a4:	ea4f 3101 	mov.w	r1, r1, lsl #12
  4092a8:	f000 8088 	beq.w	4093bc <__aeabi_ddiv+0x144>
  4092ac:	ea4f 3303 	mov.w	r3, r3, lsl #12
  4092b0:	f04f 5580 	mov.w	r5, #268435456	; 0x10000000
  4092b4:	ea45 1313 	orr.w	r3, r5, r3, lsr #4
  4092b8:	ea43 6312 	orr.w	r3, r3, r2, lsr #24
  4092bc:	ea4f 2202 	mov.w	r2, r2, lsl #8
  4092c0:	ea45 1511 	orr.w	r5, r5, r1, lsr #4
  4092c4:	ea45 6510 	orr.w	r5, r5, r0, lsr #24
  4092c8:	ea4f 2600 	mov.w	r6, r0, lsl #8
  4092cc:	f00e 4100 	and.w	r1, lr, #2147483648	; 0x80000000
  4092d0:	429d      	cmp	r5, r3
  4092d2:	bf08      	it	eq
  4092d4:	4296      	cmpeq	r6, r2
  4092d6:	f144 04fd 	adc.w	r4, r4, #253	; 0xfd
  4092da:	f504 7440 	add.w	r4, r4, #768	; 0x300
  4092de:	d202      	bcs.n	4092e6 <__aeabi_ddiv+0x6e>
  4092e0:	085b      	lsrs	r3, r3, #1
  4092e2:	ea4f 0232 	mov.w	r2, r2, rrx
  4092e6:	1ab6      	subs	r6, r6, r2
  4092e8:	eb65 0503 	sbc.w	r5, r5, r3
  4092ec:	085b      	lsrs	r3, r3, #1
  4092ee:	ea4f 0232 	mov.w	r2, r2, rrx
  4092f2:	f44f 1080 	mov.w	r0, #1048576	; 0x100000
  4092f6:	f44f 2c00 	mov.w	ip, #524288	; 0x80000
  4092fa:	ebb6 0e02 	subs.w	lr, r6, r2
  4092fe:	eb75 0e03 	sbcs.w	lr, r5, r3
  409302:	bf22      	ittt	cs
  409304:	1ab6      	subcs	r6, r6, r2
  409306:	4675      	movcs	r5, lr
  409308:	ea40 000c 	orrcs.w	r0, r0, ip
  40930c:	085b      	lsrs	r3, r3, #1
  40930e:	ea4f 0232 	mov.w	r2, r2, rrx
  409312:	ebb6 0e02 	subs.w	lr, r6, r2
  409316:	eb75 0e03 	sbcs.w	lr, r5, r3
  40931a:	bf22      	ittt	cs
  40931c:	1ab6      	subcs	r6, r6, r2
  40931e:	4675      	movcs	r5, lr
  409320:	ea40 005c 	orrcs.w	r0, r0, ip, lsr #1
  409324:	085b      	lsrs	r3, r3, #1
  409326:	ea4f 0232 	mov.w	r2, r2, rrx
  40932a:	ebb6 0e02 	subs.w	lr, r6, r2
  40932e:	eb75 0e03 	sbcs.w	lr, r5, r3
  409332:	bf22      	ittt	cs
  409334:	1ab6      	subcs	r6, r6, r2
  409336:	4675      	movcs	r5, lr
  409338:	ea40 009c 	orrcs.w	r0, r0, ip, lsr #2
  40933c:	085b      	lsrs	r3, r3, #1
  40933e:	ea4f 0232 	mov.w	r2, r2, rrx
  409342:	ebb6 0e02 	subs.w	lr, r6, r2
  409346:	eb75 0e03 	sbcs.w	lr, r5, r3
  40934a:	bf22      	ittt	cs
  40934c:	1ab6      	subcs	r6, r6, r2
  40934e:	4675      	movcs	r5, lr
  409350:	ea40 00dc 	orrcs.w	r0, r0, ip, lsr #3
  409354:	ea55 0e06 	orrs.w	lr, r5, r6
  409358:	d018      	beq.n	40938c <__aeabi_ddiv+0x114>
  40935a:	ea4f 1505 	mov.w	r5, r5, lsl #4
  40935e:	ea45 7516 	orr.w	r5, r5, r6, lsr #28
  409362:	ea4f 1606 	mov.w	r6, r6, lsl #4
  409366:	ea4f 03c3 	mov.w	r3, r3, lsl #3
  40936a:	ea43 7352 	orr.w	r3, r3, r2, lsr #29
  40936e:	ea4f 02c2 	mov.w	r2, r2, lsl #3
  409372:	ea5f 1c1c 	movs.w	ip, ip, lsr #4
  409376:	d1c0      	bne.n	4092fa <__aeabi_ddiv+0x82>
  409378:	f411 1f80 	tst.w	r1, #1048576	; 0x100000
  40937c:	d10b      	bne.n	409396 <__aeabi_ddiv+0x11e>
  40937e:	ea41 0100 	orr.w	r1, r1, r0
  409382:	f04f 0000 	mov.w	r0, #0
  409386:	f04f 4c00 	mov.w	ip, #2147483648	; 0x80000000
  40938a:	e7b6      	b.n	4092fa <__aeabi_ddiv+0x82>
  40938c:	f411 1f80 	tst.w	r1, #1048576	; 0x100000
  409390:	bf04      	itt	eq
  409392:	4301      	orreq	r1, r0
  409394:	2000      	moveq	r0, #0
  409396:	f1b4 0cfd 	subs.w	ip, r4, #253	; 0xfd
  40939a:	bf88      	it	hi
  40939c:	f5bc 6fe0 	cmphi.w	ip, #1792	; 0x700
  4093a0:	f63f aeaf 	bhi.w	409102 <__aeabi_dmul+0xde>
  4093a4:	ebb5 0c03 	subs.w	ip, r5, r3
  4093a8:	bf04      	itt	eq
  4093aa:	ebb6 0c02 	subseq.w	ip, r6, r2
  4093ae:	ea5f 0c50 	movseq.w	ip, r0, lsr #1
  4093b2:	f150 0000 	adcs.w	r0, r0, #0
  4093b6:	eb41 5104 	adc.w	r1, r1, r4, lsl #20
  4093ba:	bd70      	pop	{r4, r5, r6, pc}
  4093bc:	f00e 4e00 	and.w	lr, lr, #2147483648	; 0x80000000
  4093c0:	ea4e 3111 	orr.w	r1, lr, r1, lsr #12
  4093c4:	eb14 045c 	adds.w	r4, r4, ip, lsr #1
  4093c8:	bfc2      	ittt	gt
  4093ca:	ebd4 050c 	rsbsgt	r5, r4, ip
  4093ce:	ea41 5104 	orrgt.w	r1, r1, r4, lsl #20
  4093d2:	bd70      	popgt	{r4, r5, r6, pc}
  4093d4:	f441 1180 	orr.w	r1, r1, #1048576	; 0x100000
  4093d8:	f04f 0e00 	mov.w	lr, #0
  4093dc:	3c01      	subs	r4, #1
  4093de:	e690      	b.n	409102 <__aeabi_dmul+0xde>
  4093e0:	ea45 0e06 	orr.w	lr, r5, r6
  4093e4:	e68d      	b.n	409102 <__aeabi_dmul+0xde>
  4093e6:	ea0c 5513 	and.w	r5, ip, r3, lsr #20
  4093ea:	ea94 0f0c 	teq	r4, ip
  4093ee:	bf08      	it	eq
  4093f0:	ea95 0f0c 	teqeq	r5, ip
  4093f4:	f43f af3b 	beq.w	40926e <__aeabi_dmul+0x24a>
  4093f8:	ea94 0f0c 	teq	r4, ip
  4093fc:	d10a      	bne.n	409414 <__aeabi_ddiv+0x19c>
  4093fe:	ea50 3401 	orrs.w	r4, r0, r1, lsl #12
  409402:	f47f af34 	bne.w	40926e <__aeabi_dmul+0x24a>
  409406:	ea95 0f0c 	teq	r5, ip
  40940a:	f47f af25 	bne.w	409258 <__aeabi_dmul+0x234>
  40940e:	4610      	mov	r0, r2
  409410:	4619      	mov	r1, r3
  409412:	e72c      	b.n	40926e <__aeabi_dmul+0x24a>
  409414:	ea95 0f0c 	teq	r5, ip
  409418:	d106      	bne.n	409428 <__aeabi_ddiv+0x1b0>
  40941a:	ea52 3503 	orrs.w	r5, r2, r3, lsl #12
  40941e:	f43f aefd 	beq.w	40921c <__aeabi_dmul+0x1f8>
  409422:	4610      	mov	r0, r2
  409424:	4619      	mov	r1, r3
  409426:	e722      	b.n	40926e <__aeabi_dmul+0x24a>
  409428:	ea50 0641 	orrs.w	r6, r0, r1, lsl #1
  40942c:	bf18      	it	ne
  40942e:	ea52 0643 	orrsne.w	r6, r2, r3, lsl #1
  409432:	f47f aec5 	bne.w	4091c0 <__aeabi_dmul+0x19c>
  409436:	ea50 0441 	orrs.w	r4, r0, r1, lsl #1
  40943a:	f47f af0d 	bne.w	409258 <__aeabi_dmul+0x234>
  40943e:	ea52 0543 	orrs.w	r5, r2, r3, lsl #1
  409442:	f47f aeeb 	bne.w	40921c <__aeabi_dmul+0x1f8>
  409446:	e712      	b.n	40926e <__aeabi_dmul+0x24a>

00409448 <__gedf2>:
  409448:	f04f 3cff 	mov.w	ip, #4294967295
  40944c:	e006      	b.n	40945c <__cmpdf2+0x4>
  40944e:	bf00      	nop

00409450 <__ledf2>:
  409450:	f04f 0c01 	mov.w	ip, #1
  409454:	e002      	b.n	40945c <__cmpdf2+0x4>
  409456:	bf00      	nop

00409458 <__cmpdf2>:
  409458:	f04f 0c01 	mov.w	ip, #1
  40945c:	f84d cd04 	str.w	ip, [sp, #-4]!
  409460:	ea4f 0c41 	mov.w	ip, r1, lsl #1
  409464:	ea7f 5c6c 	mvns.w	ip, ip, asr #21
  409468:	ea4f 0c43 	mov.w	ip, r3, lsl #1
  40946c:	bf18      	it	ne
  40946e:	ea7f 5c6c 	mvnsne.w	ip, ip, asr #21
  409472:	d01b      	beq.n	4094ac <__cmpdf2+0x54>
  409474:	b001      	add	sp, #4
  409476:	ea50 0c41 	orrs.w	ip, r0, r1, lsl #1
  40947a:	bf0c      	ite	eq
  40947c:	ea52 0c43 	orrseq.w	ip, r2, r3, lsl #1
  409480:	ea91 0f03 	teqne	r1, r3
  409484:	bf02      	ittt	eq
  409486:	ea90 0f02 	teqeq	r0, r2
  40948a:	2000      	moveq	r0, #0
  40948c:	4770      	bxeq	lr
  40948e:	f110 0f00 	cmn.w	r0, #0
  409492:	ea91 0f03 	teq	r1, r3
  409496:	bf58      	it	pl
  409498:	4299      	cmppl	r1, r3
  40949a:	bf08      	it	eq
  40949c:	4290      	cmpeq	r0, r2
  40949e:	bf2c      	ite	cs
  4094a0:	17d8      	asrcs	r0, r3, #31
  4094a2:	ea6f 70e3 	mvncc.w	r0, r3, asr #31
  4094a6:	f040 0001 	orr.w	r0, r0, #1
  4094aa:	4770      	bx	lr
  4094ac:	ea4f 0c41 	mov.w	ip, r1, lsl #1
  4094b0:	ea7f 5c6c 	mvns.w	ip, ip, asr #21
  4094b4:	d102      	bne.n	4094bc <__cmpdf2+0x64>
  4094b6:	ea50 3c01 	orrs.w	ip, r0, r1, lsl #12
  4094ba:	d107      	bne.n	4094cc <__cmpdf2+0x74>
  4094bc:	ea4f 0c43 	mov.w	ip, r3, lsl #1
  4094c0:	ea7f 5c6c 	mvns.w	ip, ip, asr #21
  4094c4:	d1d6      	bne.n	409474 <__cmpdf2+0x1c>
  4094c6:	ea52 3c03 	orrs.w	ip, r2, r3, lsl #12
  4094ca:	d0d3      	beq.n	409474 <__cmpdf2+0x1c>
  4094cc:	f85d 0b04 	ldr.w	r0, [sp], #4
  4094d0:	4770      	bx	lr
  4094d2:	bf00      	nop

004094d4 <__aeabi_cdrcmple>:
  4094d4:	4684      	mov	ip, r0
  4094d6:	4610      	mov	r0, r2
  4094d8:	4662      	mov	r2, ip
  4094da:	468c      	mov	ip, r1
  4094dc:	4619      	mov	r1, r3
  4094de:	4663      	mov	r3, ip
  4094e0:	e000      	b.n	4094e4 <__aeabi_cdcmpeq>
  4094e2:	bf00      	nop

004094e4 <__aeabi_cdcmpeq>:
  4094e4:	b501      	push	{r0, lr}
  4094e6:	f7ff ffb7 	bl	409458 <__cmpdf2>
  4094ea:	2800      	cmp	r0, #0
  4094ec:	bf48      	it	mi
  4094ee:	f110 0f00 	cmnmi.w	r0, #0
  4094f2:	bd01      	pop	{r0, pc}

004094f4 <__aeabi_dcmpeq>:
  4094f4:	f84d ed08 	str.w	lr, [sp, #-8]!
  4094f8:	f7ff fff4 	bl	4094e4 <__aeabi_cdcmpeq>
  4094fc:	bf0c      	ite	eq
  4094fe:	2001      	moveq	r0, #1
  409500:	2000      	movne	r0, #0
  409502:	f85d fb08 	ldr.w	pc, [sp], #8
  409506:	bf00      	nop

00409508 <__aeabi_dcmplt>:
  409508:	f84d ed08 	str.w	lr, [sp, #-8]!
  40950c:	f7ff ffea 	bl	4094e4 <__aeabi_cdcmpeq>
  409510:	bf34      	ite	cc
  409512:	2001      	movcc	r0, #1
  409514:	2000      	movcs	r0, #0
  409516:	f85d fb08 	ldr.w	pc, [sp], #8
  40951a:	bf00      	nop

0040951c <__aeabi_dcmple>:
  40951c:	f84d ed08 	str.w	lr, [sp, #-8]!
  409520:	f7ff ffe0 	bl	4094e4 <__aeabi_cdcmpeq>
  409524:	bf94      	ite	ls
  409526:	2001      	movls	r0, #1
  409528:	2000      	movhi	r0, #0
  40952a:	f85d fb08 	ldr.w	pc, [sp], #8
  40952e:	bf00      	nop

00409530 <__aeabi_dcmpge>:
  409530:	f84d ed08 	str.w	lr, [sp, #-8]!
  409534:	f7ff ffce 	bl	4094d4 <__aeabi_cdrcmple>
  409538:	bf94      	ite	ls
  40953a:	2001      	movls	r0, #1
  40953c:	2000      	movhi	r0, #0
  40953e:	f85d fb08 	ldr.w	pc, [sp], #8
  409542:	bf00      	nop

00409544 <__aeabi_dcmpgt>:
  409544:	f84d ed08 	str.w	lr, [sp, #-8]!
  409548:	f7ff ffc4 	bl	4094d4 <__aeabi_cdrcmple>
  40954c:	bf34      	ite	cc
  40954e:	2001      	movcc	r0, #1
  409550:	2000      	movcs	r0, #0
  409552:	f85d fb08 	ldr.w	pc, [sp], #8
  409556:	bf00      	nop

00409558 <__aeabi_dcmpun>:
  409558:	ea4f 0c41 	mov.w	ip, r1, lsl #1
  40955c:	ea7f 5c6c 	mvns.w	ip, ip, asr #21
  409560:	d102      	bne.n	409568 <__aeabi_dcmpun+0x10>
  409562:	ea50 3c01 	orrs.w	ip, r0, r1, lsl #12
  409566:	d10a      	bne.n	40957e <__aeabi_dcmpun+0x26>
  409568:	ea4f 0c43 	mov.w	ip, r3, lsl #1
  40956c:	ea7f 5c6c 	mvns.w	ip, ip, asr #21
  409570:	d102      	bne.n	409578 <__aeabi_dcmpun+0x20>
  409572:	ea52 3c03 	orrs.w	ip, r2, r3, lsl #12
  409576:	d102      	bne.n	40957e <__aeabi_dcmpun+0x26>
  409578:	f04f 0000 	mov.w	r0, #0
  40957c:	4770      	bx	lr
  40957e:	f04f 0001 	mov.w	r0, #1
  409582:	4770      	bx	lr

00409584 <__aeabi_d2iz>:
  409584:	ea4f 0241 	mov.w	r2, r1, lsl #1
  409588:	f512 1200 	adds.w	r2, r2, #2097152	; 0x200000
  40958c:	d215      	bcs.n	4095ba <__aeabi_d2iz+0x36>
  40958e:	d511      	bpl.n	4095b4 <__aeabi_d2iz+0x30>
  409590:	f46f 7378 	mvn.w	r3, #992	; 0x3e0
  409594:	ebb3 5262 	subs.w	r2, r3, r2, asr #21
  409598:	d912      	bls.n	4095c0 <__aeabi_d2iz+0x3c>
  40959a:	ea4f 23c1 	mov.w	r3, r1, lsl #11
  40959e:	f043 4300 	orr.w	r3, r3, #2147483648	; 0x80000000
  4095a2:	ea43 5350 	orr.w	r3, r3, r0, lsr #21
  4095a6:	f011 4f00 	tst.w	r1, #2147483648	; 0x80000000
  4095aa:	fa23 f002 	lsr.w	r0, r3, r2
  4095ae:	bf18      	it	ne
  4095b0:	4240      	negne	r0, r0
  4095b2:	4770      	bx	lr
  4095b4:	f04f 0000 	mov.w	r0, #0
  4095b8:	4770      	bx	lr
  4095ba:	ea50 3001 	orrs.w	r0, r0, r1, lsl #12
  4095be:	d105      	bne.n	4095cc <__aeabi_d2iz+0x48>
  4095c0:	f011 4000 	ands.w	r0, r1, #2147483648	; 0x80000000
  4095c4:	bf08      	it	eq
  4095c6:	f06f 4000 	mvneq.w	r0, #2147483648	; 0x80000000
  4095ca:	4770      	bx	lr
  4095cc:	f04f 0000 	mov.w	r0, #0
  4095d0:	4770      	bx	lr
  4095d2:	bf00      	nop

004095d4 <__aeabi_uldivmod>:
  4095d4:	b953      	cbnz	r3, 4095ec <__aeabi_uldivmod+0x18>
  4095d6:	b94a      	cbnz	r2, 4095ec <__aeabi_uldivmod+0x18>
  4095d8:	2900      	cmp	r1, #0
  4095da:	bf08      	it	eq
  4095dc:	2800      	cmpeq	r0, #0
  4095de:	bf1c      	itt	ne
  4095e0:	f04f 31ff 	movne.w	r1, #4294967295
  4095e4:	f04f 30ff 	movne.w	r0, #4294967295
  4095e8:	f000 b97e 	b.w	4098e8 <__aeabi_idiv0>
  4095ec:	f1ad 0c08 	sub.w	ip, sp, #8
  4095f0:	e96d ce04 	strd	ip, lr, [sp, #-16]!
  4095f4:	f000 f806 	bl	409604 <__udivmoddi4>
  4095f8:	f8dd e004 	ldr.w	lr, [sp, #4]
  4095fc:	e9dd 2302 	ldrd	r2, r3, [sp, #8]
  409600:	b004      	add	sp, #16
  409602:	4770      	bx	lr

00409604 <__udivmoddi4>:
  409604:	e92d 47f0 	stmdb	sp!, {r4, r5, r6, r7, r8, r9, sl, lr}
  409608:	468c      	mov	ip, r1
  40960a:	460e      	mov	r6, r1
  40960c:	4604      	mov	r4, r0
  40960e:	9d08      	ldr	r5, [sp, #32]
  409610:	2b00      	cmp	r3, #0
  409612:	d150      	bne.n	4096b6 <__udivmoddi4+0xb2>
  409614:	428a      	cmp	r2, r1
  409616:	4617      	mov	r7, r2
  409618:	d96c      	bls.n	4096f4 <__udivmoddi4+0xf0>
  40961a:	fab2 fe82 	clz	lr, r2
  40961e:	f1be 0f00 	cmp.w	lr, #0
  409622:	d00b      	beq.n	40963c <__udivmoddi4+0x38>
  409624:	f1ce 0420 	rsb	r4, lr, #32
  409628:	fa20 f404 	lsr.w	r4, r0, r4
  40962c:	fa01 f60e 	lsl.w	r6, r1, lr
  409630:	ea44 0c06 	orr.w	ip, r4, r6
  409634:	fa02 f70e 	lsl.w	r7, r2, lr
  409638:	fa00 f40e 	lsl.w	r4, r0, lr
  40963c:	ea4f 4917 	mov.w	r9, r7, lsr #16
  409640:	0c22      	lsrs	r2, r4, #16
  409642:	fbbc f0f9 	udiv	r0, ip, r9
  409646:	fa1f f887 	uxth.w	r8, r7
  40964a:	fb09 c610 	mls	r6, r9, r0, ip
  40964e:	ea42 4606 	orr.w	r6, r2, r6, lsl #16
  409652:	fb00 f308 	mul.w	r3, r0, r8
  409656:	42b3      	cmp	r3, r6
  409658:	d909      	bls.n	40966e <__udivmoddi4+0x6a>
  40965a:	19f6      	adds	r6, r6, r7
  40965c:	f100 32ff 	add.w	r2, r0, #4294967295
  409660:	f080 8122 	bcs.w	4098a8 <__udivmoddi4+0x2a4>
  409664:	42b3      	cmp	r3, r6
  409666:	f240 811f 	bls.w	4098a8 <__udivmoddi4+0x2a4>
  40966a:	3802      	subs	r0, #2
  40966c:	443e      	add	r6, r7
  40966e:	1af6      	subs	r6, r6, r3
  409670:	b2a2      	uxth	r2, r4
  409672:	fbb6 f3f9 	udiv	r3, r6, r9
  409676:	fb09 6613 	mls	r6, r9, r3, r6
  40967a:	ea42 4406 	orr.w	r4, r2, r6, lsl #16
  40967e:	fb03 f808 	mul.w	r8, r3, r8
  409682:	45a0      	cmp	r8, r4
  409684:	d909      	bls.n	40969a <__udivmoddi4+0x96>
  409686:	19e4      	adds	r4, r4, r7
  409688:	f103 32ff 	add.w	r2, r3, #4294967295
  40968c:	f080 810a 	bcs.w	4098a4 <__udivmoddi4+0x2a0>
  409690:	45a0      	cmp	r8, r4
  409692:	f240 8107 	bls.w	4098a4 <__udivmoddi4+0x2a0>
  409696:	3b02      	subs	r3, #2
  409698:	443c      	add	r4, r7
  40969a:	ebc8 0404 	rsb	r4, r8, r4
  40969e:	ea43 4000 	orr.w	r0, r3, r0, lsl #16
  4096a2:	2100      	movs	r1, #0
  4096a4:	2d00      	cmp	r5, #0
  4096a6:	d062      	beq.n	40976e <__udivmoddi4+0x16a>
  4096a8:	fa24 f40e 	lsr.w	r4, r4, lr
  4096ac:	2300      	movs	r3, #0
  4096ae:	602c      	str	r4, [r5, #0]
  4096b0:	606b      	str	r3, [r5, #4]
  4096b2:	e8bd 87f0 	ldmia.w	sp!, {r4, r5, r6, r7, r8, r9, sl, pc}
  4096b6:	428b      	cmp	r3, r1
  4096b8:	d907      	bls.n	4096ca <__udivmoddi4+0xc6>
  4096ba:	2d00      	cmp	r5, #0
  4096bc:	d055      	beq.n	40976a <__udivmoddi4+0x166>
  4096be:	2100      	movs	r1, #0
  4096c0:	e885 0041 	stmia.w	r5, {r0, r6}
  4096c4:	4608      	mov	r0, r1
  4096c6:	e8bd 87f0 	ldmia.w	sp!, {r4, r5, r6, r7, r8, r9, sl, pc}
  4096ca:	fab3 f183 	clz	r1, r3
  4096ce:	2900      	cmp	r1, #0
  4096d0:	f040 8090 	bne.w	4097f4 <__udivmoddi4+0x1f0>
  4096d4:	42b3      	cmp	r3, r6
  4096d6:	d302      	bcc.n	4096de <__udivmoddi4+0xda>
  4096d8:	4282      	cmp	r2, r0
  4096da:	f200 80f8 	bhi.w	4098ce <__udivmoddi4+0x2ca>
  4096de:	1a84      	subs	r4, r0, r2
  4096e0:	eb66 0603 	sbc.w	r6, r6, r3
  4096e4:	2001      	movs	r0, #1
  4096e6:	46b4      	mov	ip, r6
  4096e8:	2d00      	cmp	r5, #0
  4096ea:	d040      	beq.n	40976e <__udivmoddi4+0x16a>
  4096ec:	e885 1010 	stmia.w	r5, {r4, ip}
  4096f0:	e8bd 87f0 	ldmia.w	sp!, {r4, r5, r6, r7, r8, r9, sl, pc}
  4096f4:	b912      	cbnz	r2, 4096fc <__udivmoddi4+0xf8>
  4096f6:	2701      	movs	r7, #1
  4096f8:	fbb7 f7f2 	udiv	r7, r7, r2
  4096fc:	fab7 fe87 	clz	lr, r7
  409700:	f1be 0f00 	cmp.w	lr, #0
  409704:	d135      	bne.n	409772 <__udivmoddi4+0x16e>
  409706:	1bf3      	subs	r3, r6, r7
  409708:	ea4f 4817 	mov.w	r8, r7, lsr #16
  40970c:	fa1f fc87 	uxth.w	ip, r7
  409710:	2101      	movs	r1, #1
  409712:	fbb3 f0f8 	udiv	r0, r3, r8
  409716:	0c22      	lsrs	r2, r4, #16
  409718:	fb08 3610 	mls	r6, r8, r0, r3
  40971c:	ea42 4606 	orr.w	r6, r2, r6, lsl #16
  409720:	fb0c f300 	mul.w	r3, ip, r0
  409724:	42b3      	cmp	r3, r6
  409726:	d907      	bls.n	409738 <__udivmoddi4+0x134>
  409728:	19f6      	adds	r6, r6, r7
  40972a:	f100 32ff 	add.w	r2, r0, #4294967295
  40972e:	d202      	bcs.n	409736 <__udivmoddi4+0x132>
  409730:	42b3      	cmp	r3, r6
  409732:	f200 80ce 	bhi.w	4098d2 <__udivmoddi4+0x2ce>
  409736:	4610      	mov	r0, r2
  409738:	1af6      	subs	r6, r6, r3
  40973a:	b2a2      	uxth	r2, r4
  40973c:	fbb6 f3f8 	udiv	r3, r6, r8
  409740:	fb08 6613 	mls	r6, r8, r3, r6
  409744:	ea42 4406 	orr.w	r4, r2, r6, lsl #16
  409748:	fb0c fc03 	mul.w	ip, ip, r3
  40974c:	45a4      	cmp	ip, r4
  40974e:	d907      	bls.n	409760 <__udivmoddi4+0x15c>
  409750:	19e4      	adds	r4, r4, r7
  409752:	f103 32ff 	add.w	r2, r3, #4294967295
  409756:	d202      	bcs.n	40975e <__udivmoddi4+0x15a>
  409758:	45a4      	cmp	ip, r4
  40975a:	f200 80b5 	bhi.w	4098c8 <__udivmoddi4+0x2c4>
  40975e:	4613      	mov	r3, r2
  409760:	ebcc 0404 	rsb	r4, ip, r4
  409764:	ea43 4000 	orr.w	r0, r3, r0, lsl #16
  409768:	e79c      	b.n	4096a4 <__udivmoddi4+0xa0>
  40976a:	4629      	mov	r1, r5
  40976c:	4628      	mov	r0, r5
  40976e:	e8bd 87f0 	ldmia.w	sp!, {r4, r5, r6, r7, r8, r9, sl, pc}
  409772:	f1ce 0120 	rsb	r1, lr, #32
  409776:	fa06 f30e 	lsl.w	r3, r6, lr
  40977a:	fa07 f70e 	lsl.w	r7, r7, lr
  40977e:	fa20 f901 	lsr.w	r9, r0, r1
  409782:	ea4f 4817 	mov.w	r8, r7, lsr #16
  409786:	40ce      	lsrs	r6, r1
  409788:	ea49 0903 	orr.w	r9, r9, r3
  40978c:	fbb6 faf8 	udiv	sl, r6, r8
  409790:	ea4f 4419 	mov.w	r4, r9, lsr #16
  409794:	fb08 661a 	mls	r6, r8, sl, r6
  409798:	fa1f fc87 	uxth.w	ip, r7
  40979c:	ea44 4306 	orr.w	r3, r4, r6, lsl #16
  4097a0:	fb0a f20c 	mul.w	r2, sl, ip
  4097a4:	429a      	cmp	r2, r3
  4097a6:	fa00 f40e 	lsl.w	r4, r0, lr
  4097aa:	d90a      	bls.n	4097c2 <__udivmoddi4+0x1be>
  4097ac:	19db      	adds	r3, r3, r7
  4097ae:	f10a 31ff 	add.w	r1, sl, #4294967295
  4097b2:	f080 8087 	bcs.w	4098c4 <__udivmoddi4+0x2c0>
  4097b6:	429a      	cmp	r2, r3
  4097b8:	f240 8084 	bls.w	4098c4 <__udivmoddi4+0x2c0>
  4097bc:	f1aa 0a02 	sub.w	sl, sl, #2
  4097c0:	443b      	add	r3, r7
  4097c2:	1a9b      	subs	r3, r3, r2
  4097c4:	fa1f f989 	uxth.w	r9, r9
  4097c8:	fbb3 f1f8 	udiv	r1, r3, r8
  4097cc:	fb08 3311 	mls	r3, r8, r1, r3
  4097d0:	ea49 4303 	orr.w	r3, r9, r3, lsl #16
  4097d4:	fb01 f60c 	mul.w	r6, r1, ip
  4097d8:	429e      	cmp	r6, r3
  4097da:	d907      	bls.n	4097ec <__udivmoddi4+0x1e8>
  4097dc:	19db      	adds	r3, r3, r7
  4097de:	f101 32ff 	add.w	r2, r1, #4294967295
  4097e2:	d26b      	bcs.n	4098bc <__udivmoddi4+0x2b8>
  4097e4:	429e      	cmp	r6, r3
  4097e6:	d969      	bls.n	4098bc <__udivmoddi4+0x2b8>
  4097e8:	3902      	subs	r1, #2
  4097ea:	443b      	add	r3, r7
  4097ec:	1b9b      	subs	r3, r3, r6
  4097ee:	ea41 410a 	orr.w	r1, r1, sl, lsl #16
  4097f2:	e78e      	b.n	409712 <__udivmoddi4+0x10e>
  4097f4:	f1c1 0e20 	rsb	lr, r1, #32
  4097f8:	fa22 f40e 	lsr.w	r4, r2, lr
  4097fc:	408b      	lsls	r3, r1
  4097fe:	4323      	orrs	r3, r4
  409800:	fa20 f70e 	lsr.w	r7, r0, lr
  409804:	fa06 f401 	lsl.w	r4, r6, r1
  409808:	ea4f 4c13 	mov.w	ip, r3, lsr #16
  40980c:	fa26 f60e 	lsr.w	r6, r6, lr
  409810:	433c      	orrs	r4, r7
  409812:	fbb6 f9fc 	udiv	r9, r6, ip
  409816:	0c27      	lsrs	r7, r4, #16
  409818:	fb0c 6619 	mls	r6, ip, r9, r6
  40981c:	fa1f f883 	uxth.w	r8, r3
  409820:	ea47 4606 	orr.w	r6, r7, r6, lsl #16
  409824:	fb09 f708 	mul.w	r7, r9, r8
  409828:	42b7      	cmp	r7, r6
  40982a:	fa02 f201 	lsl.w	r2, r2, r1
  40982e:	fa00 fa01 	lsl.w	sl, r0, r1
  409832:	d908      	bls.n	409846 <__udivmoddi4+0x242>
  409834:	18f6      	adds	r6, r6, r3
  409836:	f109 30ff 	add.w	r0, r9, #4294967295
  40983a:	d241      	bcs.n	4098c0 <__udivmoddi4+0x2bc>
  40983c:	42b7      	cmp	r7, r6
  40983e:	d93f      	bls.n	4098c0 <__udivmoddi4+0x2bc>
  409840:	f1a9 0902 	sub.w	r9, r9, #2
  409844:	441e      	add	r6, r3
  409846:	1bf6      	subs	r6, r6, r7
  409848:	b2a0      	uxth	r0, r4
  40984a:	fbb6 f4fc 	udiv	r4, r6, ip
  40984e:	fb0c 6614 	mls	r6, ip, r4, r6
  409852:	ea40 4706 	orr.w	r7, r0, r6, lsl #16
  409856:	fb04 f808 	mul.w	r8, r4, r8
  40985a:	45b8      	cmp	r8, r7
  40985c:	d907      	bls.n	40986e <__udivmoddi4+0x26a>
  40985e:	18ff      	adds	r7, r7, r3
  409860:	f104 30ff 	add.w	r0, r4, #4294967295
  409864:	d228      	bcs.n	4098b8 <__udivmoddi4+0x2b4>
  409866:	45b8      	cmp	r8, r7
  409868:	d926      	bls.n	4098b8 <__udivmoddi4+0x2b4>
  40986a:	3c02      	subs	r4, #2
  40986c:	441f      	add	r7, r3
  40986e:	ea44 4009 	orr.w	r0, r4, r9, lsl #16
  409872:	ebc8 0707 	rsb	r7, r8, r7
  409876:	fba0 8902 	umull	r8, r9, r0, r2
  40987a:	454f      	cmp	r7, r9
  40987c:	4644      	mov	r4, r8
  40987e:	464e      	mov	r6, r9
  409880:	d314      	bcc.n	4098ac <__udivmoddi4+0x2a8>
  409882:	d029      	beq.n	4098d8 <__udivmoddi4+0x2d4>
  409884:	b365      	cbz	r5, 4098e0 <__udivmoddi4+0x2dc>
  409886:	ebba 0304 	subs.w	r3, sl, r4
  40988a:	eb67 0706 	sbc.w	r7, r7, r6
  40988e:	fa07 fe0e 	lsl.w	lr, r7, lr
  409892:	40cb      	lsrs	r3, r1
  409894:	40cf      	lsrs	r7, r1
  409896:	ea4e 0303 	orr.w	r3, lr, r3
  40989a:	e885 0088 	stmia.w	r5, {r3, r7}
  40989e:	2100      	movs	r1, #0
  4098a0:	e8bd 87f0 	ldmia.w	sp!, {r4, r5, r6, r7, r8, r9, sl, pc}
  4098a4:	4613      	mov	r3, r2
  4098a6:	e6f8      	b.n	40969a <__udivmoddi4+0x96>
  4098a8:	4610      	mov	r0, r2
  4098aa:	e6e0      	b.n	40966e <__udivmoddi4+0x6a>
  4098ac:	ebb8 0402 	subs.w	r4, r8, r2
  4098b0:	eb69 0603 	sbc.w	r6, r9, r3
  4098b4:	3801      	subs	r0, #1
  4098b6:	e7e5      	b.n	409884 <__udivmoddi4+0x280>
  4098b8:	4604      	mov	r4, r0
  4098ba:	e7d8      	b.n	40986e <__udivmoddi4+0x26a>
  4098bc:	4611      	mov	r1, r2
  4098be:	e795      	b.n	4097ec <__udivmoddi4+0x1e8>
  4098c0:	4681      	mov	r9, r0
  4098c2:	e7c0      	b.n	409846 <__udivmoddi4+0x242>
  4098c4:	468a      	mov	sl, r1
  4098c6:	e77c      	b.n	4097c2 <__udivmoddi4+0x1be>
  4098c8:	3b02      	subs	r3, #2
  4098ca:	443c      	add	r4, r7
  4098cc:	e748      	b.n	409760 <__udivmoddi4+0x15c>
  4098ce:	4608      	mov	r0, r1
  4098d0:	e70a      	b.n	4096e8 <__udivmoddi4+0xe4>
  4098d2:	3802      	subs	r0, #2
  4098d4:	443e      	add	r6, r7
  4098d6:	e72f      	b.n	409738 <__udivmoddi4+0x134>
  4098d8:	45c2      	cmp	sl, r8
  4098da:	d3e7      	bcc.n	4098ac <__udivmoddi4+0x2a8>
  4098dc:	463e      	mov	r6, r7
  4098de:	e7d1      	b.n	409884 <__udivmoddi4+0x280>
  4098e0:	4629      	mov	r1, r5
  4098e2:	e8bd 87f0 	ldmia.w	sp!, {r4, r5, r6, r7, r8, r9, sl, pc}
  4098e6:	bf00      	nop

004098e8 <__aeabi_idiv0>:
  4098e8:	4770      	bx	lr
  4098ea:	bf00      	nop
  4098ec:	454c4449 	.word	0x454c4449
  4098f0:	00000000 	.word	0x00000000
  4098f4:	09632509 	.word	0x09632509
  4098f8:	25097525 	.word	0x25097525
  4098fc:	75250975 	.word	0x75250975
  409900:	00000a0d 	.word	0x00000a0d
  409904:	51726d54 	.word	0x51726d54
  409908:	00000000 	.word	0x00000000
  40990c:	20726d54 	.word	0x20726d54
  409910:	00637653 	.word	0x00637653
  409914:	202d2d2d 	.word	0x202d2d2d
  409918:	6b736174 	.word	0x6b736174
  40991c:	20232320 	.word	0x20232320
  409920:	00007525 	.word	0x00007525
  409924:	63617473 	.word	0x63617473
  409928:	766f206b 	.word	0x766f206b
  40992c:	6c667265 	.word	0x6c667265
  409930:	2520776f 	.word	0x2520776f
  409934:	73252078 	.word	0x73252078
  409938:	00000a0d 	.word	0x00000a0d
  40993c:	46202d2d 	.word	0x46202d2d
  409940:	72656572 	.word	0x72656572
  409944:	20736f74 	.word	0x20736f74
  409948:	6d617845 	.word	0x6d617845
  40994c:	20656c70 	.word	0x20656c70
  409950:	0d0a2d2d 	.word	0x0d0a2d2d
  409954:	00000000 	.word	0x00000000
  409958:	454d4153 	.word	0x454d4153
  40995c:	582d3037 	.word	0x582d3037
  409960:	00444c50 	.word	0x00444c50
  409964:	25202d2d 	.word	0x25202d2d
  409968:	000d0a73 	.word	0x000d0a73
  40996c:	353a3731 	.word	0x353a3731
  409970:	33353a39 	.word	0x33353a39
  409974:	00000000 	.word	0x00000000
  409978:	2079614d 	.word	0x2079614d
  40997c:	32203232 	.word	0x32203232
  409980:	00373130 	.word	0x00373130
  409984:	43202d2d 	.word	0x43202d2d
  409988:	69706d6f 	.word	0x69706d6f
  40998c:	3a64656c 	.word	0x3a64656c
  409990:	20732520 	.word	0x20732520
  409994:	2d207325 	.word	0x2d207325
  409998:	000d0a2d 	.word	0x000d0a2d
  40999c:	696e6f4d 	.word	0x696e6f4d
  4099a0:	00726f74 	.word	0x00726f74
  4099a4:	6c696146 	.word	0x6c696146
  4099a8:	74206465 	.word	0x74206465
  4099ac:	7263206f 	.word	0x7263206f
  4099b0:	65746165 	.word	0x65746165
  4099b4:	6e6f4d20 	.word	0x6e6f4d20
  4099b8:	726f7469 	.word	0x726f7469
  4099bc:	73617420 	.word	0x73617420
  4099c0:	000a0d6b 	.word	0x000a0d6b
  4099c4:	00747542 	.word	0x00747542
  4099c8:	0073706f 	.word	0x0073706f
  4099cc:	3064654c 	.word	0x3064654c
  4099d0:	00000000 	.word	0x00000000
  4099d4:	6c696146 	.word	0x6c696146
  4099d8:	74206465 	.word	0x74206465
  4099dc:	7263206f 	.word	0x7263206f
  4099e0:	65746165 	.word	0x65746165
  4099e4:	73657420 	.word	0x73657420
  4099e8:	656c2074 	.word	0x656c2074
  4099ec:	61742064 	.word	0x61742064
  4099f0:	0a0d6b73 	.word	0x0a0d6b73
  4099f4:	00000000 	.word	0x00000000
  4099f8:	3164654c 	.word	0x3164654c
  4099fc:	00000000 	.word	0x00000000
  409a00:	3264654c 	.word	0x3264654c
  409a04:	00000000 	.word	0x00000000
  409a08:	3364654c 	.word	0x3364654c
  409a0c:	00000000 	.word	0x00000000
  409a10:	00000043 	.word	0x00000043

00409a14 <_global_impure_ptr>:
  409a14:	20400010 0000000a                       ..@ ....

00409a1c <zeroes.7035>:
  409a1c:	30303030 30303030 30303030 30303030     0000000000000000
  409a2c:	00464e49 00666e69 004e414e 006e616e     INF.inf.NAN.nan.
  409a3c:	33323130 37363534 42413938 46454443     0123456789ABCDEF
  409a4c:	00000000 33323130 37363534 62613938     ....0123456789ab
  409a5c:	66656463 00000000 6c756e28 0000296c     cdef....(null)..
  409a6c:	00000030                                0...

00409a70 <blanks.7034>:
  409a70:	20202020 20202020 20202020 20202020                     

00409a80 <zeroes.6993>:
  409a80:	30303030 30303030 30303030 30303030     0000000000000000

00409a90 <blanks.6992>:
  409a90:	20202020 20202020 20202020 20202020                     
  409aa0:	69666e49 7974696e 00000000 004e614e     Infinity....NaN.
  409ab0:	49534f50 00000058 0000002e 00000000     POSIX...........

00409ac0 <__mprec_tens>:
  409ac0:	00000000 3ff00000 00000000 40240000     .......?......$@
  409ad0:	00000000 40590000 00000000 408f4000     ......Y@.....@.@
  409ae0:	00000000 40c38800 00000000 40f86a00     .......@.....j.@
  409af0:	00000000 412e8480 00000000 416312d0     .......A......cA
  409b00:	00000000 4197d784 00000000 41cdcd65     .......A....e..A
  409b10:	20000000 4202a05f e8000000 42374876     ... _..B....vH7B
  409b20:	a2000000 426d1a94 e5400000 42a2309c     ......mB..@..0.B
  409b30:	1e900000 42d6bcc4 26340000 430c6bf5     .......B..4&.k.C
  409b40:	37e08000 4341c379 85d8a000 43763457     ...7y.AC....W4vC
  409b50:	674ec800 43abc16d 60913d00 43e158e4     ..Ngm..C.=.`.X.C
  409b60:	78b58c40 4415af1d d6e2ef50 444b1ae4     @..x...DP.....KD
  409b70:	064dd592 4480f0cf c7e14af6 44b52d02     ..M....D.J...-.D
  409b80:	79d99db4 44ea7843                       ...yCx.D

00409b88 <__mprec_bigtens>:
  409b88:	37e08000 4341c379 b5056e17 4693b8b5     ...7y.AC.n.....F
  409b98:	e93ff9f5 4d384f03 f9301d32 5a827748     ..?..O8M2.0.Hw.Z
  409ba8:	7f73bf3c 75154fdd                       <.s..O.u

00409bb0 <p05.5373>:
  409bb0:	00000005 00000019 0000007d              ........}...

00409bbc <_init>:
  409bbc:	b5f8      	push	{r3, r4, r5, r6, r7, lr}
  409bbe:	bf00      	nop
  409bc0:	bcf8      	pop	{r3, r4, r5, r6, r7}
  409bc2:	bc08      	pop	{r3}
  409bc4:	469e      	mov	lr, r3
  409bc6:	4770      	bx	lr

00409bc8 <__init_array_start>:
  409bc8:	00406261 	.word	0x00406261

00409bcc <__frame_dummy_init_array_entry>:
  409bcc:	00400165                                e.@.

00409bd0 <_fini>:
  409bd0:	b5f8      	push	{r3, r4, r5, r6, r7, lr}
  409bd2:	bf00      	nop
  409bd4:	bcf8      	pop	{r3, r4, r5, r6, r7}
  409bd6:	bc08      	pop	{r3}
  409bd8:	469e      	mov	lr, r3
  409bda:	4770      	bx	lr

00409bdc <__fini_array_start>:
  409bdc:	00400141 	.word	0x00400141
